{
   <insert_a_suppression_name_here>
   Memcheck:Leak
   match-leak-kinds: reachable
   fun:_Znwm
   fun:_ZN5boost3log12v2s_mt_posix7sources3aux18get_severity_levelEv
   fun:_ZN5boost3log12v2s_mt_posix7sources3aux14severity_levelINS1_7trivial14severity_levelEE9set_valueES6_
   fun:_ZN5boost3log12v2s_mt_posix7sources21basic_severity_loggerINS2_12basic_loggerIcNS2_18severity_logger_mtINS1_7trivial14severity_levelEEENS2_18multi_thread_modelINS1_3aux14light_rw_mutexEEEEES7_E20open_record_unlockedINS_9parameter3aux15tagged_argumentINS1_8keywords3tag8severityEKS7_EEEENS1_6recordERKT_
   fun:_ZN5boost3log12v2s_mt_posix7sources22basic_composite_loggerIcNS2_18severity_logger_mtINS1_7trivial14severity_levelEEENS2_18multi_thread_modelINS1_3aux14light_rw_mutexEEENS2_8featuresIJNS2_8severityIS6_EEEEEE11open_recordINS_9parameter3aux15tagged_argumentINS1_8keywords3tag8severityEKS6_EEEENS1_6recordERKT_
   fun:_ZZN3bzn5audit5startEvENKUlvE_clEv
   fun:_ZSt13__invoke_implIvZN3bzn5audit5startEvEUlvE_JEET_St14__invoke_otherOT0_DpOT1_
   fun:_ZSt8__invokeIZN3bzn5audit5startEvEUlvE_JEENSt15__invoke_resultIT_JDpT0_EE4typeEOS4_DpOS5_
   fun:_ZZSt9call_onceIZN3bzn5audit5startEvEUlvE_JEEvRSt9once_flagOT_DpOT0_ENKUlvE_clEv
   fun:_ZZSt9call_onceIZN3bzn5audit5startEvEUlvE_JEEvRSt9once_flagOT_DpOT0_ENKUlvE0_clEv
   fun:_ZZSt9call_onceIZN3bzn5audit5startEvEUlvE_JEEvRSt9once_flagOT_DpOT0_ENUlvE0_4_FUNEv
   fun:__pthread_once_slow
}
{
   <insert_a_suppression_name_here>
   Memcheck:Leak
   match-leak-kinds: reachable
   fun:_Znwm
   fun:_ZN5boost3log12v2s_mt_posix3aux11this_thread6get_idEv
   fun:_ZN5boost3log12v2s_mt_posix4core14implementation11thread_data15get_random_seedEv
   fun:_ZN5boost3log12v2s_mt_posix4core14implementation11thread_dataC1Ev
   fun:_ZN5boost3log12v2s_mt_posix4core14implementation16init_thread_dataEv
   fun:_ZN5boost3log12v2s_mt_posix4core14implementation15get_thread_dataEv
   fun:open_record<const boost::log::v2s_mt_posix::attribute_set&>
   fun:_ZN5boost3log12v2s_mt_posix4core11open_recordERKNS1_13attribute_setE
   fun:_ZN5boost3log12v2s_mt_posix7sources12basic_loggerIcNS2_18severity_logger_mtINS1_7trivial14severity_levelEEENS2_18multi_thread_modelINS1_3aux14light_rw_mutexEEEE20open_record_unlockedINS_9parameter3aux15tagged_argumentINS1_8keywords3tag8severityEKS6_EEEENS1_6recordERKT_
   fun:_ZN5boost3log12v2s_mt_posix7sources21basic_severity_loggerINS2_12basic_loggerIcNS2_18severity_logger_mtINS1_7trivial14severity_levelEEENS2_18multi_thread_modelINS1_3aux14light_rw_mutexEEEEES7_E20open_record_unlockedINS_9parameter3aux15tagged_argumentINS1_8keywords3tag8severityEKS7_EEEENS1_6recordERKT_
   fun:_ZN5boost3log12v2s_mt_posix7sources22basic_composite_loggerIcNS2_18severity_logger_mtINS1_7trivial14severity_levelEEENS2_18multi_thread_modelINS1_3aux14light_rw_mutexEEENS2_8featuresIJNS2_8severityIS6_EEEEEE11open_recordINS_9parameter3aux15tagged_argumentINS1_8keywords3tag8severityEKS6_EEEENS1_6recordERKT_
   fun:_ZZN3bzn5audit5startEvENKUlvE_clEv
   fun:_ZSt13__invoke_implIvZN3bzn5audit5startEvEUlvE_JEET_St14__invoke_otherOT0_DpOT1_
}
{
   <insert_a_suppression_name_here>
   Memcheck:Leak
   match-leak-kinds: reachable
   fun:_Znwm
   obj:/usr/lib/x86_64-linux-gnu/libprotobuf.so.17.0.0
   obj:/usr/lib/x86_64-linux-gnu/libprotobuf.so.17.0.0
   fun:_ZN6google8protobuf14MessageFactory29InternalRegisterGeneratedFileEPKcPFvRKNSt7__cxx1112basic_stringIcSt11char_traitsIcESaIcEEEE
   fun:__pthread_once_slow
   obj:/usr/lib/x86_64-linux-gnu/libprotobuf.so.17.0.0
   fun:call_init
   fun:_dl_init
   obj:/lib/x86_64-linux-gnu/ld-2.27.so
}
{
   <insert_a_suppression_name_here>
   Memcheck:Leak
   match-leak-kinds: reachable
   fun:_Znwm
   fun:_ZN5boost6detail8heap_newINS0_25thread_exit_callback_nodeERPNS0_25thread_exit_function_baseERPS2_EEPT_OT0_OT1_
   fun:_ZN5boost6detail24add_thread_exit_functionEPNS0_25thread_exit_function_baseE
   fun:_ZN5boost11this_thread14at_thread_exitINS_3_bi6bind_tINS2_11unspecifiedENS_15checked_deleterImEENS2_5list1INS2_5valueIPmEEEEEEEEvT_
   fun:_ZN5boost3log12v2s_mt_posix7sources3aux18get_severity_levelEv
   fun:_ZN5boost3log12v2s_mt_posix7sources3aux14severity_levelINS1_7trivial14severity_levelEE9set_valueES6_
   fun:_ZN5boost3log12v2s_mt_posix7sources21basic_severity_loggerINS2_12basic_loggerIcNS2_18severity_logger_mtINS1_7trivial14severity_levelEEENS2_18multi_thread_modelINS1_3aux14light_rw_mutexEEEEES7_E20open_record_unlockedINS_9parameter3aux15tagged_argumentINS1_8keywords3tag8severityEKS7_EEEENS1_6recordERKT_
   fun:_ZN5boost3log12v2s_mt_posix7sources22basic_composite_loggerIcNS2_18severity_logger_mtINS1_7trivial14severity_levelEEENS2_18multi_thread_modelINS1_3aux14light_rw_mutexEEENS2_8featuresIJNS2_8severityIS6_EEEEEE11open_recordINS_9parameter3aux15tagged_argumentINS1_8keywords3tag8severityEKS6_EEEENS1_6recordERKT_
   fun:_ZZN3bzn5audit5startEvENKUlvE_clEv
   fun:_ZSt13__invoke_implIvZN3bzn5audit5startEvEUlvE_JEET_St14__invoke_otherOT0_DpOT1_
   fun:_ZSt8__invokeIZN3bzn5audit5startEvEUlvE_JEENSt15__invoke_resultIT_JDpT0_EE4typeEOS4_DpOS5_
   fun:_ZZSt9call_onceIZN3bzn5audit5startEvEUlvE_JEEvRSt9once_flagOT_DpOT0_ENKUlvE_clEv
}
{
   <insert_a_suppression_name_here>
   Memcheck:Leak
   match-leak-kinds: reachable
   fun:_Znwm
   fun:_ZN9__gnu_cxx13new_allocatorIcE8allocateEmPKv
   fun:_ZNSt16allocator_traitsISaIcEE8allocateERS0_m
   fun:_ZNSt7__cxx1112basic_stringIcSt11char_traitsIcESaIcEE9_M_createERmm
   obj:/usr/lib/x86_64-linux-gnu/libprotobuf.so.17.0.0
   obj:/usr/lib/x86_64-linux-gnu/libprotobuf.so.17.0.0
   fun:_ZN6google8protobuf24SimpleDescriptorDatabase15DescriptorIndexISt4pairIPKviEE9AddSymbolERKNSt7__cxx1112basic_stringIcSt11char_traitsIcESaIcEEES6_
   fun:_ZN6google8protobuf24SimpleDescriptorDatabase15DescriptorIndexISt4pairIPKviEE7AddFileERKNS0_19FileDescriptorProtoES6_
   fun:_ZN6google8protobuf25EncodedDescriptorDatabase3AddEPKvi
   fun:_ZN6google8protobuf14DescriptorPool24InternalAddGeneratedFileEPKvi
   fun:_ZN40protobuf_google_2fprotobuf_2fany_2eproto18AddDescriptorsImplEv
   fun:__pthread_once_slow
}
{
   <insert_a_suppression_name_here>
   Memcheck:Leak
   match-leak-kinds: reachable
   fun:_Znwm
   fun:_ZN9__gnu_cxx13new_allocatorIcE8allocateEmPKv
   fun:_ZNSt16allocator_traitsISaIcEE8allocateERS0_m
   fun:_ZNSt7__cxx1112basic_stringIcSt11char_traitsIcESaIcEE9_M_createERmm
   obj:/usr/lib/x86_64-linux-gnu/libprotobuf.so.17.0.0
   obj:/usr/lib/x86_64-linux-gnu/libprotobuf.so.17.0.0
   fun:_ZN6google8protobuf24SimpleDescriptorDatabase15DescriptorIndexISt4pairIPKviEE9AddSymbolERKNSt7__cxx1112basic_stringIcSt11char_traitsIcESaIcEEES6_
   fun:_ZN6google8protobuf24SimpleDescriptorDatabase15DescriptorIndexISt4pairIPKviEE7AddFileERKNS0_19FileDescriptorProtoES6_
   fun:_ZN6google8protobuf25EncodedDescriptorDatabase3AddEPKvi
   fun:_ZN6google8protobuf14DescriptorPool24InternalAddGeneratedFileEPKvi
   fun:_ZN42protobuf_google_2fprotobuf_2fempty_2eproto18AddDescriptorsImplEv
   fun:__pthread_once_slow
}
{
   <insert_a_suppression_name_here>
   Memcheck:Leak
   match-leak-kinds: reachable
   fun:_Znwm
   fun:_ZN9__gnu_cxx13new_allocatorIcE8allocateEmPKv
   fun:_ZNSt16allocator_traitsISaIcEE8allocateERS0_m
   fun:_ZNSt7__cxx1112basic_stringIcSt11char_traitsIcESaIcEE9_M_createERmm
   obj:/usr/lib/x86_64-linux-gnu/libprotobuf.so.17.0.0
   obj:/usr/lib/x86_64-linux-gnu/libprotobuf.so.17.0.0
   fun:_ZN6google8protobuf24SimpleDescriptorDatabase15DescriptorIndexISt4pairIPKviEE9AddSymbolERKNSt7__cxx1112basic_stringIcSt11char_traitsIcESaIcEEES6_
   fun:_ZN6google8protobuf24SimpleDescriptorDatabase15DescriptorIndexISt4pairIPKviEE7AddFileERKNS0_19FileDescriptorProtoES6_
   fun:_ZN6google8protobuf25EncodedDescriptorDatabase3AddEPKvi
   fun:_ZN6google8protobuf14DescriptorPool24InternalAddGeneratedFileEPKvi
   fun:_ZN41protobuf_google_2fprotobuf_2ftype_2eproto18AddDescriptorsImplEv
   fun:__pthread_once_slow
}
{
   <insert_a_suppression_name_here>
   Memcheck:Leak
   match-leak-kinds: reachable
   fun:_Znwm
   fun:_ZN5boost6detail8heap_newINS0_20thread_exit_functionINS_3_bi6bind_tINS3_11unspecifiedENS_15checked_deleterImEENS3_5list1INS3_5valueIPmEEEEEEEERSD_EEPT_OT0_
   fun:_ZN5boost11this_thread14at_thread_exitINS_3_bi6bind_tINS2_11unspecifiedENS_15checked_deleterImEENS2_5list1INS2_5valueIPmEEEEEEEEvT_
   fun:_ZN5boost3log12v2s_mt_posix7sources3aux18get_severity_levelEv
   fun:_ZN5boost3log12v2s_mt_posix7sources3aux14severity_levelINS1_7trivial14severity_levelEE9set_valueES6_
   fun:_ZN5boost3log12v2s_mt_posix7sources21basic_severity_loggerINS2_12basic_loggerIcNS2_18severity_logger_mtINS1_7trivial14severity_levelEEENS2_18multi_thread_modelINS1_3aux14light_rw_mutexEEEEES7_E20open_record_unlockedINS_9parameter3aux15tagged_argumentINS1_8keywords3tag8severityEKS7_EEEENS1_6recordERKT_
   fun:_ZN5boost3log12v2s_mt_posix7sources22basic_composite_loggerIcNS2_18severity_logger_mtINS1_7trivial14severity_levelEEENS2_18multi_thread_modelINS1_3aux14light_rw_mutexEEENS2_8featuresIJNS2_8severityIS6_EEEEEE11open_recordINS_9parameter3aux15tagged_argumentINS1_8keywords3tag8severityEKS6_EEEENS1_6recordERKT_
   fun:_ZZN3bzn5audit5startEvENKUlvE_clEv
   fun:_ZSt13__invoke_implIvZN3bzn5audit5startEvEUlvE_JEET_St14__invoke_otherOT0_DpOT1_
   fun:_ZSt8__invokeIZN3bzn5audit5startEvEUlvE_JEENSt15__invoke_resultIT_JDpT0_EE4typeEOS4_DpOS5_
   fun:_ZZSt9call_onceIZN3bzn5audit5startEvEUlvE_JEEvRSt9once_flagOT_DpOT0_ENKUlvE_clEv
   fun:_ZZSt9call_onceIZN3bzn5audit5startEvEUlvE_JEEvRSt9once_flagOT_DpOT0_ENKUlvE0_clEv
}
{
   <insert_a_suppression_name_here>
   Memcheck:Leak
   match-leak-kinds: reachable
   fun:_Znwm
   fun:_ZN5boost6detail12shared_countC1INS0_16thread_data_baseEEEPT_
   fun:_ZN5boost6detail20sp_pointer_constructINS0_16thread_data_baseES2_EEvPNS_10shared_ptrIT_EEPT0_RNS0_12shared_countE
   fun:_ZN5boost10shared_ptrINS_6detail16thread_data_baseEEC1IS2_EEPT_
   fun:_ZN5boost10shared_ptrINS_6detail16thread_data_baseEE5resetIS2_EEvPT_
   fun:_ZN5boost6detail25make_external_thread_dataEv
   fun:_ZN5boost6detail31get_or_make_current_thread_dataEv
   fun:_ZN5boost6detail24add_thread_exit_functionEPNS0_25thread_exit_function_baseE
   fun:_ZN5boost11this_thread14at_thread_exitINS_3_bi6bind_tINS2_11unspecifiedENS_15checked_deleterImEENS2_5list1INS2_5valueIPmEEEEEEEEvT_
   fun:_ZN5boost3log12v2s_mt_posix7sources3aux18get_severity_levelEv
   fun:_ZN5boost3log12v2s_mt_posix7sources3aux14severity_levelINS1_7trivial14severity_levelEE9set_valueES6_
   fun:_ZN5boost3log12v2s_mt_posix7sources21basic_severity_loggerINS2_12basic_loggerIcNS2_18severity_logger_mtINS1_7trivial14severity_levelEEENS2_18multi_thread_modelINS1_3aux14light_rw_mutexEEEEES7_E20open_record_unlockedINS_9parameter3aux15tagged_argumentINS1_8keywords3tag8severityEKS7_EEEENS1_6recordERKT_
}
{
   <insert_a_suppression_name_here>
   Memcheck:Leak
   match-leak-kinds: reachable
   fun:_Znwm
   fun:_ZN9__gnu_cxx13new_allocatorIcE8allocateEmPKv
   fun:_ZNSt16allocator_traitsISaIcEE8allocateERS0_m
   fun:_ZNSt7__cxx1112basic_stringIcSt11char_traitsIcESaIcEE9_M_createERmm
   obj:/usr/lib/x86_64-linux-gnu/libprotobuf.so.17.0.0
   obj:/usr/lib/x86_64-linux-gnu/libprotobuf.so.17.0.0
   fun:_ZN6google8protobuf24SimpleDescriptorDatabase15DescriptorIndexISt4pairIPKviEE9AddSymbolERKNSt7__cxx1112basic_stringIcSt11char_traitsIcESaIcEEES6_
   fun:_ZN6google8protobuf24SimpleDescriptorDatabase15DescriptorIndexISt4pairIPKviEE7AddFileERKNS0_19FileDescriptorProtoES6_
   fun:_ZN6google8protobuf25EncodedDescriptorDatabase3AddEPKvi
   fun:_ZN6google8protobuf14DescriptorPool24InternalAddGeneratedFileEPKvi
   fun:_ZN45protobuf_google_2fprotobuf_2fduration_2eproto18AddDescriptorsImplEv
   fun:__pthread_once_slow
}
{
   <insert_a_suppression_name_here>
   Memcheck:Leak
   match-leak-kinds: reachable
   fun:_Znwm
   fun:_ZN9__gnu_cxx13new_allocatorIcE8allocateEmPKv
   fun:_ZNSt16allocator_traitsISaIcEE8allocateERS0_m
   fun:_ZNSt7__cxx1112basic_stringIcSt11char_traitsIcESaIcEE9_M_createERmm
   obj:/usr/lib/x86_64-linux-gnu/libprotobuf.so.17.0.0
   fun:_ZN6google8protobuf18InsertIfNotPresentISt3mapINSt7__cxx1112basic_stringIcSt11char_traitsIcESaIcEEESt4pairIPKviESt4lessIS8_ESaIS9_IKS8_SC_EEEEEbPT_RKNSJ_10value_type10first_typeERKNSL_11second_typeE
   fun:_ZN6google8protobuf24SimpleDescriptorDatabase15DescriptorIndexISt4pairIPKviEE7AddFileERKNS0_19FileDescriptorProtoES6_
   fun:_ZN6google8protobuf25EncodedDescriptorDatabase3AddEPKvi
   fun:_ZN6google8protobuf14DescriptorPool24InternalAddGeneratedFileEPKvi
   fun:_ZN40protobuf_google_2fprotobuf_2fany_2eproto18AddDescriptorsImplEv
   fun:__pthread_once_slow
   obj:/usr/lib/x86_64-linux-gnu/libprotobuf.so.17.0.0
}
{
   <insert_a_suppression_name_here>
   Memcheck:Leak
   match-leak-kinds: reachable
   fun:_Znwm
   fun:_ZN9__gnu_cxx13new_allocatorIcE8allocateEmPKv
   fun:_ZNSt16allocator_traitsISaIcEE8allocateERS0_m
   fun:_ZNSt7__cxx1112basic_stringIcSt11char_traitsIcESaIcEE9_M_createERmm
   obj:/usr/lib/x86_64-linux-gnu/libprotobuf.so.17.0.0
   fun:_ZN6google8protobuf18InsertIfNotPresentISt3mapINSt7__cxx1112basic_stringIcSt11char_traitsIcESaIcEEESt4pairIPKviESt4lessIS8_ESaIS9_IKS8_SC_EEEEEbPT_RKNSJ_10value_type10first_typeERKNSL_11second_typeE
   fun:_ZN6google8protobuf24SimpleDescriptorDatabase15DescriptorIndexISt4pairIPKviEE7AddFileERKNS0_19FileDescriptorProtoES6_
   fun:_ZN6google8protobuf25EncodedDescriptorDatabase3AddEPKvi
   fun:_ZN6google8protobuf14DescriptorPool24InternalAddGeneratedFileEPKvi
   fun:_ZN40protobuf_google_2fprotobuf_2fapi_2eproto18AddDescriptorsImplEv
   fun:__pthread_once_slow
   obj:/usr/lib/x86_64-linux-gnu/libprotobuf.so.17.0.0
}
{
   <insert_a_suppression_name_here>
   Memcheck:Leak
   match-leak-kinds: reachable
   fun:_Znwm
   fun:_ZN9__gnu_cxx13new_allocatorIcE8allocateEmPKv
   fun:_ZNSt16allocator_traitsISaIcEE8allocateERS0_m
   fun:_ZNSt7__cxx1112basic_stringIcSt11char_traitsIcESaIcEE9_M_createERmm
   obj:/usr/lib/x86_64-linux-gnu/libprotobuf.so.17.0.0
   obj:/usr/lib/x86_64-linux-gnu/libprotobuf.so.17.0.0
   fun:_ZN6google8protobuf24SimpleDescriptorDatabase15DescriptorIndexISt4pairIPKviEE9AddSymbolERKNSt7__cxx1112basic_stringIcSt11char_traitsIcESaIcEEES6_
   fun:_ZN6google8protobuf24SimpleDescriptorDatabase15DescriptorIndexISt4pairIPKviEE7AddFileERKNS0_19FileDescriptorProtoES6_
   fun:_ZN6google8protobuf25EncodedDescriptorDatabase3AddEPKvi
   fun:_ZN6google8protobuf14DescriptorPool24InternalAddGeneratedFileEPKvi
   fun:_ZN49protobuf_google_2fprotobuf_2ffield_5fmask_2eproto18AddDescriptorsImplEv
   fun:__pthread_once_slow
}
{
   <insert_a_suppression_name_here>
   Memcheck:Leak
   match-leak-kinds: reachable
   fun:_Znwm
   fun:_ZN9__gnu_cxx13new_allocatorIcE8allocateEmPKv
   fun:_ZNSt16allocator_traitsISaIcEE8allocateERS0_m
   fun:_ZNSt7__cxx1112basic_stringIcSt11char_traitsIcESaIcEE9_M_createERmm
   obj:/usr/lib/x86_64-linux-gnu/libprotobuf.so.17.0.0
   obj:/usr/lib/x86_64-linux-gnu/libprotobuf.so.17.0.0
   fun:_ZN6google8protobuf24SimpleDescriptorDatabase15DescriptorIndexISt4pairIPKviEE9AddSymbolERKNSt7__cxx1112basic_stringIcSt11char_traitsIcESaIcEEES6_
   fun:_ZN6google8protobuf24SimpleDescriptorDatabase15DescriptorIndexISt4pairIPKviEE7AddFileERKNS0_19FileDescriptorProtoES6_
   fun:_ZN6google8protobuf25EncodedDescriptorDatabase3AddEPKvi
   fun:_ZN6google8protobuf14DescriptorPool24InternalAddGeneratedFileEPKvi
   fun:_ZN43protobuf_google_2fprotobuf_2fstruct_2eproto18AddDescriptorsImplEv
   fun:__pthread_once_slow
}
{
   <insert_a_suppression_name_here>
   Memcheck:Leak
   match-leak-kinds: reachable
   fun:_Znwm
   fun:_ZN9__gnu_cxx13new_allocatorIcE8allocateEmPKv
   fun:_ZNSt16allocator_traitsISaIcEE8allocateERS0_m
   fun:_ZNSt7__cxx1112basic_stringIcSt11char_traitsIcESaIcEE9_M_createERmm
   obj:/usr/lib/x86_64-linux-gnu/libprotobuf.so.17.0.0
   obj:/usr/lib/x86_64-linux-gnu/libprotobuf.so.17.0.0
   fun:_ZN6google8protobuf24SimpleDescriptorDatabase15DescriptorIndexISt4pairIPKviEE9AddSymbolERKNSt7__cxx1112basic_stringIcSt11char_traitsIcESaIcEEES6_
   fun:_ZN6google8protobuf24SimpleDescriptorDatabase15DescriptorIndexISt4pairIPKviEE7AddFileERKNS0_19FileDescriptorProtoES6_
   fun:_ZN6google8protobuf25EncodedDescriptorDatabase3AddEPKvi
   fun:_ZN6google8protobuf14DescriptorPool24InternalAddGeneratedFileEPKvi
   fun:_ZN46protobuf_google_2fprotobuf_2ftimestamp_2eproto18AddDescriptorsImplEv
   fun:__pthread_once_slow
}
{
   <insert_a_suppression_name_here>
   Memcheck:Leak
   match-leak-kinds: reachable
   fun:_Znwm
   fun:_ZN9__gnu_cxx13new_allocatorIcE8allocateEmPKv
   fun:_ZNSt16allocator_traitsISaIcEE8allocateERS0_m
   fun:_ZNSt7__cxx1112basic_stringIcSt11char_traitsIcESaIcEE9_M_createERmm
   obj:/usr/lib/x86_64-linux-gnu/libprotobuf.so.17.0.0
   fun:_ZN6google8protobuf18InsertIfNotPresentISt3mapINSt7__cxx1112basic_stringIcSt11char_traitsIcESaIcEEESt4pairIPKviESt4lessIS8_ESaIS9_IKS8_SC_EEEEEbPT_RKNSJ_10value_type10first_typeERKNSL_11second_typeE
   fun:_ZN6google8protobuf24SimpleDescriptorDatabase15DescriptorIndexISt4pairIPKviEE7AddFileERKNS0_19FileDescriptorProtoES6_
   fun:_ZN6google8protobuf25EncodedDescriptorDatabase3AddEPKvi
   fun:_ZN6google8protobuf14DescriptorPool24InternalAddGeneratedFileEPKvi
   fun:_ZN41protobuf_google_2fprotobuf_2ftype_2eproto18AddDescriptorsImplEv
   fun:__pthread_once_slow
   obj:/usr/lib/x86_64-linux-gnu/libprotobuf.so.17.0.0
}
{
   <insert_a_suppression_name_here>
   Memcheck:Leak
   match-leak-kinds: reachable
   fun:_Znwm
   fun:_ZN9__gnu_cxx13new_allocatorIcE8allocateEmPKv
   fun:_ZNSt16allocator_traitsISaIcEE8allocateERS0_m
   fun:_ZNSt7__cxx1112basic_stringIcSt11char_traitsIcESaIcEE9_M_createERmm
   obj:/usr/lib/x86_64-linux-gnu/libprotobuf.so.17.0.0
   fun:_ZN6google8protobuf18InsertIfNotPresentISt3mapINSt7__cxx1112basic_stringIcSt11char_traitsIcESaIcEEESt4pairIPKviESt4lessIS8_ESaIS9_IKS8_SC_EEEEEbPT_RKNSJ_10value_type10first_typeERKNSL_11second_typeE
   fun:_ZN6google8protobuf24SimpleDescriptorDatabase15DescriptorIndexISt4pairIPKviEE7AddFileERKNS0_19FileDescriptorProtoES6_
   fun:_ZN6google8protobuf25EncodedDescriptorDatabase3AddEPKvi
   fun:_ZN6google8protobuf14DescriptorPool24InternalAddGeneratedFileEPKvi
   fun:_ZN42protobuf_google_2fprotobuf_2fempty_2eproto18AddDescriptorsImplEv
   fun:__pthread_once_slow
   obj:/usr/lib/x86_64-linux-gnu/libprotobuf.so.17.0.0
}
{
   <insert_a_suppression_name_here>
   Memcheck:Leak
   match-leak-kinds: reachable
   fun:_Znwm
   fun:_ZN9__gnu_cxx13new_allocatorIcE8allocateEmPKv
   fun:_ZNSt16allocator_traitsISaIcEE8allocateERS0_m
   fun:_ZNSt7__cxx1112basic_stringIcSt11char_traitsIcESaIcEE9_M_createERmm
   obj:/usr/lib/x86_64-linux-gnu/libprotobuf.so.17.0.0
   fun:_ZN6google8protobuf18InsertIfNotPresentISt3mapINSt7__cxx1112basic_stringIcSt11char_traitsIcESaIcEEESt4pairIPKviESt4lessIS8_ESaIS9_IKS8_SC_EEEEEbPT_RKNSJ_10value_type10first_typeERKNSL_11second_typeE
   fun:_ZN6google8protobuf24SimpleDescriptorDatabase15DescriptorIndexISt4pairIPKviEE7AddFileERKNS0_19FileDescriptorProtoES6_
   fun:_ZN6google8protobuf25EncodedDescriptorDatabase3AddEPKvi
   fun:_ZN6google8protobuf14DescriptorPool24InternalAddGeneratedFileEPKvi
   fun:_ZN43protobuf_google_2fprotobuf_2fstruct_2eproto18AddDescriptorsImplEv
   fun:__pthread_once_slow
   obj:/usr/lib/x86_64-linux-gnu/libprotobuf.so.17.0.0
}
{
   <insert_a_suppression_name_here>
   Memcheck:Leak
   match-leak-kinds: reachable
   fun:_Znwm
   fun:_ZN9__gnu_cxx13new_allocatorIcE8allocateEmPKv
   fun:_ZNSt16allocator_traitsISaIcEE8allocateERS0_m
   fun:_ZNSt7__cxx1112basic_stringIcSt11char_traitsIcESaIcEE9_M_createERmm
   obj:/usr/lib/x86_64-linux-gnu/libprotobuf.so.17.0.0
   obj:/usr/lib/x86_64-linux-gnu/libprotobuf.so.17.0.0
   fun:_ZN6google8protobuf24SimpleDescriptorDatabase15DescriptorIndexISt4pairIPKviEE9AddSymbolERKNSt7__cxx1112basic_stringIcSt11char_traitsIcESaIcEEES6_
   fun:_ZN6google8protobuf24SimpleDescriptorDatabase15DescriptorIndexISt4pairIPKviEE7AddFileERKNS0_19FileDescriptorProtoES6_
   fun:_ZN6google8protobuf25EncodedDescriptorDatabase3AddEPKvi
   fun:_ZN6google8protobuf14DescriptorPool24InternalAddGeneratedFileEPKvi
   fun:_ZN53protobuf_google_2fprotobuf_2fsource_5fcontext_2eproto18AddDescriptorsImplEv
   fun:__pthread_once_slow
}
{
   <insert_a_suppression_name_here>
   Memcheck:Leak
   match-leak-kinds: reachable
   fun:_Znwm
   fun:_ZN9__gnu_cxx13new_allocatorIcE8allocateEmPKv
   fun:_ZNSt16allocator_traitsISaIcEE8allocateERS0_m
   fun:_ZNSt7__cxx1112basic_stringIcSt11char_traitsIcESaIcEE9_M_createERmm
   obj:/usr/lib/x86_64-linux-gnu/libprotobuf.so.17.0.0
   fun:_ZN6google8protobuf18InsertIfNotPresentISt3mapINSt7__cxx1112basic_stringIcSt11char_traitsIcESaIcEEESt4pairIPKviESt4lessIS8_ESaIS9_IKS8_SC_EEEEEbPT_RKNSJ_10value_type10first_typeERKNSL_11second_typeE
   fun:_ZN6google8protobuf24SimpleDescriptorDatabase15DescriptorIndexISt4pairIPKviEE7AddFileERKNS0_19FileDescriptorProtoES6_
   fun:_ZN6google8protobuf25EncodedDescriptorDatabase3AddEPKvi
   fun:_ZN6google8protobuf14DescriptorPool24InternalAddGeneratedFileEPKvi
   fun:_ZN45protobuf_google_2fprotobuf_2fduration_2eproto18AddDescriptorsImplEv
   fun:__pthread_once_slow
   obj:/usr/lib/x86_64-linux-gnu/libprotobuf.so.17.0.0
}
{
   <insert_a_suppression_name_here>
   Memcheck:Leak
   match-leak-kinds: reachable
   fun:_Znwm
   fun:_ZN9__gnu_cxx13new_allocatorIcE8allocateEmPKv
   fun:_ZNSt16allocator_traitsISaIcEE8allocateERS0_m
   fun:_ZNSt7__cxx1112basic_stringIcSt11char_traitsIcESaIcEE9_M_createERmm
   obj:/usr/lib/x86_64-linux-gnu/libprotobuf.so.17.0.0
   fun:_ZN6google8protobuf18InsertIfNotPresentISt3mapINSt7__cxx1112basic_stringIcSt11char_traitsIcESaIcEEESt4pairIPKviESt4lessIS8_ESaIS9_IKS8_SC_EEEEEbPT_RKNSJ_10value_type10first_typeERKNSL_11second_typeE
   fun:_ZN6google8protobuf24SimpleDescriptorDatabase15DescriptorIndexISt4pairIPKviEE7AddFileERKNS0_19FileDescriptorProtoES6_
   fun:_ZN6google8protobuf25EncodedDescriptorDatabase3AddEPKvi
   fun:_ZN6google8protobuf14DescriptorPool24InternalAddGeneratedFileEPKvi
   fun:_ZN45protobuf_google_2fprotobuf_2fwrappers_2eproto18AddDescriptorsImplEv
   fun:__pthread_once_slow
   obj:/usr/lib/x86_64-linux-gnu/libprotobuf.so.17.0.0
}
{
   <insert_a_suppression_name_here>
   Memcheck:Leak
   match-leak-kinds: reachable
   fun:_Znwm
   fun:_ZN6google8protobuf14MessageFactory29InternalRegisterGeneratedFileEPKcPFvRKNSt7__cxx1112basic_stringIcSt11char_traitsIcESaIcEEEE
   fun:_ZN40protobuf_google_2fprotobuf_2fapi_2eproto18AddDescriptorsImplEv
   fun:__pthread_once_slow
   obj:/usr/lib/x86_64-linux-gnu/libprotobuf.so.17.0.0
   fun:call_init
   fun:_dl_init
   obj:/lib/x86_64-linux-gnu/ld-2.27.so
}
{
   <insert_a_suppression_name_here>
   Memcheck:Leak
   match-leak-kinds: reachable
   fun:_Znwm
   fun:_ZN6google8protobuf14MessageFactory29InternalRegisterGeneratedFileEPKcPFvRKNSt7__cxx1112basic_stringIcSt11char_traitsIcESaIcEEEE
   fun:__pthread_once_slow
   obj:/usr/lib/x86_64-linux-gnu/libprotobuf.so.17.0.0
   fun:_ZN40protobuf_google_2fprotobuf_2fapi_2eproto18AddDescriptorsImplEv
   fun:__pthread_once_slow
   obj:/usr/lib/x86_64-linux-gnu/libprotobuf.so.17.0.0
   fun:call_init
   fun:_dl_init
   obj:/lib/x86_64-linux-gnu/ld-2.27.so
}
{
   <insert_a_suppression_name_here>
   Memcheck:Leak
   match-leak-kinds: reachable
   fun:_Znwm
   fun:_ZN6google8protobuf14MessageFactory29InternalRegisterGeneratedFileEPKcPFvRKNSt7__cxx1112basic_stringIcSt11char_traitsIcESaIcEEEE
   fun:_ZN41protobuf_google_2fprotobuf_2ftype_2eproto18AddDescriptorsImplEv
   fun:__pthread_once_slow
   obj:/usr/lib/x86_64-linux-gnu/libprotobuf.so.17.0.0
   fun:__pthread_once_slow
   obj:/usr/lib/x86_64-linux-gnu/libprotobuf.so.17.0.0
   fun:call_init
   fun:_dl_init
   obj:/lib/x86_64-linux-gnu/ld-2.27.so
}
{
   <insert_a_suppression_name_here>
   Memcheck:Leak
   match-leak-kinds: reachable
   fun:_Znwm
   fun:_ZN9__gnu_cxx13new_allocatorIcE8allocateEmPKv
   fun:_ZNSt16allocator_traitsISaIcEE8allocateERS0_m
   fun:_ZNSt7__cxx1112basic_stringIcSt11char_traitsIcESaIcEE9_M_createERmm
   obj:/usr/lib/x86_64-linux-gnu/libprotobuf.so.17.0.0
   fun:_ZN6google8protobuf18InsertIfNotPresentISt3mapINSt7__cxx1112basic_stringIcSt11char_traitsIcESaIcEEESt4pairIPKviESt4lessIS8_ESaIS9_IKS8_SC_EEEEEbPT_RKNSJ_10value_type10first_typeERKNSL_11second_typeE
   fun:_ZN6google8protobuf24SimpleDescriptorDatabase15DescriptorIndexISt4pairIPKviEE7AddFileERKNS0_19FileDescriptorProtoES6_
   fun:_ZN6google8protobuf25EncodedDescriptorDatabase3AddEPKvi
   fun:_ZN6google8protobuf14DescriptorPool24InternalAddGeneratedFileEPKvi
   fun:_ZN46protobuf_google_2fprotobuf_2ftimestamp_2eproto18AddDescriptorsImplEv
   fun:__pthread_once_slow
   obj:/usr/lib/x86_64-linux-gnu/libprotobuf.so.17.0.0
}
{
   <insert_a_suppression_name_here>
   Memcheck:Leak
   match-leak-kinds: reachable
   fun:_Znwm
   fun:_ZN6google8protobuf14MessageFactory29InternalRegisterGeneratedFileEPKcPFvRKNSt7__cxx1112basic_stringIcSt11char_traitsIcESaIcEEEE
   fun:_ZN22protobuf_audit_2eproto18AddDescriptorsImplEv
   fun:_ZSt13__invoke_implIvRFvvEJEET_St14__invoke_otherOT0_DpOT1_
   fun:_ZSt8__invokeIRFvvEJEENSt15__invoke_resultIT_JDpT0_EE4typeEOS3_DpOS4_
   fun:_ZZSt9call_onceIRFvvEJEEvRSt9once_flagOT_DpOT0_ENKUlvE_clEv
   fun:_ZZSt9call_onceIRFvvEJEEvRSt9once_flagOT_DpOT0_ENKUlvE0_clEv
   fun:_ZZSt9call_onceIRFvvEJEEvRSt9once_flagOT_DpOT0_ENUlvE0_4_FUNEv
   fun:__pthread_once_slow
   fun:_ZL14__gthread_oncePiPFvvE
   fun:_ZSt9call_onceIRFvvEJEEvRSt9once_flagOT_DpOT0_
   fun:_ZN6google8protobuf8internal9call_onceIJRSt9once_flagRFvvEEEEvDpOT_
}
{
   <insert_a_suppression_name_here>
   Memcheck:Leak
   match-leak-kinds: reachable
   fun:_Znwm
   fun:_ZN9__gnu_cxx13new_allocatorIcE8allocateEmPKv
   fun:_ZNSt16allocator_traitsISaIcEE8allocateERS0_m
   fun:_ZNSt7__cxx1112basic_stringIcSt11char_traitsIcESaIcEE9_M_createERmm
   obj:/usr/lib/x86_64-linux-gnu/libprotobuf.so.17.0.0
   fun:_ZN6google8protobuf18InsertIfNotPresentISt3mapINSt7__cxx1112basic_stringIcSt11char_traitsIcESaIcEEESt4pairIPKviESt4lessIS8_ESaIS9_IKS8_SC_EEEEEbPT_RKNSJ_10value_type10first_typeERKNSL_11second_typeE
   fun:_ZN6google8protobuf24SimpleDescriptorDatabase15DescriptorIndexISt4pairIPKviEE7AddFileERKNS0_19FileDescriptorProtoES6_
   fun:_ZN6google8protobuf25EncodedDescriptorDatabase3AddEPKvi
   fun:_ZN6google8protobuf14DescriptorPool24InternalAddGeneratedFileEPKvi
   fun:_ZN47protobuf_google_2fprotobuf_2fdescriptor_2eproto18AddDescriptorsImplEv
   fun:__pthread_once_slow
   obj:/usr/lib/x86_64-linux-gnu/libprotobuf.so.17.0.0
}
{
   <insert_a_suppression_name_here>
   Memcheck:Leak
   match-leak-kinds: reachable
   fun:_Znwm
   fun:_ZN9__gnu_cxx13new_allocatorIcE8allocateEmPKv
   fun:_ZNSt16allocator_traitsISaIcEE8allocateERS0_m
   fun:_ZNSt7__cxx1112basic_stringIcSt11char_traitsIcESaIcEE9_M_createERmm
   obj:/usr/lib/x86_64-linux-gnu/libprotobuf.so.17.0.0
   fun:_ZN6google8protobuf18InsertIfNotPresentISt3mapINSt7__cxx1112basic_stringIcSt11char_traitsIcESaIcEEESt4pairIPKviESt4lessIS8_ESaIS9_IKS8_SC_EEEEEbPT_RKNSJ_10value_type10first_typeERKNSL_11second_typeE
   fun:_ZN6google8protobuf24SimpleDescriptorDatabase15DescriptorIndexISt4pairIPKviEE7AddFileERKNS0_19FileDescriptorProtoES6_
   fun:_ZN6google8protobuf25EncodedDescriptorDatabase3AddEPKvi
   fun:_ZN6google8protobuf14DescriptorPool24InternalAddGeneratedFileEPKvi
   fun:_ZN49protobuf_google_2fprotobuf_2ffield_5fmask_2eproto18AddDescriptorsImplEv
   fun:__pthread_once_slow
   obj:/usr/lib/x86_64-linux-gnu/libprotobuf.so.17.0.0
}
{
   <insert_a_suppression_name_here>
   Memcheck:Leak
   match-leak-kinds: reachable
   fun:_Znwm
   fun:_ZN9__gnu_cxx13new_allocatorIcE8allocateEmPKv
   fun:_ZNSt16allocator_traitsISaIcEE8allocateERS0_m
   fun:_ZNSt7__cxx1112basic_stringIcSt11char_traitsIcESaIcEE9_M_createERmm
   obj:/usr/lib/x86_64-linux-gnu/libprotobuf.so.17.0.0
   fun:_ZN6google8protobuf18InsertIfNotPresentISt3mapINSt7__cxx1112basic_stringIcSt11char_traitsIcESaIcEEESt4pairIPKviESt4lessIS8_ESaIS9_IKS8_SC_EEEEEbPT_RKNSJ_10value_type10first_typeERKNSL_11second_typeE
   fun:_ZN6google8protobuf24SimpleDescriptorDatabase15DescriptorIndexISt4pairIPKviEE7AddFileERKNS0_19FileDescriptorProtoES6_
   fun:_ZN6google8protobuf25EncodedDescriptorDatabase3AddEPKvi
   fun:_ZN6google8protobuf14DescriptorPool24InternalAddGeneratedFileEPKvi
   fun:_ZN53protobuf_google_2fprotobuf_2fsource_5fcontext_2eproto18AddDescriptorsImplEv
   fun:__pthread_once_slow
   obj:/usr/lib/x86_64-linux-gnu/libprotobuf.so.17.0.0
}
{
   <insert_a_suppression_name_here>
   Memcheck:Leak
   match-leak-kinds: reachable
   fun:_Znwm
   fun:_ZN9__gnu_cxx13new_allocatorIcE8allocateEmPKv
   fun:_ZNSt16allocator_traitsISaIcEE8allocateERS0_m
   fun:_ZNSt7__cxx1112basic_stringIcSt11char_traitsIcESaIcEE9_M_createERmm
   obj:/usr/lib/x86_64-linux-gnu/libprotobuf.so.17.0.0
   obj:/usr/lib/x86_64-linux-gnu/libprotobuf.so.17.0.0
   fun:_ZN6google8protobuf24SimpleDescriptorDatabase15DescriptorIndexISt4pairIPKviEE9AddSymbolERKNSt7__cxx1112basic_stringIcSt11char_traitsIcESaIcEEES6_
   fun:_ZN6google8protobuf24SimpleDescriptorDatabase15DescriptorIndexISt4pairIPKviEE7AddFileERKNS0_19FileDescriptorProtoES6_
   fun:_ZN6google8protobuf25EncodedDescriptorDatabase3AddEPKvi
   fun:_ZN6google8protobuf14DescriptorPool24InternalAddGeneratedFileEPKvi
   fun:_ZN22protobuf_audit_2eproto18AddDescriptorsImplEv
   fun:_ZSt13__invoke_implIvRFvvEJEET_St14__invoke_otherOT0_DpOT1_
}
{
   <insert_a_suppression_name_here>
   Memcheck:Leak
   match-leak-kinds: reachable
   fun:_Znwm
   fun:_ZN6google8protobuf6StructC1Ev
   obj:/usr/lib/x86_64-linux-gnu/libprotobuf.so.17.0.0
   obj:/usr/lib/x86_64-linux-gnu/libprotobuf.so.17.0.0
   fun:_ZN6google8protobuf8internal11InitSCCImplEPNS1_11SCCInfoBaseE
   fun:_ZN43protobuf_google_2fprotobuf_2fstruct_2eproto18AddDescriptorsImplEv
   fun:__pthread_once_slow
   obj:/usr/lib/x86_64-linux-gnu/libprotobuf.so.17.0.0
   fun:call_init
   fun:_dl_init
   obj:/lib/x86_64-linux-gnu/ld-2.27.so
}
{
   <insert_a_suppression_name_here>
   Memcheck:Leak
   match-leak-kinds: reachable
   fun:_Znwm
   fun:_ZN6google8protobuf8internal13OnShutdownRunEPFvPKvES3_
   fun:_ZN6google8protobuf8internal20InitProtobufDefaultsEv
   fun:_ZN6google8protobuf8internal11InitSCCImplEPNS1_11SCCInfoBaseE
   fun:_ZN40protobuf_google_2fprotobuf_2fany_2eproto18AddDescriptorsImplEv
   fun:__pthread_once_slow
   obj:/usr/lib/x86_64-linux-gnu/libprotobuf.so.17.0.0
   fun:call_init
   fun:_dl_init
   obj:/lib/x86_64-linux-gnu/ld-2.27.so
}
{
   <insert_a_suppression_name_here>
   Memcheck:Leak
   match-leak-kinds: reachable
   fun:_Znwm
   fun:_ZN9__gnu_cxx13new_allocatorIcE8allocateEmPKv
   fun:_ZNSt16allocator_traitsISaIcEE8allocateERS0_m
   fun:_ZNSt7__cxx1112basic_stringIcSt11char_traitsIcESaIcEE9_M_createERmm
   obj:/usr/lib/x86_64-linux-gnu/libprotobuf.so.17.0.0
   obj:/usr/lib/x86_64-linux-gnu/libprotobuf.so.17.0.0
   fun:_ZN6google8protobuf24SimpleDescriptorDatabase15DescriptorIndexISt4pairIPKviEE9AddSymbolERKNSt7__cxx1112basic_stringIcSt11char_traitsIcESaIcEEES6_
   fun:_ZN6google8protobuf24SimpleDescriptorDatabase15DescriptorIndexISt4pairIPKviEE7AddFileERKNS0_19FileDescriptorProtoES6_
   fun:_ZN6google8protobuf25EncodedDescriptorDatabase3AddEPKvi
   fun:_ZN6google8protobuf14DescriptorPool24InternalAddGeneratedFileEPKvi
   fun:_ZN40protobuf_google_2fprotobuf_2fapi_2eproto18AddDescriptorsImplEv
   fun:__pthread_once_slow
}
{
   <insert_a_suppression_name_here>
   Memcheck:Leak
   match-leak-kinds: reachable
   fun:_Znwm
   fun:_ZN6google8protobuf18InsertIfNotPresentISt3mapINSt7__cxx1112basic_stringIcSt11char_traitsIcESaIcEEESt4pairIPKviESt4lessIS8_ESaIS9_IKS8_SC_EEEEEbPT_RKNSJ_10value_type10first_typeERKNSL_11second_typeE
   fun:_ZN6google8protobuf24SimpleDescriptorDatabase15DescriptorIndexISt4pairIPKviEE7AddFileERKNS0_19FileDescriptorProtoES6_
   fun:_ZN6google8protobuf25EncodedDescriptorDatabase3AddEPKvi
   fun:_ZN6google8protobuf14DescriptorPool24InternalAddGeneratedFileEPKvi
   fun:_ZN40protobuf_google_2fprotobuf_2fany_2eproto18AddDescriptorsImplEv
   fun:__pthread_once_slow
   obj:/usr/lib/x86_64-linux-gnu/libprotobuf.so.17.0.0
   fun:call_init
   fun:_dl_init
   obj:/lib/x86_64-linux-gnu/ld-2.27.so
}
{
   <insert_a_suppression_name_here>
   Memcheck:Leak
   match-leak-kinds: reachable
   fun:_Znwm
   obj:/usr/lib/x86_64-linux-gnu/libprotobuf.so.17.0.0
   fun:_ZN6google8protobuf24SimpleDescriptorDatabase15DescriptorIndexISt4pairIPKviEE9AddSymbolERKNSt7__cxx1112basic_stringIcSt11char_traitsIcESaIcEEES6_
   fun:_ZN6google8protobuf24SimpleDescriptorDatabase15DescriptorIndexISt4pairIPKviEE7AddFileERKNS0_19FileDescriptorProtoES6_
   fun:_ZN6google8protobuf25EncodedDescriptorDatabase3AddEPKvi
   fun:_ZN6google8protobuf14DescriptorPool24InternalAddGeneratedFileEPKvi
   fun:_ZN40protobuf_google_2fprotobuf_2fany_2eproto18AddDescriptorsImplEv
   fun:__pthread_once_slow
   obj:/usr/lib/x86_64-linux-gnu/libprotobuf.so.17.0.0
   fun:call_init
   fun:_dl_init
   obj:/lib/x86_64-linux-gnu/ld-2.27.so
}
{
   <insert_a_suppression_name_here>
   Memcheck:Leak
   match-leak-kinds: reachable
   fun:_Znwm
   fun:_ZN6google8protobuf18InsertIfNotPresentISt3mapINSt7__cxx1112basic_stringIcSt11char_traitsIcESaIcEEESt4pairIPKviESt4lessIS8_ESaIS9_IKS8_SC_EEEEEbPT_RKNSJ_10value_type10first_typeERKNSL_11second_typeE
   fun:_ZN6google8protobuf24SimpleDescriptorDatabase15DescriptorIndexISt4pairIPKviEE7AddFileERKNS0_19FileDescriptorProtoES6_
   fun:_ZN6google8protobuf25EncodedDescriptorDatabase3AddEPKvi
   fun:_ZN6google8protobuf14DescriptorPool24InternalAddGeneratedFileEPKvi
   fun:_ZN40protobuf_google_2fprotobuf_2fapi_2eproto18AddDescriptorsImplEv
   fun:__pthread_once_slow
   obj:/usr/lib/x86_64-linux-gnu/libprotobuf.so.17.0.0
   fun:call_init
   fun:_dl_init
   obj:/lib/x86_64-linux-gnu/ld-2.27.so
}
{
   <insert_a_suppression_name_here>
   Memcheck:Leak
   match-leak-kinds: reachable
   fun:_Znwm
   fun:_ZN6google8protobuf18InsertIfNotPresentISt3mapINSt7__cxx1112basic_stringIcSt11char_traitsIcESaIcEEESt4pairIPKviESt4lessIS8_ESaIS9_IKS8_SC_EEEEEbPT_RKNSJ_10value_type10first_typeERKNSL_11second_typeE
   fun:_ZN6google8protobuf24SimpleDescriptorDatabase15DescriptorIndexISt4pairIPKviEE7AddFileERKNS0_19FileDescriptorProtoES6_
   fun:_ZN6google8protobuf25EncodedDescriptorDatabase3AddEPKvi
   fun:_ZN6google8protobuf14DescriptorPool24InternalAddGeneratedFileEPKvi
   fun:_ZN53protobuf_google_2fprotobuf_2fsource_5fcontext_2eproto18AddDescriptorsImplEv
   fun:__pthread_once_slow
   obj:/usr/lib/x86_64-linux-gnu/libprotobuf.so.17.0.0
   fun:_ZN40protobuf_google_2fprotobuf_2fapi_2eproto18AddDescriptorsImplEv
   fun:__pthread_once_slow
   obj:/usr/lib/x86_64-linux-gnu/libprotobuf.so.17.0.0
   fun:call_init
   fun:_dl_init
}
{
   <insert_a_suppression_name_here>
   Memcheck:Leak
   match-leak-kinds: reachable
   fun:_Znwm
   obj:/usr/lib/x86_64-linux-gnu/libprotobuf.so.17.0.0
   fun:_ZN6google8protobuf24SimpleDescriptorDatabase15DescriptorIndexISt4pairIPKviEE9AddSymbolERKNSt7__cxx1112basic_stringIcSt11char_traitsIcESaIcEEES6_
   fun:_ZN6google8protobuf24SimpleDescriptorDatabase15DescriptorIndexISt4pairIPKviEE7AddFileERKNS0_19FileDescriptorProtoES6_
   fun:_ZN6google8protobuf25EncodedDescriptorDatabase3AddEPKvi
   fun:_ZN6google8protobuf14DescriptorPool24InternalAddGeneratedFileEPKvi
   fun:_ZN53protobuf_google_2fprotobuf_2fsource_5fcontext_2eproto18AddDescriptorsImplEv
   fun:__pthread_once_slow
   obj:/usr/lib/x86_64-linux-gnu/libprotobuf.so.17.0.0
   fun:_ZN40protobuf_google_2fprotobuf_2fapi_2eproto18AddDescriptorsImplEv
   fun:__pthread_once_slow
   obj:/usr/lib/x86_64-linux-gnu/libprotobuf.so.17.0.0
}
{
   <insert_a_suppression_name_here>
   Memcheck:Leak
   match-leak-kinds: reachable
   fun:_Znwm
   fun:_ZN6google8protobuf18InsertIfNotPresentISt3mapINSt7__cxx1112basic_stringIcSt11char_traitsIcESaIcEEESt4pairIPKviESt4lessIS8_ESaIS9_IKS8_SC_EEEEEbPT_RKNSJ_10value_type10first_typeERKNSL_11second_typeE
   fun:_ZN6google8protobuf24SimpleDescriptorDatabase15DescriptorIndexISt4pairIPKviEE7AddFileERKNS0_19FileDescriptorProtoES6_
   fun:_ZN6google8protobuf25EncodedDescriptorDatabase3AddEPKvi
   fun:_ZN6google8protobuf14DescriptorPool24InternalAddGeneratedFileEPKvi
   fun:_ZN41protobuf_google_2fprotobuf_2ftype_2eproto18AddDescriptorsImplEv
   fun:__pthread_once_slow
   obj:/usr/lib/x86_64-linux-gnu/libprotobuf.so.17.0.0
   fun:__pthread_once_slow
   obj:/usr/lib/x86_64-linux-gnu/libprotobuf.so.17.0.0
   fun:call_init
   fun:_dl_init
   obj:/lib/x86_64-linux-gnu/ld-2.27.so
}
{
   <insert_a_suppression_name_here>
   Memcheck:Leak
   match-leak-kinds: reachable
   fun:_Znwm
   obj:/usr/lib/x86_64-linux-gnu/libprotobuf.so.17.0.0
   fun:_ZN6google8protobuf24SimpleDescriptorDatabase15DescriptorIndexISt4pairIPKviEE9AddSymbolERKNSt7__cxx1112basic_stringIcSt11char_traitsIcESaIcEEES6_
   fun:_ZN6google8protobuf24SimpleDescriptorDatabase15DescriptorIndexISt4pairIPKviEE7AddFileERKNS0_19FileDescriptorProtoES6_
   fun:_ZN6google8protobuf25EncodedDescriptorDatabase3AddEPKvi
   fun:_ZN6google8protobuf14DescriptorPool24InternalAddGeneratedFileEPKvi
   fun:_ZN41protobuf_google_2fprotobuf_2ftype_2eproto18AddDescriptorsImplEv
   fun:__pthread_once_slow
   obj:/usr/lib/x86_64-linux-gnu/libprotobuf.so.17.0.0
   fun:__pthread_once_slow
   obj:/usr/lib/x86_64-linux-gnu/libprotobuf.so.17.0.0
   fun:call_init
   fun:_dl_init
}
{
   <insert_a_suppression_name_here>
   Memcheck:Leak
   match-leak-kinds: reachable
   fun:_Znwm
   fun:_ZN6google8protobuf18InsertIfNotPresentISt3mapINSt7__cxx1112basic_stringIcSt11char_traitsIcESaIcEEESt4pairIPKviESt4lessIS8_ESaIS9_IKS8_SC_EEEEEbPT_RKNSJ_10value_type10first_typeERKNSL_11second_typeE
   fun:_ZN6google8protobuf24SimpleDescriptorDatabase15DescriptorIndexISt4pairIPKviEE7AddFileERKNS0_19FileDescriptorProtoES6_
   fun:_ZN6google8protobuf25EncodedDescriptorDatabase3AddEPKvi
   fun:_ZN6google8protobuf14DescriptorPool24InternalAddGeneratedFileEPKvi
   fun:_ZN47protobuf_google_2fprotobuf_2fdescriptor_2eproto18AddDescriptorsImplEv
   fun:__pthread_once_slow
   obj:/usr/lib/x86_64-linux-gnu/libprotobuf.so.17.0.0
   fun:call_init
   fun:_dl_init
   obj:/lib/x86_64-linux-gnu/ld-2.27.so
}
{
   <insert_a_suppression_name_here>
   Memcheck:Leak
   match-leak-kinds: reachable
   fun:_Znwm
   fun:_ZN6google8protobuf18InsertIfNotPresentISt3mapINSt7__cxx1112basic_stringIcSt11char_traitsIcESaIcEEESt4pairIPKviESt4lessIS8_ESaIS9_IKS8_SC_EEEEEbPT_RKNSJ_10value_type10first_typeERKNSL_11second_typeE
   fun:_ZN6google8protobuf24SimpleDescriptorDatabase15DescriptorIndexISt4pairIPKviEE7AddFileERKNS0_19FileDescriptorProtoES6_
   fun:_ZN6google8protobuf25EncodedDescriptorDatabase3AddEPKvi
   fun:_ZN6google8protobuf14DescriptorPool24InternalAddGeneratedFileEPKvi
   fun:_ZN45protobuf_google_2fprotobuf_2fduration_2eproto18AddDescriptorsImplEv
   fun:__pthread_once_slow
   obj:/usr/lib/x86_64-linux-gnu/libprotobuf.so.17.0.0
   fun:call_init
   fun:_dl_init
   obj:/lib/x86_64-linux-gnu/ld-2.27.so
}
{
   <insert_a_suppression_name_here>
   Memcheck:Leak
   match-leak-kinds: reachable
   fun:_Znwm
   obj:/usr/lib/x86_64-linux-gnu/libprotobuf.so.17.0.0
   fun:_ZN6google8protobuf24SimpleDescriptorDatabase15DescriptorIndexISt4pairIPKviEE9AddSymbolERKNSt7__cxx1112basic_stringIcSt11char_traitsIcESaIcEEES6_
   fun:_ZN6google8protobuf24SimpleDescriptorDatabase15DescriptorIndexISt4pairIPKviEE7AddFileERKNS0_19FileDescriptorProtoES6_
   fun:_ZN6google8protobuf25EncodedDescriptorDatabase3AddEPKvi
   fun:_ZN6google8protobuf14DescriptorPool24InternalAddGeneratedFileEPKvi
   fun:_ZN45protobuf_google_2fprotobuf_2fduration_2eproto18AddDescriptorsImplEv
   fun:__pthread_once_slow
   obj:/usr/lib/x86_64-linux-gnu/libprotobuf.so.17.0.0
   fun:call_init
   fun:_dl_init
   obj:/lib/x86_64-linux-gnu/ld-2.27.so
}
{
   <insert_a_suppression_name_here>
   Memcheck:Leak
   match-leak-kinds: reachable
   fun:_Znwm
   fun:_ZN6google8protobuf18InsertIfNotPresentISt3mapINSt7__cxx1112basic_stringIcSt11char_traitsIcESaIcEEESt4pairIPKviESt4lessIS8_ESaIS9_IKS8_SC_EEEEEbPT_RKNSJ_10value_type10first_typeERKNSL_11second_typeE
   fun:_ZN6google8protobuf24SimpleDescriptorDatabase15DescriptorIndexISt4pairIPKviEE7AddFileERKNS0_19FileDescriptorProtoES6_
   fun:_ZN6google8protobuf25EncodedDescriptorDatabase3AddEPKvi
   fun:_ZN6google8protobuf14DescriptorPool24InternalAddGeneratedFileEPKvi
   fun:_ZN42protobuf_google_2fprotobuf_2fempty_2eproto18AddDescriptorsImplEv
   fun:__pthread_once_slow
   obj:/usr/lib/x86_64-linux-gnu/libprotobuf.so.17.0.0
   fun:call_init
   fun:_dl_init
   obj:/lib/x86_64-linux-gnu/ld-2.27.so
}
{
   <insert_a_suppression_name_here>
   Memcheck:Leak
   match-leak-kinds: reachable
   fun:_Znwm
   obj:/usr/lib/x86_64-linux-gnu/libprotobuf.so.17.0.0
   fun:_ZN6google8protobuf24SimpleDescriptorDatabase15DescriptorIndexISt4pairIPKviEE9AddSymbolERKNSt7__cxx1112basic_stringIcSt11char_traitsIcESaIcEEES6_
   fun:_ZN6google8protobuf24SimpleDescriptorDatabase15DescriptorIndexISt4pairIPKviEE7AddFileERKNS0_19FileDescriptorProtoES6_
   fun:_ZN6google8protobuf25EncodedDescriptorDatabase3AddEPKvi
   fun:_ZN6google8protobuf14DescriptorPool24InternalAddGeneratedFileEPKvi
   fun:_ZN42protobuf_google_2fprotobuf_2fempty_2eproto18AddDescriptorsImplEv
   fun:__pthread_once_slow
   obj:/usr/lib/x86_64-linux-gnu/libprotobuf.so.17.0.0
   fun:call_init
   fun:_dl_init
   obj:/lib/x86_64-linux-gnu/ld-2.27.so
}
{
   <insert_a_suppression_name_here>
   Memcheck:Leak
   match-leak-kinds: reachable
   fun:_Znwm
   fun:_ZN6google8protobuf18InsertIfNotPresentISt3mapINSt7__cxx1112basic_stringIcSt11char_traitsIcESaIcEEESt4pairIPKviESt4lessIS8_ESaIS9_IKS8_SC_EEEEEbPT_RKNSJ_10value_type10first_typeERKNSL_11second_typeE
   fun:_ZN6google8protobuf24SimpleDescriptorDatabase15DescriptorIndexISt4pairIPKviEE7AddFileERKNS0_19FileDescriptorProtoES6_
   fun:_ZN6google8protobuf25EncodedDescriptorDatabase3AddEPKvi
   fun:_ZN6google8protobuf14DescriptorPool24InternalAddGeneratedFileEPKvi
   fun:_ZN49protobuf_google_2fprotobuf_2ffield_5fmask_2eproto18AddDescriptorsImplEv
   fun:__pthread_once_slow
   obj:/usr/lib/x86_64-linux-gnu/libprotobuf.so.17.0.0
   fun:call_init
   fun:_dl_init
   obj:/lib/x86_64-linux-gnu/ld-2.27.so
}
{
   <insert_a_suppression_name_here>
   Memcheck:Leak
   match-leak-kinds: reachable
   fun:_Znwm
   obj:/usr/lib/x86_64-linux-gnu/libprotobuf.so.17.0.0
   fun:_ZN6google8protobuf24SimpleDescriptorDatabase15DescriptorIndexISt4pairIPKviEE9AddSymbolERKNSt7__cxx1112basic_stringIcSt11char_traitsIcESaIcEEES6_
   fun:_ZN6google8protobuf24SimpleDescriptorDatabase15DescriptorIndexISt4pairIPKviEE7AddFileERKNS0_19FileDescriptorProtoES6_
   fun:_ZN6google8protobuf25EncodedDescriptorDatabase3AddEPKvi
   fun:_ZN6google8protobuf14DescriptorPool24InternalAddGeneratedFileEPKvi
   fun:_ZN49protobuf_google_2fprotobuf_2ffield_5fmask_2eproto18AddDescriptorsImplEv
   fun:__pthread_once_slow
   obj:/usr/lib/x86_64-linux-gnu/libprotobuf.so.17.0.0
   fun:call_init
   fun:_dl_init
   obj:/lib/x86_64-linux-gnu/ld-2.27.so
}
{
   <insert_a_suppression_name_here>
   Memcheck:Leak
   match-leak-kinds: reachable
   fun:_Znwm
   fun:_ZN6google8protobuf18InsertIfNotPresentISt3mapINSt7__cxx1112basic_stringIcSt11char_traitsIcESaIcEEESt4pairIPKviESt4lessIS8_ESaIS9_IKS8_SC_EEEEEbPT_RKNSJ_10value_type10first_typeERKNSL_11second_typeE
   fun:_ZN6google8protobuf24SimpleDescriptorDatabase15DescriptorIndexISt4pairIPKviEE7AddFileERKNS0_19FileDescriptorProtoES6_
   fun:_ZN6google8protobuf25EncodedDescriptorDatabase3AddEPKvi
   fun:_ZN6google8protobuf14DescriptorPool24InternalAddGeneratedFileEPKvi
   fun:_ZN43protobuf_google_2fprotobuf_2fstruct_2eproto18AddDescriptorsImplEv
   fun:__pthread_once_slow
   obj:/usr/lib/x86_64-linux-gnu/libprotobuf.so.17.0.0
   fun:call_init
   fun:_dl_init
   obj:/lib/x86_64-linux-gnu/ld-2.27.so
}
{
   <insert_a_suppression_name_here>
   Memcheck:Leak
   match-leak-kinds: reachable
   fun:_Znwm
   obj:/usr/lib/x86_64-linux-gnu/libprotobuf.so.17.0.0
   fun:_ZN6google8protobuf24SimpleDescriptorDatabase15DescriptorIndexISt4pairIPKviEE9AddSymbolERKNSt7__cxx1112basic_stringIcSt11char_traitsIcESaIcEEES6_
   fun:_ZN6google8protobuf24SimpleDescriptorDatabase15DescriptorIndexISt4pairIPKviEE7AddFileERKNS0_19FileDescriptorProtoES6_
   fun:_ZN6google8protobuf25EncodedDescriptorDatabase3AddEPKvi
   fun:_ZN6google8protobuf14DescriptorPool24InternalAddGeneratedFileEPKvi
   fun:_ZN43protobuf_google_2fprotobuf_2fstruct_2eproto18AddDescriptorsImplEv
   fun:__pthread_once_slow
   obj:/usr/lib/x86_64-linux-gnu/libprotobuf.so.17.0.0
   fun:call_init
   fun:_dl_init
   obj:/lib/x86_64-linux-gnu/ld-2.27.so
}
{
   <insert_a_suppression_name_here>
   Memcheck:Leak
   match-leak-kinds: reachable
   fun:_Znwm
   fun:_ZN6google8protobuf18InsertIfNotPresentISt3mapINSt7__cxx1112basic_stringIcSt11char_traitsIcESaIcEEESt4pairIPKviESt4lessIS8_ESaIS9_IKS8_SC_EEEEEbPT_RKNSJ_10value_type10first_typeERKNSL_11second_typeE
   fun:_ZN6google8protobuf24SimpleDescriptorDatabase15DescriptorIndexISt4pairIPKviEE7AddFileERKNS0_19FileDescriptorProtoES6_
   fun:_ZN6google8protobuf25EncodedDescriptorDatabase3AddEPKvi
   fun:_ZN6google8protobuf14DescriptorPool24InternalAddGeneratedFileEPKvi
   fun:_ZN46protobuf_google_2fprotobuf_2ftimestamp_2eproto18AddDescriptorsImplEv
   fun:__pthread_once_slow
   obj:/usr/lib/x86_64-linux-gnu/libprotobuf.so.17.0.0
   fun:call_init
   fun:_dl_init
   obj:/lib/x86_64-linux-gnu/ld-2.27.so
}
{
   <insert_a_suppression_name_here>
   Memcheck:Leak
   match-leak-kinds: reachable
   fun:_Znwm
   obj:/usr/lib/x86_64-linux-gnu/libprotobuf.so.17.0.0
   fun:_ZN6google8protobuf24SimpleDescriptorDatabase15DescriptorIndexISt4pairIPKviEE9AddSymbolERKNSt7__cxx1112basic_stringIcSt11char_traitsIcESaIcEEES6_
   fun:_ZN6google8protobuf24SimpleDescriptorDatabase15DescriptorIndexISt4pairIPKviEE7AddFileERKNS0_19FileDescriptorProtoES6_
   fun:_ZN6google8protobuf25EncodedDescriptorDatabase3AddEPKvi
   fun:_ZN6google8protobuf14DescriptorPool24InternalAddGeneratedFileEPKvi
   fun:_ZN46protobuf_google_2fprotobuf_2ftimestamp_2eproto18AddDescriptorsImplEv
   fun:__pthread_once_slow
   obj:/usr/lib/x86_64-linux-gnu/libprotobuf.so.17.0.0
   fun:call_init
   fun:_dl_init
   obj:/lib/x86_64-linux-gnu/ld-2.27.so
}
{
   <insert_a_suppression_name_here>
   Memcheck:Leak
   match-leak-kinds: reachable
   fun:_Znwm
   fun:_ZN6google8protobuf18InsertIfNotPresentISt3mapINSt7__cxx1112basic_stringIcSt11char_traitsIcESaIcEEESt4pairIPKviESt4lessIS8_ESaIS9_IKS8_SC_EEEEEbPT_RKNSJ_10value_type10first_typeERKNSL_11second_typeE
   fun:_ZN6google8protobuf24SimpleDescriptorDatabase15DescriptorIndexISt4pairIPKviEE7AddFileERKNS0_19FileDescriptorProtoES6_
   fun:_ZN6google8protobuf25EncodedDescriptorDatabase3AddEPKvi
   fun:_ZN6google8protobuf14DescriptorPool24InternalAddGeneratedFileEPKvi
   fun:_ZN45protobuf_google_2fprotobuf_2fwrappers_2eproto18AddDescriptorsImplEv
   fun:__pthread_once_slow
   obj:/usr/lib/x86_64-linux-gnu/libprotobuf.so.17.0.0
   fun:call_init
   fun:_dl_init
   obj:/lib/x86_64-linux-gnu/ld-2.27.so
}
{
   <insert_a_suppression_name_here>
   Memcheck:Leak
   match-leak-kinds: reachable
   fun:_Znwm
   fun:_ZN6google8protobuf18InsertIfNotPresentISt3mapINSt7__cxx1112basic_stringIcSt11char_traitsIcESaIcEEESt4pairIPKviESt4lessIS8_ESaIS9_IKS8_SC_EEEEEbPT_RKNSJ_10value_type10first_typeERKNSL_11second_typeE
   fun:_ZN6google8protobuf24SimpleDescriptorDatabase15DescriptorIndexISt4pairIPKviEE7AddFileERKNS0_19FileDescriptorProtoES6_
   fun:_ZN6google8protobuf25EncodedDescriptorDatabase3AddEPKvi
   fun:_ZN6google8protobuf14DescriptorPool24InternalAddGeneratedFileEPKvi
   fun:_ZN22protobuf_audit_2eproto18AddDescriptorsImplEv
   fun:_ZSt13__invoke_implIvRFvvEJEET_St14__invoke_otherOT0_DpOT1_
   fun:_ZSt8__invokeIRFvvEJEENSt15__invoke_resultIT_JDpT0_EE4typeEOS3_DpOS4_
   fun:_ZZSt9call_onceIRFvvEJEEvRSt9once_flagOT_DpOT0_ENKUlvE_clEv
   fun:_ZZSt9call_onceIRFvvEJEEvRSt9once_flagOT_DpOT0_ENKUlvE0_clEv
   fun:_ZZSt9call_onceIRFvvEJEEvRSt9once_flagOT_DpOT0_ENUlvE0_4_FUNEv
   fun:__pthread_once_slow
}
{
   <insert_a_suppression_name_here>
   Memcheck:Leak
   match-leak-kinds: reachable
   fun:_Znwm
   obj:/usr/lib/x86_64-linux-gnu/libprotobuf.so.17.0.0
   fun:_ZN6google8protobuf14MessageFactory29InternalRegisterGeneratedFileEPKcPFvRKNSt7__cxx1112basic_stringIcSt11char_traitsIcESaIcEEEE
   fun:__pthread_once_slow
   obj:/usr/lib/x86_64-linux-gnu/libprotobuf.so.17.0.0
   fun:call_init
   fun:_dl_init
   obj:/lib/x86_64-linux-gnu/ld-2.27.so
}
{
   <insert_a_suppression_name_here>
   Memcheck:Leak
   match-leak-kinds: reachable
   fun:_Znwm
   obj:/usr/lib/x86_64-linux-gnu/libprotobuf.so.17.0.0
   fun:_ZN6google8protobuf14DescriptorPool24InternalAddGeneratedFileEPKvi
   fun:_ZN40protobuf_google_2fprotobuf_2fany_2eproto18AddDescriptorsImplEv
   fun:__pthread_once_slow
   obj:/usr/lib/x86_64-linux-gnu/libprotobuf.so.17.0.0
   fun:call_init
   fun:_dl_init
   obj:/lib/x86_64-linux-gnu/ld-2.27.so
}
{
   <insert_a_suppression_name_here>
   Memcheck:Leak
   match-leak-kinds: reachable
   fun:_Znwm
   obj:/usr/lib/x86_64-linux-gnu/libprotobuf.so.17.0.0
   fun:_ZNSt10_HashtableIPKcSt4pairIKS1_PFvRKNSt7__cxx1112basic_stringIcSt11char_traitsIcESaIcEEEEESaISE_ENSt8__detail10_Select1stEN6google8protobuf5streqENSJ_4hashIS1_EENSG_18_Mod_range_hashingENSG_20_Default_ranged_hashENSG_20_Prime_rehash_policyENSG_17_Hashtable_traitsILb1ELb0ELb1EEEE9_M_rehashEmRKm
   fun:_ZN6google8protobuf14MessageFactory29InternalRegisterGeneratedFileEPKcPFvRKNSt7__cxx1112basic_stringIcSt11char_traitsIcESaIcEEEE
   fun:__pthread_once_slow
   obj:/usr/lib/x86_64-linux-gnu/libprotobuf.so.17.0.0
   fun:call_init
   fun:_dl_init
   obj:/lib/x86_64-linux-gnu/ld-2.27.so
}
{
   <insert_a_suppression_name_here>
   Memcheck:Leak
   match-leak-kinds: reachable
   fun:_Znwm
   obj:/usr/lib/x86_64-linux-gnu/libprotobuf.so.17.0.0
   fun:_ZN6google8protobuf24SimpleDescriptorDatabase15DescriptorIndexISt4pairIPKviEE9AddSymbolERKNSt7__cxx1112basic_stringIcSt11char_traitsIcESaIcEEES6_
   fun:_ZN6google8protobuf24SimpleDescriptorDatabase15DescriptorIndexISt4pairIPKviEE7AddFileERKNS0_19FileDescriptorProtoES6_
   fun:_ZN6google8protobuf25EncodedDescriptorDatabase3AddEPKvi
   fun:_ZN6google8protobuf14DescriptorPool24InternalAddGeneratedFileEPKvi
   fun:_ZN40protobuf_google_2fprotobuf_2fapi_2eproto18AddDescriptorsImplEv
   fun:__pthread_once_slow
   obj:/usr/lib/x86_64-linux-gnu/libprotobuf.so.17.0.0
   fun:call_init
   fun:_dl_init
   obj:/lib/x86_64-linux-gnu/ld-2.27.so
}
{
   <insert_a_suppression_name_here>
   Memcheck:Leak
   match-leak-kinds: reachable
   fun:_Znwm
   fun:_ZN9__gnu_cxx13new_allocatorIcE8allocateEmPKv
   fun:_ZNSt16allocator_traitsISaIcEE8allocateERS0_m
   fun:_ZNSt7__cxx1112basic_stringIcSt11char_traitsIcESaIcEE9_M_createERmm
   obj:/usr/lib/x86_64-linux-gnu/libprotobuf.so.17.0.0
   obj:/usr/lib/x86_64-linux-gnu/libprotobuf.so.17.0.0
   fun:_ZN6google8protobuf24SimpleDescriptorDatabase15DescriptorIndexISt4pairIPKviEE9AddSymbolERKNSt7__cxx1112basic_stringIcSt11char_traitsIcESaIcEEES6_
   fun:_ZN6google8protobuf24SimpleDescriptorDatabase15DescriptorIndexISt4pairIPKviEE7AddFileERKNS0_19FileDescriptorProtoES6_
   fun:_ZN6google8protobuf25EncodedDescriptorDatabase3AddEPKvi
   fun:_ZN6google8protobuf14DescriptorPool24InternalAddGeneratedFileEPKvi
   fun:_ZN45protobuf_google_2fprotobuf_2fwrappers_2eproto18AddDescriptorsImplEv
   fun:__pthread_once_slow
}
{
   <insert_a_suppression_name_here>
   Memcheck:Leak
   match-leak-kinds: reachable
   fun:_Znwm
   fun:_ZN6google8protobuf14MessageFactory29InternalRegisterGeneratedFileEPKcPFvRKNSt7__cxx1112basic_stringIcSt11char_traitsIcESaIcEEEE
   fun:__pthread_once_slow
   obj:/usr/lib/x86_64-linux-gnu/libprotobuf.so.17.0.0
   fun:call_init
   fun:_dl_init
   obj:/lib/x86_64-linux-gnu/ld-2.27.so
}
{
   <insert_a_suppression_name_here>
   Memcheck:Leak
   match-leak-kinds: reachable
   fun:_Znwm
   fun:_ZN5boost6detail8heap_newINS0_26externally_launched_threadEEEPT_v
   fun:_ZN5boost6detail25make_external_thread_dataEv
   fun:_ZN5boost6detail31get_or_make_current_thread_dataEv
   fun:_ZN5boost6detail24add_thread_exit_functionEPNS0_25thread_exit_function_baseE
   fun:_ZN5boost11this_thread14at_thread_exitINS_3_bi6bind_tINS2_11unspecifiedENS_15checked_deleterImEENS2_5list1INS2_5valueIPmEEEEEEEEvT_
   fun:_ZN5boost3log12v2s_mt_posix7sources3aux18get_severity_levelEv
   fun:_ZN5boost3log12v2s_mt_posix7sources3aux14severity_levelINS1_7trivial14severity_levelEE9set_valueES6_
   fun:_ZN5boost3log12v2s_mt_posix7sources21basic_severity_loggerINS2_12basic_loggerIcNS2_18severity_logger_mtINS1_7trivial14severity_levelEEENS2_18multi_thread_modelINS1_3aux14light_rw_mutexEEEEES7_E20open_record_unlockedINS_9parameter3aux15tagged_argumentINS1_8keywords3tag8severityEKS7_EEEENS1_6recordERKT_
   fun:_ZN5boost3log12v2s_mt_posix7sources22basic_composite_loggerIcNS2_18severity_logger_mtINS1_7trivial14severity_levelEEENS2_18multi_thread_modelINS1_3aux14light_rw_mutexEEENS2_8featuresIJNS2_8severityIS6_EEEEEE11open_recordINS_9parameter3aux15tagged_argumentINS1_8keywords3tag8severityEKS6_EEEENS1_6recordERKT_
   fun:_ZZN3bzn5audit5startEvENKUlvE_clEv
   fun:_ZSt13__invoke_implIvZN3bzn5audit5startEvEUlvE_JEET_St14__invoke_otherOT0_DpOT1_
}
{
   <insert_a_suppression_name_here>
   Memcheck:Leak
   match-leak-kinds: reachable
   fun:_Znwm
   obj:/usr/lib/x86_64-linux-gnu/libprotobuf.so.17.0.0
   fun:_ZN6google8protobuf24SimpleDescriptorDatabase15DescriptorIndexISt4pairIPKviEE9AddSymbolERKNSt7__cxx1112basic_stringIcSt11char_traitsIcESaIcEEES6_
   fun:_ZN6google8protobuf24SimpleDescriptorDatabase15DescriptorIndexISt4pairIPKviEE7AddFileERKNS0_19FileDescriptorProtoES6_
   fun:_ZN6google8protobuf25EncodedDescriptorDatabase3AddEPKvi
   fun:_ZN6google8protobuf14DescriptorPool24InternalAddGeneratedFileEPKvi
   fun:_ZN22protobuf_audit_2eproto18AddDescriptorsImplEv
   fun:_ZSt13__invoke_implIvRFvvEJEET_St14__invoke_otherOT0_DpOT1_
   fun:_ZSt8__invokeIRFvvEJEENSt15__invoke_resultIT_JDpT0_EE4typeEOS3_DpOS4_
   fun:_ZZSt9call_onceIRFvvEJEEvRSt9once_flagOT_DpOT0_ENKUlvE_clEv
   fun:_ZZSt9call_onceIRFvvEJEEvRSt9once_flagOT_DpOT0_ENKUlvE0_clEv
   fun:_ZZSt9call_onceIRFvvEJEEvRSt9once_flagOT_DpOT0_ENUlvE0_4_FUNEv
}
{
   <insert_a_suppression_name_here>
   Memcheck:Leak
   match-leak-kinds: reachable
   fun:_Znwm
   fun:_ZN9__gnu_cxx13new_allocatorIcE8allocateEmPKv
   fun:_ZNSt16allocator_traitsISaIcEE8allocateERS0_m
   fun:_ZNSt7__cxx1112basic_stringIcSt11char_traitsIcESaIcEE9_M_createERmm
   obj:/usr/lib/x86_64-linux-gnu/libprotobuf.so.17.0.0
   obj:/usr/lib/x86_64-linux-gnu/libprotobuf.so.17.0.0
   fun:_ZN6google8protobuf24SimpleDescriptorDatabase15DescriptorIndexISt4pairIPKviEE9AddSymbolERKNSt7__cxx1112basic_stringIcSt11char_traitsIcESaIcEEES6_
   fun:_ZN6google8protobuf24SimpleDescriptorDatabase15DescriptorIndexISt4pairIPKviEE7AddFileERKNS0_19FileDescriptorProtoES6_
   fun:_ZN6google8protobuf25EncodedDescriptorDatabase3AddEPKvi
   fun:_ZN6google8protobuf14DescriptorPool24InternalAddGeneratedFileEPKvi
   fun:_ZN47protobuf_google_2fprotobuf_2fdescriptor_2eproto18AddDescriptorsImplEv
   fun:__pthread_once_slow
}
{
   <insert_a_suppression_name_here>
   Memcheck:Leak
   match-leak-kinds: reachable
   fun:_Znwm
   obj:/usr/lib/x86_64-linux-gnu/libprotobuf.so.17.0.0
   fun:_ZN6google8protobuf24SimpleDescriptorDatabase15DescriptorIndexISt4pairIPKviEE9AddSymbolERKNSt7__cxx1112basic_stringIcSt11char_traitsIcESaIcEEES6_
   fun:_ZN6google8protobuf24SimpleDescriptorDatabase15DescriptorIndexISt4pairIPKviEE7AddFileERKNS0_19FileDescriptorProtoES6_
   fun:_ZN6google8protobuf25EncodedDescriptorDatabase3AddEPKvi
   fun:_ZN6google8protobuf14DescriptorPool24InternalAddGeneratedFileEPKvi
   fun:_ZN45protobuf_google_2fprotobuf_2fwrappers_2eproto18AddDescriptorsImplEv
   fun:__pthread_once_slow
   obj:/usr/lib/x86_64-linux-gnu/libprotobuf.so.17.0.0
   fun:call_init
   fun:_dl_init
   obj:/lib/x86_64-linux-gnu/ld-2.27.so
}
{
   <insert_a_suppression_name_here>
   Memcheck:Leak
   match-leak-kinds: reachable
   fun:_Znwm
   obj:/usr/lib/x86_64-linux-gnu/libprotobuf.so.17.0.0
   fun:_ZN6google8protobuf8internal13OnShutdownRunEPFvPKvES3_
   obj:/usr/lib/x86_64-linux-gnu/libprotobuf.so.17.0.0
   obj:/usr/lib/x86_64-linux-gnu/libprotobuf.so.17.0.0
   fun:_ZN6google8protobuf8internal11InitSCCImplEPNS1_11SCCInfoBaseE
   fun:_ZN40protobuf_google_2fprotobuf_2fapi_2eproto12InitDefaultsEv
   fun:_ZN40protobuf_google_2fprotobuf_2fapi_2eproto18AddDescriptorsImplEv
   fun:__pthread_once_slow
   obj:/usr/lib/x86_64-linux-gnu/libprotobuf.so.17.0.0
   fun:call_init
   fun:_dl_init
   obj:/lib/x86_64-linux-gnu/ld-2.27.so
}
{
   <insert_a_suppression_name_here>
   Memcheck:Leak
   match-leak-kinds: reachable
   fun:_Znwm
   obj:/usr/lib/x86_64-linux-gnu/libprotobuf.so.17.0.0
   fun:_ZN6google8protobuf24SimpleDescriptorDatabase15DescriptorIndexISt4pairIPKviEE9AddSymbolERKNSt7__cxx1112basic_stringIcSt11char_traitsIcESaIcEEES6_
   fun:_ZN6google8protobuf24SimpleDescriptorDatabase15DescriptorIndexISt4pairIPKviEE7AddFileERKNS0_19FileDescriptorProtoES6_
   fun:_ZN6google8protobuf25EncodedDescriptorDatabase3AddEPKvi
   fun:_ZN6google8protobuf14DescriptorPool24InternalAddGeneratedFileEPKvi
   fun:_ZN47protobuf_google_2fprotobuf_2fdescriptor_2eproto18AddDescriptorsImplEv
   fun:__pthread_once_slow
   obj:/usr/lib/x86_64-linux-gnu/libprotobuf.so.17.0.0
   fun:call_init
   fun:_dl_init
   obj:/lib/x86_64-linux-gnu/ld-2.27.so
}
{
   <insert_a_suppression_name_here>
   Memcheck:Leak
   match-leak-kinds: reachable
   fun:_Znwm
   fun:_ZN5boost3log12v2s_mt_posix7sources3aux18get_severity_levelEv
   fun:_ZN5boost3log12v2s_mt_posix7sources3aux14severity_levelINS1_7trivial14severity_levelEE9set_valueES6_
   fun:_ZN5boost3log12v2s_mt_posix7sources21basic_severity_loggerINS2_12basic_loggerIcNS2_18severity_logger_mtINS1_7trivial14severity_levelEEENS2_18multi_thread_modelINS1_3aux14light_rw_mutexEEEEES7_E20open_record_unlockedINS_9parameter3aux15tagged_argumentINS1_8keywords3tag8severityEKS7_EEEENS1_6recordERKT_
   fun:_ZN5boost3log12v2s_mt_posix7sources22basic_composite_loggerIcNS2_18severity_logger_mtINS1_7trivial14severity_levelEEENS2_18multi_thread_modelINS1_3aux14light_rw_mutexEEENS2_8featuresIJNS2_8severityIS6_EEEEEE11open_recordINS_9parameter3aux15tagged_argumentINS1_8keywords3tag8severityEKS6_EEEENS1_6recordERKT_
   fun:_ZN3bzn15bootstrap_peers21fetch_peers_from_fileERKNSt7__cxx1112basic_stringIcSt11char_traitsIcESaIcEEE
   fun:_ZN42bootstrap_file_test_test_invalid_json_Test8TestBodyEv
   fun:_ZN7testing8internal38HandleSehExceptionsInMethodIfSupportedINS_4TestEvEET0_PT_MS4_FS3_vEPKc
   fun:_ZN7testing8internal35HandleExceptionsInMethodIfSupportedINS_4TestEvEET0_PT_MS4_FS3_vEPKc
   fun:_ZN7testing4Test3RunEv
   fun:_ZN7testing8TestInfo3RunEv
   fun:_ZN7testing8TestCase3RunEv
}
{
   <insert_a_suppression_name_here>
   Memcheck:Leak
   match-leak-kinds: reachable
   fun:_Znwm
   fun:_ZN5boost3log12v2s_mt_posix3aux11this_thread6get_idEv
   fun:_ZN5boost3log12v2s_mt_posix4core14implementation11thread_data15get_random_seedEv
   fun:_ZN5boost3log12v2s_mt_posix4core14implementation11thread_dataC1Ev
   fun:_ZN5boost3log12v2s_mt_posix4core14implementation16init_thread_dataEv
   fun:_ZN5boost3log12v2s_mt_posix4core14implementation15get_thread_dataEv
   fun:open_record<const boost::log::v2s_mt_posix::attribute_set&>
   fun:_ZN5boost3log12v2s_mt_posix4core11open_recordERKNS1_13attribute_setE
   fun:_ZN5boost3log12v2s_mt_posix7sources12basic_loggerIcNS2_18severity_logger_mtINS1_7trivial14severity_levelEEENS2_18multi_thread_modelINS1_3aux14light_rw_mutexEEEE20open_record_unlockedINS_9parameter3aux15tagged_argumentINS1_8keywords3tag8severityEKS6_EEEENS1_6recordERKT_
   fun:_ZN5boost3log12v2s_mt_posix7sources21basic_severity_loggerINS2_12basic_loggerIcNS2_18severity_logger_mtINS1_7trivial14severity_levelEEENS2_18multi_thread_modelINS1_3aux14light_rw_mutexEEEEES7_E20open_record_unlockedINS_9parameter3aux15tagged_argumentINS1_8keywords3tag8severityEKS7_EEEENS1_6recordERKT_
   fun:_ZN5boost3log12v2s_mt_posix7sources22basic_composite_loggerIcNS2_18severity_logger_mtINS1_7trivial14severity_levelEEENS2_18multi_thread_modelINS1_3aux14light_rw_mutexEEENS2_8featuresIJNS2_8severityIS6_EEEEEE11open_recordINS_9parameter3aux15tagged_argumentINS1_8keywords3tag8severityEKS6_EEEENS1_6recordERKT_
   fun:_ZN3bzn15bootstrap_peers21fetch_peers_from_fileERKNSt7__cxx1112basic_stringIcSt11char_traitsIcESaIcEEE
   fun:_ZN42bootstrap_file_test_test_invalid_json_Test8TestBodyEv
}
{
   <insert_a_suppression_name_here>
   Memcheck:Leak
   match-leak-kinds: reachable
   fun:_Znwm
   fun:_ZN5boost6detail8heap_newINS0_25thread_exit_callback_nodeERPNS0_25thread_exit_function_baseERPS2_EEPT_OT0_OT1_
   fun:_ZN5boost6detail24add_thread_exit_functionEPNS0_25thread_exit_function_baseE
   fun:_ZN5boost11this_thread14at_thread_exitINS_3_bi6bind_tINS2_11unspecifiedENS_15checked_deleterImEENS2_5list1INS2_5valueIPmEEEEEEEEvT_
   fun:_ZN5boost3log12v2s_mt_posix7sources3aux18get_severity_levelEv
   fun:_ZN5boost3log12v2s_mt_posix7sources3aux14severity_levelINS1_7trivial14severity_levelEE9set_valueES6_
   fun:_ZN5boost3log12v2s_mt_posix7sources21basic_severity_loggerINS2_12basic_loggerIcNS2_18severity_logger_mtINS1_7trivial14severity_levelEEENS2_18multi_thread_modelINS1_3aux14light_rw_mutexEEEEES7_E20open_record_unlockedINS_9parameter3aux15tagged_argumentINS1_8keywords3tag8severityEKS7_EEEENS1_6recordERKT_
   fun:_ZN5boost3log12v2s_mt_posix7sources22basic_composite_loggerIcNS2_18severity_logger_mtINS1_7trivial14severity_levelEEENS2_18multi_thread_modelINS1_3aux14light_rw_mutexEEENS2_8featuresIJNS2_8severityIS6_EEEEEE11open_recordINS_9parameter3aux15tagged_argumentINS1_8keywords3tag8severityEKS6_EEEENS1_6recordERKT_
   fun:_ZN3bzn15bootstrap_peers21fetch_peers_from_fileERKNSt7__cxx1112basic_stringIcSt11char_traitsIcESaIcEEE
   fun:_ZN42bootstrap_file_test_test_invalid_json_Test8TestBodyEv
   fun:_ZN7testing8internal38HandleSehExceptionsInMethodIfSupportedINS_4TestEvEET0_PT_MS4_FS3_vEPKc
   fun:_ZN7testing8internal35HandleExceptionsInMethodIfSupportedINS_4TestEvEET0_PT_MS4_FS3_vEPKc
}
{
   <insert_a_suppression_name_here>
   Memcheck:Leak
   match-leak-kinds: reachable
   fun:_Znwm
   fun:_ZN5boost6detail8heap_newINS0_20thread_exit_functionINS_3_bi6bind_tINS3_11unspecifiedENS_15checked_deleterImEENS3_5list1INS3_5valueIPmEEEEEEEERSD_EEPT_OT0_
   fun:_ZN5boost11this_thread14at_thread_exitINS_3_bi6bind_tINS2_11unspecifiedENS_15checked_deleterImEENS2_5list1INS2_5valueIPmEEEEEEEEvT_
   fun:_ZN5boost3log12v2s_mt_posix7sources3aux18get_severity_levelEv
   fun:_ZN5boost3log12v2s_mt_posix7sources3aux14severity_levelINS1_7trivial14severity_levelEE9set_valueES6_
   fun:_ZN5boost3log12v2s_mt_posix7sources21basic_severity_loggerINS2_12basic_loggerIcNS2_18severity_logger_mtINS1_7trivial14severity_levelEEENS2_18multi_thread_modelINS1_3aux14light_rw_mutexEEEEES7_E20open_record_unlockedINS_9parameter3aux15tagged_argumentINS1_8keywords3tag8severityEKS7_EEEENS1_6recordERKT_
   fun:_ZN5boost3log12v2s_mt_posix7sources22basic_composite_loggerIcNS2_18severity_logger_mtINS1_7trivial14severity_levelEEENS2_18multi_thread_modelINS1_3aux14light_rw_mutexEEENS2_8featuresIJNS2_8severityIS6_EEEEEE11open_recordINS_9parameter3aux15tagged_argumentINS1_8keywords3tag8severityEKS6_EEEENS1_6recordERKT_
   fun:_ZN3bzn15bootstrap_peers21fetch_peers_from_fileERKNSt7__cxx1112basic_stringIcSt11char_traitsIcESaIcEEE
   fun:_ZN42bootstrap_file_test_test_invalid_json_Test8TestBodyEv
   fun:_ZN7testing8internal38HandleSehExceptionsInMethodIfSupportedINS_4TestEvEET0_PT_MS4_FS3_vEPKc
   fun:_ZN7testing8internal35HandleExceptionsInMethodIfSupportedINS_4TestEvEET0_PT_MS4_FS3_vEPKc
   fun:_ZN7testing4Test3RunEv
}
{
   <insert_a_suppression_name_here>
   Memcheck:Leak
   match-leak-kinds: reachable
   fun:_Znwm
   fun:_ZN5boost6detail12shared_countC1INS0_16thread_data_baseEEEPT_
   fun:_ZN5boost6detail20sp_pointer_constructINS0_16thread_data_baseES2_EEvPNS_10shared_ptrIT_EEPT0_RNS0_12shared_countE
   fun:_ZN5boost10shared_ptrINS_6detail16thread_data_baseEEC1IS2_EEPT_
   fun:_ZN5boost10shared_ptrINS_6detail16thread_data_baseEE5resetIS2_EEvPT_
   fun:_ZN5boost6detail25make_external_thread_dataEv
   fun:_ZN5boost6detail31get_or_make_current_thread_dataEv
   fun:_ZN5boost6detail24add_thread_exit_functionEPNS0_25thread_exit_function_baseE
   fun:_ZN5boost11this_thread14at_thread_exitINS_3_bi6bind_tINS2_11unspecifiedENS_15checked_deleterImEENS2_5list1INS2_5valueIPmEEEEEEEEvT_
   fun:_ZN5boost3log12v2s_mt_posix7sources3aux18get_severity_levelEv
   fun:_ZN5boost3log12v2s_mt_posix7sources3aux14severity_levelINS1_7trivial14severity_levelEE9set_valueES6_
   fun:_ZN5boost3log12v2s_mt_posix7sources21basic_severity_loggerINS2_12basic_loggerIcNS2_18severity_logger_mtINS1_7trivial14severity_levelEEENS2_18multi_thread_modelINS1_3aux14light_rw_mutexEEEEES7_E20open_record_unlockedINS_9parameter3aux15tagged_argumentINS1_8keywords3tag8severityEKS7_EEEENS1_6recordERKT_
}
{
   <insert_a_suppression_name_here>
   Memcheck:Leak
   match-leak-kinds: reachable
   fun:_Znwm
   fun:_ZN5boost6detail8heap_newINS0_26externally_launched_threadEEEPT_v
   fun:_ZN5boost6detail25make_external_thread_dataEv
   fun:_ZN5boost6detail31get_or_make_current_thread_dataEv
   fun:_ZN5boost6detail24add_thread_exit_functionEPNS0_25thread_exit_function_baseE
   fun:_ZN5boost11this_thread14at_thread_exitINS_3_bi6bind_tINS2_11unspecifiedENS_15checked_deleterImEENS2_5list1INS2_5valueIPmEEEEEEEEvT_
   fun:_ZN5boost3log12v2s_mt_posix7sources3aux18get_severity_levelEv
   fun:_ZN5boost3log12v2s_mt_posix7sources3aux14severity_levelINS1_7trivial14severity_levelEE9set_valueES6_
   fun:_ZN5boost3log12v2s_mt_posix7sources21basic_severity_loggerINS2_12basic_loggerIcNS2_18severity_logger_mtINS1_7trivial14severity_levelEEENS2_18multi_thread_modelINS1_3aux14light_rw_mutexEEEEES7_E20open_record_unlockedINS_9parameter3aux15tagged_argumentINS1_8keywords3tag8severityEKS7_EEEENS1_6recordERKT_
   fun:_ZN5boost3log12v2s_mt_posix7sources22basic_composite_loggerIcNS2_18severity_logger_mtINS1_7trivial14severity_levelEEENS2_18multi_thread_modelINS1_3aux14light_rw_mutexEEENS2_8featuresIJNS2_8severityIS6_EEEEEE11open_recordINS_9parameter3aux15tagged_argumentINS1_8keywords3tag8severityEKS6_EEEENS1_6recordERKT_
   fun:_ZN3bzn15bootstrap_peers21fetch_peers_from_fileERKNSt7__cxx1112basic_stringIcSt11char_traitsIcESaIcEEE
   fun:_ZN42bootstrap_file_test_test_invalid_json_Test8TestBodyEv
}
{
   <insert_a_suppression_name_here>
   Memcheck:Leak
   match-leak-kinds: reachable
   fun:malloc
   fun:re_node_set_alloc
   fun:register_state
   fun:create_cd_newstate
   fun:re_acquire_state_context
   fun:create_initial_state
   fun:re_compile_internal
   fun:regcomp
   fun:_ZN7testing8internal2RE4InitEPKc
   fun:_ZN7testing8internal2REC1EPKc
   fun:_ZN59chaos_test_DeathTest_test_crash_scheduled_and_executed_Test8TestBodyEv
   fun:_ZN7testing8internal38HandleSehExceptionsInMethodIfSupportedINS_4TestEvEET0_PT_MS4_FS3_vEPKc
   fun:_ZN7testing8internal35HandleExceptionsInMethodIfSupportedINS_4TestEvEET0_PT_MS4_FS3_vEPKc
   fun:_ZN7testing4Test3RunEv
   fun:_ZN7testing8TestInfo3RunEv
}
{
   <insert_a_suppression_name_here>
   Memcheck:Leak
   match-leak-kinds: reachable
   fun:malloc
   fun:strdup
   fun:_ZN7testing8internal5posix6StrDupEPKc
   fun:_ZN7testing8internal2RE4InitEPKc
   fun:_ZN7testing8internal2REC1EPKc
   fun:_ZN59chaos_test_DeathTest_test_crash_scheduled_and_executed_Test8TestBodyEv
   fun:_ZN7testing8internal38HandleSehExceptionsInMethodIfSupportedINS_4TestEvEET0_PT_MS4_FS3_vEPKc
   fun:_ZN7testing8internal35HandleExceptionsInMethodIfSupportedINS_4TestEvEET0_PT_MS4_FS3_vEPKc
   fun:_ZN7testing4Test3RunEv
   fun:_ZN7testing8TestInfo3RunEv
   fun:_ZN7testing8TestCase3RunEv
   fun:_ZN7testing8internal12UnitTestImpl11RunAllTestsEv
}
{
   <insert_a_suppression_name_here>
   Memcheck:Leak
   match-leak-kinds: reachable
   fun:_Znwm
   fun:_ZN9__gnu_cxx13new_allocatorIiE8allocateEmPKv
   fun:_ZNSt16allocator_traitsISaIiEE8allocateERS0_m
   fun:_ZNSt12_Vector_baseIiSaIiEE11_M_allocateEm
   fun:_ZNSt6vectorIiSaIiEE17_M_realloc_insertIJiEEEvN9__gnu_cxx17__normal_iteratorIPiS1_EEDpOT_
   fun:_ZNSt6vectorIiSaIiEE12emplace_backIJiEEEvDpOT_
   fun:_ZNSt6vectorIiSaIiEE9push_backEOi
   fun:_ZN7testing8TestCase11AddTestInfoEPNS_8TestInfoE
   fun:_ZN7testing8internal12UnitTestImpl11AddTestInfoEPFvvES3_PNS_8TestInfoE
   fun:_ZN7testing8internal23MakeAndRegisterTestInfoEPKcS2_S2_S2_NS0_12CodeLocationEPKvPFvvES7_PNS0_15TestFactoryBaseE
   fun:_Z41__static_initialization_and_destruction_0ii
   fun:_GLOBAL__sub_I__ZN59chaos_test_DeathTest_test_crash_scheduled_and_executed_Test10test_info_E
}
{
   <insert_a_suppression_name_here>
   Memcheck:Leak
   match-leak-kinds: reachable
   fun:malloc
   fun:re_node_set_alloc
   fun:calc_eclosure_iter
   fun:calc_eclosure
   fun:analyze
   fun:re_compile_internal
   fun:regcomp
   fun:_ZN7testing8internal2RE4InitEPKc
   fun:_ZN7testing8internal2REC1EPKc
   fun:_ZN59chaos_test_DeathTest_test_crash_scheduled_and_executed_Test8TestBodyEv
   fun:_ZN7testing8internal38HandleSehExceptionsInMethodIfSupportedINS_4TestEvEET0_PT_MS4_FS3_vEPKc
   fun:_ZN7testing8internal35HandleExceptionsInMethodIfSupportedINS_4TestEvEET0_PT_MS4_FS3_vEPKc
   fun:_ZN7testing4Test3RunEv
   fun:_ZN7testing8TestInfo3RunEv
   fun:_ZN7testing8TestCase3RunEv
}
{
   <insert_a_suppression_name_here>
   Memcheck:Leak
   match-leak-kinds: reachable
   fun:malloc
   fun:re_node_set_alloc
   fun:calc_eclosure_iter
   fun:calc_eclosure_iter
   fun:calc_eclosure_iter
   fun:calc_eclosure_iter
   fun:calc_eclosure_iter
   fun:calc_eclosure
   fun:analyze
   fun:re_compile_internal
   fun:regcomp
   fun:_ZN7testing8internal2RE4InitEPKc
   fun:_ZN7testing8internal2REC1EPKc
   fun:_ZN59chaos_test_DeathTest_test_crash_scheduled_and_executed_Test8TestBodyEv
   fun:_ZN7testing8internal38HandleSehExceptionsInMethodIfSupportedINS_4TestEvEET0_PT_MS4_FS3_vEPKc
}
{
   <insert_a_suppression_name_here>
   Memcheck:Leak
   match-leak-kinds: reachable
   fun:malloc
   fun:re_node_set_alloc
   fun:calc_eclosure_iter
   fun:calc_eclosure_iter
   fun:calc_eclosure_iter
   fun:calc_eclosure
   fun:analyze
   fun:re_compile_internal
   fun:regcomp
   fun:_ZN7testing8internal2RE4InitEPKc
   fun:_ZN7testing8internal2REC1EPKc
   fun:_ZN59chaos_test_DeathTest_test_crash_scheduled_and_executed_Test8TestBodyEv
   fun:_ZN7testing8internal38HandleSehExceptionsInMethodIfSupportedINS_4TestEvEET0_PT_MS4_FS3_vEPKc
   fun:_ZN7testing8internal35HandleExceptionsInMethodIfSupportedINS_4TestEvEET0_PT_MS4_FS3_vEPKc
   fun:_ZN7testing4Test3RunEv
}
{
   <insert_a_suppression_name_here>
   Memcheck:Leak
   match-leak-kinds: reachable
   fun:_Znwm
   fun:_Z41__static_initialization_and_destruction_0ii
   fun:_GLOBAL__sub_I__ZN59chaos_test_DeathTest_test_crash_scheduled_and_executed_Test10test_info_E
   fun:__libc_csu_init
   fun:(below main)
}
{
   <insert_a_suppression_name_here>
   Memcheck:Leak
   match-leak-kinds: reachable
   fun:_Znwm
   fun:_ZN7testing8internal12UnitTestImplC1EPNS_8UnitTestE
   fun:_ZN7testing8UnitTestC1Ev
   fun:_ZN7testing8UnitTest11GetInstanceEv
   fun:_ZN7testing8internal15GetUnitTestImplEv
   fun:_ZN7testing8internal23MakeAndRegisterTestInfoEPKcS2_S2_S2_NS0_12CodeLocationEPKvPFvvES7_PNS0_15TestFactoryBaseE
   fun:_Z41__static_initialization_and_destruction_0ii
   fun:_GLOBAL__sub_I__ZN59chaos_test_DeathTest_test_crash_scheduled_and_executed_Test10test_info_E
   fun:__libc_csu_init
   fun:(below main)
}
{
   <insert_a_suppression_name_here>
   Memcheck:Leak
   match-leak-kinds: reachable
   fun:_Znwm
   fun:_ZN7testing8internal11ThreadLocalISt6vectorINS0_9TraceInfoESaIS3_EEEC1Ev
   fun:_ZN7testing8internal12UnitTestImplC1EPNS_8UnitTestE
   fun:_ZN7testing8UnitTestC1Ev
   fun:_ZN7testing8UnitTest11GetInstanceEv
   fun:_ZN7testing8internal15GetUnitTestImplEv
   fun:_ZN7testing8internal23MakeAndRegisterTestInfoEPKcS2_S2_S2_NS0_12CodeLocationEPKvPFvvES7_PNS0_15TestFactoryBaseE
   fun:_Z41__static_initialization_and_destruction_0ii
   fun:_GLOBAL__sub_I__ZN59chaos_test_DeathTest_test_crash_scheduled_and_executed_Test10test_info_E
   fun:__libc_csu_init
   fun:(below main)
}
{
   <insert_a_suppression_name_here>
   Memcheck:Leak
   match-leak-kinds: reachable
   fun:_Znwm
   fun:_ZN9__gnu_cxx13new_allocatorIPN7testing17TestEventListenerEE8allocateEmPKv
   fun:_ZNSt16allocator_traitsISaIPN7testing17TestEventListenerEEE8allocateERS3_m
   fun:_ZNSt12_Vector_baseIPN7testing17TestEventListenerESaIS2_EE11_M_allocateEm
   fun:_ZNSt6vectorIPN7testing17TestEventListenerESaIS2_EE17_M_realloc_insertIJRKS2_EEEvN9__gnu_cxx17__normal_iteratorIPS2_S4_EEDpOT_
   fun:_ZNSt6vectorIPN7testing17TestEventListenerESaIS2_EE9push_backERKS2_
   fun:_ZN7testing8internal17TestEventRepeater6AppendEPNS_17TestEventListenerE
   fun:_ZN7testing18TestEventListeners6AppendEPNS_17TestEventListenerE
   fun:_ZN7testing18TestEventListeners23SetDefaultResultPrinterEPNS_17TestEventListenerE
   fun:_ZN7testing8internal12UnitTestImplC1EPNS_8UnitTestE
   fun:_ZN7testing8UnitTestC1Ev
   fun:_ZN7testing8UnitTest11GetInstanceEv
}
{
   <insert_a_suppression_name_here>
   Memcheck:Leak
   match-leak-kinds: reachable
   fun:_Znwm
   fun:_ZN9__gnu_cxx13new_allocatorIPN7testing8TestInfoEE8allocateEmPKv
   fun:_ZNSt16allocator_traitsISaIPN7testing8TestInfoEEE8allocateERS3_m
   fun:_ZNSt12_Vector_baseIPN7testing8TestInfoESaIS2_EE11_M_allocateEm
   fun:_ZNSt6vectorIPN7testing8TestInfoESaIS2_EE17_M_realloc_insertIJRKS2_EEEvN9__gnu_cxx17__normal_iteratorIPS2_S4_EEDpOT_
   fun:_ZNSt6vectorIPN7testing8TestInfoESaIS2_EE9push_backERKS2_
   fun:_ZN7testing8TestCase11AddTestInfoEPNS_8TestInfoE
   fun:_ZN7testing8internal12UnitTestImpl11AddTestInfoEPFvvES3_PNS_8TestInfoE
   fun:_ZN7testing8internal23MakeAndRegisterTestInfoEPKcS2_S2_S2_NS0_12CodeLocationEPKvPFvvES7_PNS0_15TestFactoryBaseE
   fun:_Z41__static_initialization_and_destruction_0ii
   fun:_GLOBAL__sub_I__ZN59chaos_test_DeathTest_test_crash_scheduled_and_executed_Test10test_info_E
   fun:__libc_csu_init
}
{
   <insert_a_suppression_name_here>
   Memcheck:Leak
   match-leak-kinds: reachable
   fun:_Znwm
   fun:_ZN9__gnu_cxx13new_allocatorIiE8allocateEmPKv
   fun:_ZNSt16allocator_traitsISaIiEE8allocateERS0_m
   fun:_ZNSt12_Vector_baseIiSaIiEE11_M_allocateEm
   fun:_ZNSt6vectorIiSaIiEE17_M_realloc_insertIJiEEEvN9__gnu_cxx17__normal_iteratorIPiS1_EEDpOT_
   fun:_ZNSt6vectorIiSaIiEE12emplace_backIJiEEEvDpOT_
   fun:_ZNSt6vectorIiSaIiEE9push_backEOi
   fun:_ZN7testing8internal12UnitTestImpl11GetTestCaseEPKcS3_PFvvES5_
   fun:_ZN7testing8internal12UnitTestImpl11AddTestInfoEPFvvES3_PNS_8TestInfoE
   fun:_ZN7testing8internal23MakeAndRegisterTestInfoEPKcS2_S2_S2_NS0_12CodeLocationEPKvPFvvES7_PNS0_15TestFactoryBaseE
   fun:_Z41__static_initialization_and_destruction_0ii
   fun:_GLOBAL__sub_I__ZN59chaos_test_DeathTest_test_crash_scheduled_and_executed_Test10test_info_E
}
{
   <insert_a_suppression_name_here>
   Memcheck:Leak
   match-leak-kinds: reachable
   fun:_Znwm
   fun:_ZN7testing8internal11ThreadLocalIPNS_8SequenceEEC1Ev
   fun:_Z41__static_initialization_and_destruction_0ii
   fun:_GLOBAL__sub_I__ZN7testing11Cardinality25DescribeActualCallCountToEiPSo
   fun:__libc_csu_init
   fun:(below main)
}
{
   <insert_a_suppression_name_here>
   Memcheck:Leak
   match-leak-kinds: reachable
   fun:_Znwm
   fun:_ZN7testing8internal12UnitTestImpl21os_stack_trace_getterEv
   fun:_ZN7testing8TestCase3RunEv
   fun:_ZN7testing8internal12UnitTestImpl11RunAllTestsEv
   fun:_ZN7testing8internal38HandleSehExceptionsInMethodIfSupportedINS0_12UnitTestImplEbEET0_PT_MS4_FS3_vEPKc
   fun:_ZN7testing8internal35HandleExceptionsInMethodIfSupportedINS0_12UnitTestImplEbEET0_PT_MS4_FS3_vEPKc
   fun:_ZN7testing8UnitTest3RunEv
   fun:_Z13RUN_ALL_TESTSv
   fun:main
}
{
   <insert_a_suppression_name_here>
   Memcheck:Leak
   match-leak-kinds: reachable
   fun:_Znwm
   fun:_ZN7testing1AIRKSt5tupleIJEEEENS_7MatcherIT_EEv
   fun:_ZN7testing8internal16TypedExpectationIFSt10unique_ptrIN3bzn4asio17steady_timer_baseESt14default_deleteIS5_EEvEEC1EPNS0_18FunctionMockerBaseIS9_EEPKciRKNSt7__cxx1112basic_stringIcSt11char_traitsIcESaIcEEERKSt5tupleIJEE
   fun:_ZN7testing8internal18FunctionMockerBaseIFSt10unique_ptrIN3bzn4asio17steady_timer_baseESt14default_deleteIS5_EEvEE17AddNewExpectationEPKciRKNSt7__cxx1112basic_stringIcSt11char_traitsIcESaIcEEERKSt5tupleIJEE
   fun:_ZN7testing8internal8MockSpecIFSt10unique_ptrIN3bzn4asio17steady_timer_baseESt14default_deleteIS5_EEvEE18InternalExpectedAtEPKciSC_SC_
   fun:_ZN10chaos_testC1Ev
   fun:_ZN59chaos_test_DeathTest_test_crash_scheduled_and_executed_TestC1Ev
   fun:_ZN7testing8internal15TestFactoryImplI59chaos_test_DeathTest_test_crash_scheduled_and_executed_TestE10CreateTestEv
   fun:_ZN7testing8internal38HandleSehExceptionsInMethodIfSupportedINS0_15TestFactoryBaseEPNS_4TestEEET0_PT_MS6_FS5_vEPKc
   fun:_ZN7testing8internal35HandleExceptionsInMethodIfSupportedINS0_15TestFactoryBaseEPNS_4TestEEET0_PT_MS6_FS5_vEPKc
   fun:_ZN7testing8TestInfo3RunEv
   fun:_ZN7testing8TestCase3RunEv
}
{
   <insert_a_suppression_name_here>
   Memcheck:Leak
   match-leak-kinds: reachable
   fun:_Znwm
   fun:_ZN7testing1AISt8functionIFvRKN5boost6system10error_codeEEEEENS_7MatcherIT_EEv
   fun:_ZNK7testing8internal15AnythingMatchercvNS_7MatcherIT_EEISt8functionIFvRKN5boost6system10error_codeEEEEEv
   fun:_ZN10chaos_testC1Ev
   fun:_ZN59chaos_test_DeathTest_test_crash_scheduled_and_executed_TestC1Ev
   fun:_ZN7testing8internal15TestFactoryImplI59chaos_test_DeathTest_test_crash_scheduled_and_executed_TestE10CreateTestEv
   fun:_ZN7testing8internal38HandleSehExceptionsInMethodIfSupportedINS0_15TestFactoryBaseEPNS_4TestEEET0_PT_MS6_FS5_vEPKc
   fun:_ZN7testing8internal35HandleExceptionsInMethodIfSupportedINS0_15TestFactoryBaseEPNS_4TestEEET0_PT_MS6_FS5_vEPKc
   fun:_ZN7testing8TestInfo3RunEv
   fun:_ZN7testing8TestCase3RunEv
   fun:_ZN7testing8internal12UnitTestImpl11RunAllTestsEv
   fun:_ZN7testing8internal38HandleSehExceptionsInMethodIfSupportedINS0_12UnitTestImplEbEET0_PT_MS4_FS3_vEPKc
}
{
   <insert_a_suppression_name_here>
   Memcheck:Leak
   match-leak-kinds: reachable
   fun:_Znwm
   fun:_ZN7testing1AIRKSt5tupleIJSt8functionIFvRKN5boost6system10error_codeEEEEEEENS_7MatcherIT_EEv
   fun:_ZN7testing8internal16TypedExpectationIFvSt8functionIFvRKN5boost6system10error_codeEEEEEC1EPNS0_18FunctionMockerBaseISA_EEPKciRKNSt7__cxx1112basic_stringIcSt11char_traitsIcESaIcEEERKSt5tupleIJNS_7MatcherIS9_EEEE
   fun:_ZN7testing8internal18FunctionMockerBaseIFvSt8functionIFvRKN5boost6system10error_codeEEEEE17AddNewExpectationEPKciRKNSt7__cxx1112basic_stringIcSt11char_traitsIcESaIcEEERKSt5tupleIJNS_7MatcherIS9_EEEE
   fun:_ZN7testing8internal8MockSpecIFvSt8functionIFvRKN5boost6system10error_codeEEEEE18InternalExpectedAtEPKciSD_SD_
   fun:_ZN10chaos_testC1Ev
   fun:_ZN59chaos_test_DeathTest_test_crash_scheduled_and_executed_TestC1Ev
   fun:_ZN7testing8internal15TestFactoryImplI59chaos_test_DeathTest_test_crash_scheduled_and_executed_TestE10CreateTestEv
   fun:_ZN7testing8internal38HandleSehExceptionsInMethodIfSupportedINS0_15TestFactoryBaseEPNS_4TestEEET0_PT_MS6_FS5_vEPKc
   fun:_ZN7testing8internal35HandleExceptionsInMethodIfSupportedINS0_15TestFactoryBaseEPNS_4TestEEET0_PT_MS6_FS5_vEPKc
   fun:_ZN7testing8TestInfo3RunEv
   fun:_ZN7testing8TestCase3RunEv
}
{
   <insert_a_suppression_name_here>
   Memcheck:Leak
   match-leak-kinds: reachable
   fun:_Znwm
   fun:_ZN9__gnu_cxx13new_allocatorImE8allocateEmPKv
   fun:_ZNSt16allocator_traitsISaImEE8allocateERS0_m
   fun:_ZNSt13_Bvector_baseISaIbEE11_M_allocateEm
   fun:_ZNSt6vectorIbSaIbEE13_M_initializeEm
   fun:_ZNSt6vectorIbSaIbEEC1ERKS1_
   fun:_ZN5boost15program_options19options_descriptionC1ERKS1_
   fun:_ZN5boost15program_options19options_description3addERKS1_
   fun:_ZN3bzn14simple_options13build_optionsEv
   fun:_ZN3bzn14simple_optionsC1Ev
   fun:_ZN3bzn7optionsC1Ev
   fun:_ZN9__gnu_cxx13new_allocatorIN3bzn7optionsEE9constructIS2_JEEEvPT_DpOT0_
}
{
   <insert_a_suppression_name_here>
   Memcheck:Leak
   match-leak-kinds: reachable
   fun:_Znwm
   fun:_ZN9__gnu_cxx13new_allocatorImE8allocateEmPKv
   fun:_ZNSt16allocator_traitsISaImEE8allocateERS0_m
   fun:_ZNSt13_Bvector_baseISaIbEE11_M_allocateEm
   fun:_ZNSt6vectorIbSaIbEE13_M_insert_auxESt13_Bit_iteratorb
   fun:_ZNSt6vectorIbSaIbEE9push_backEb
   fun:_ZN5boost15program_options19options_description3addENS_10shared_ptrINS0_18option_descriptionEEE
   fun:_ZN5boost15program_options19options_description3addERKS1_
   fun:_ZN3bzn14simple_options13build_optionsEv
   fun:_ZN3bzn14simple_optionsC1Ev
   fun:_ZN3bzn7optionsC1Ev
   fun:_ZN9__gnu_cxx13new_allocatorIN3bzn7optionsEE9constructIS2_JEEEvPT_DpOT0_
}
{
   <insert_a_suppression_name_here>
   Memcheck:Leak
   match-leak-kinds: reachable
   fun:_Znwm
   fun:_ZN5boost3log12v2s_mt_posix4core14implementation13init_instanceEv
   fun:_ZN5boost3log12v2s_mt_posix3aux14lazy_singletonINS1_4core14implementationENS_10shared_ptrIS4_EEE3getEv
   fun:_ZN5boost3log12v2s_mt_posix4core3getEv
   fun:_ZN5boost3log12v2s_mt_posix7sources12basic_loggerIcNS2_18severity_logger_mtINS1_7trivial14severity_levelEEENS2_18multi_thread_modelINS1_3aux14light_rw_mutexEEEEC1INS_9parameter3aux15tagged_argumentINS1_8keywords3tag8severityEKS6_EEEERKT_
   fun:_ZN5boost3log12v2s_mt_posix7sources21basic_severity_loggerINS2_12basic_loggerIcNS2_18severity_logger_mtINS1_7trivial14severity_levelEEENS2_18multi_thread_modelINS1_3aux14light_rw_mutexEEEEES7_EC1INS_9parameter3aux15tagged_argumentINS1_8keywords3tag8severityEKS7_EEEERKT_
   fun:_ZN5boost3log12v2s_mt_posix7sources22basic_composite_loggerIcNS2_18severity_logger_mtINS1_7trivial14severity_levelEEENS2_18multi_thread_modelINS1_3aux14light_rw_mutexEEENS2_8featuresIJNS2_8severityIS6_EEEEEEC1INS_9parameter3aux15tagged_argumentINS1_8keywords3tag8severityEKS6_EEEERKT_
   fun:_ZN5boost3log12v2s_mt_posix7sources18severity_logger_mtINS1_7trivial14severity_levelEEC1INS_9parameter3aux15tagged_argumentINS1_8keywords3tag8severityEKS5_EEEERKT_NS_11enable_if_cIXsrNS_3mpl3or_INS_10is_base_ofINS9_20tagged_argument_baseESG_EENSM_INS9_14empty_arg_listESG_EEN4mpl_5bool_ILb0EEEST_ST_EE5valueENS1_3aux12sfinae_dummyEE4typeE
   fun:_ZN5boost3log12v2s_mt_posix7trivial6logger16construct_loggerEv
   fun:_ZN5boost3log12v2s_mt_posix7sources3aux16logger_singletonINS1_7trivial6loggerEE16construct_loggerEv
   fun:_ZN5boost3log12v2s_mt_posix7sources3aux14global_storage11get_or_initENS_9typeindex14stl_type_indexEPFNS_10shared_ptrINS3_18logger_holder_baseEEEvE
   fun:_ZN5boost3log12v2s_mt_posix7sources3aux16logger_singletonINS1_7trivial6loggerEE13init_instanceEv
}
{
   <insert_a_suppression_name_here>
   Memcheck:Leak
   match-leak-kinds: reachable
   fun:_Znwm
   fun:_ZN5boost3log12v2s_mt_posix7sources3aux18get_severity_levelEv
   fun:_ZN5boost3log12v2s_mt_posix7sources3aux14severity_levelINS1_7trivial14severity_levelEE9set_valueES6_
   fun:_ZN5boost3log12v2s_mt_posix7sources21basic_severity_loggerINS2_12basic_loggerIcNS2_18severity_logger_mtINS1_7trivial14severity_levelEEENS2_18multi_thread_modelINS1_3aux14light_rw_mutexEEEEES7_E20open_record_unlockedINS_9parameter3aux15tagged_argumentINS1_8keywords3tag8severityEKS7_EEEENS1_6recordERKT_
   fun:_ZN5boost3log12v2s_mt_posix7sources22basic_composite_loggerIcNS2_18severity_logger_mtINS1_7trivial14severity_levelEEENS2_18multi_thread_modelINS1_3aux14light_rw_mutexEEENS2_8featuresIJNS2_8severityIS6_EEEEEE11open_recordINS_9parameter3aux15tagged_argumentINS1_8keywords3tag8severityEKS6_EEEENS1_6recordERKT_
   fun:_ZN3bzn5chaos17start_crash_timerEv
   fun:_ZZN3bzn5chaos5startEvENKUlvE_clEv
   fun:_ZSt13__invoke_implIvZN3bzn5chaos5startEvEUlvE_JEET_St14__invoke_otherOT0_DpOT1_
   fun:_ZSt8__invokeIZN3bzn5chaos5startEvEUlvE_JEENSt15__invoke_resultIT_JDpT0_EE4typeEOS4_DpOS5_
   fun:_ZZSt9call_onceIZN3bzn5chaos5startEvEUlvE_JEEvRSt9once_flagOT_DpOT0_ENKUlvE_clEv
   fun:_ZZSt9call_onceIZN3bzn5chaos5startEvEUlvE_JEEvRSt9once_flagOT_DpOT0_ENKUlvE0_clEv
   fun:_ZZSt9call_onceIZN3bzn5chaos5startEvEUlvE_JEEvRSt9once_flagOT_DpOT0_ENUlvE0_4_FUNEv
}
{
   <insert_a_suppression_name_here>
   Memcheck:Leak
   match-leak-kinds: reachable
   fun:_Znwm
   fun:_ZN5boost3log12v2s_mt_posix3aux11this_thread6get_idEv
   fun:_ZN5boost3log12v2s_mt_posix4core14implementation11thread_data15get_random_seedEv
   fun:_ZN5boost3log12v2s_mt_posix4core14implementation11thread_dataC1Ev
   fun:_ZN5boost3log12v2s_mt_posix4core14implementation16init_thread_dataEv
   fun:_ZN5boost3log12v2s_mt_posix4core14implementation15get_thread_dataEv
   fun:open_record<const boost::log::v2s_mt_posix::attribute_set&>
   fun:_ZN5boost3log12v2s_mt_posix4core11open_recordERKNS1_13attribute_setE
   fun:_ZN5boost3log12v2s_mt_posix7sources12basic_loggerIcNS2_18severity_logger_mtINS1_7trivial14severity_levelEEENS2_18multi_thread_modelINS1_3aux14light_rw_mutexEEEE20open_record_unlockedINS_9parameter3aux15tagged_argumentINS1_8keywords3tag8severityEKS6_EEEENS1_6recordERKT_
   fun:_ZN5boost3log12v2s_mt_posix7sources21basic_severity_loggerINS2_12basic_loggerIcNS2_18severity_logger_mtINS1_7trivial14severity_levelEEENS2_18multi_thread_modelINS1_3aux14light_rw_mutexEEEEES7_E20open_record_unlockedINS_9parameter3aux15tagged_argumentINS1_8keywords3tag8severityEKS7_EEEENS1_6recordERKT_
   fun:_ZN5boost3log12v2s_mt_posix7sources22basic_composite_loggerIcNS2_18severity_logger_mtINS1_7trivial14severity_levelEEENS2_18multi_thread_modelINS1_3aux14light_rw_mutexEEENS2_8featuresIJNS2_8severityIS6_EEEEEE11open_recordINS_9parameter3aux15tagged_argumentINS1_8keywords3tag8severityEKS6_EEEENS1_6recordERKT_
   fun:_ZN3bzn5chaos17start_crash_timerEv
   fun:_ZZN3bzn5chaos5startEvENKUlvE_clEv
}
{
   <insert_a_suppression_name_here>
   Memcheck:Leak
   match-leak-kinds: reachable
   fun:_Znwm
   fun:_ZN5boost3log12v2s_mt_posix3aux12_GLOBAL__N_120stream_compound_poolIcE3getEv
   fun:_ZN5boost3log12v2s_mt_posix3aux15stream_providerIcE17allocate_compoundERNS1_6recordE
   fun:_ZN5boost3log12v2s_mt_posix3aux11record_pumpINS1_7sources18severity_logger_mtINS1_7trivial14severity_levelEEEEC1ERS8_RNS1_6recordE
   fun:make_record_pump<boost::log::v2s_mt_posix::sources::severity_logger_mt<boost::log::v2s_mt_posix::trivial::severity_level> >
   fun:_ZN3bzn5chaos17start_crash_timerEv
   fun:_ZZN3bzn5chaos5startEvENKUlvE_clEv
   fun:_ZSt13__invoke_implIvZN3bzn5chaos5startEvEUlvE_JEET_St14__invoke_otherOT0_DpOT1_
   fun:_ZSt8__invokeIZN3bzn5chaos5startEvEUlvE_JEENSt15__invoke_resultIT_JDpT0_EE4typeEOS4_DpOS5_
   fun:_ZZSt9call_onceIZN3bzn5chaos5startEvEUlvE_JEEvRSt9once_flagOT_DpOT0_ENKUlvE_clEv
   fun:_ZZSt9call_onceIZN3bzn5chaos5startEvEUlvE_JEEvRSt9once_flagOT_DpOT0_ENKUlvE0_clEv
   fun:_ZZSt9call_onceIZN3bzn5chaos5startEvEUlvE_JEEvRSt9once_flagOT_DpOT0_ENUlvE0_4_FUNEv
   fun:__pthread_once_slow
}
{
   <insert_a_suppression_name_here>
   Memcheck:Leak
   match-leak-kinds: reachable
   fun:malloc
   fun:re_node_set_alloc
   fun:calc_eclosure_iter
   fun:calc_eclosure_iter
   fun:calc_eclosure
   fun:analyze
   fun:re_compile_internal
   fun:regcomp
   fun:_ZN7testing8internal2RE4InitEPKc
   fun:_ZN7testing8internal2REC1EPKc
   fun:_ZN59chaos_test_DeathTest_test_crash_scheduled_and_executed_Test8TestBodyEv
   fun:_ZN7testing8internal38HandleSehExceptionsInMethodIfSupportedINS_4TestEvEET0_PT_MS4_FS3_vEPKc
   fun:_ZN7testing8internal35HandleExceptionsInMethodIfSupportedINS_4TestEvEET0_PT_MS4_FS3_vEPKc
   fun:_ZN7testing4Test3RunEv
   fun:_ZN7testing8TestInfo3RunEv
}
{
   <insert_a_suppression_name_here>
   Memcheck:Leak
   match-leak-kinds: reachable
   fun:malloc
   fun:re_node_set_init_1
   fun:link_nfa_nodes
   fun:preorder
   fun:analyze
   fun:re_compile_internal
   fun:regcomp
   fun:_ZN7testing8internal2RE4InitEPKc
   fun:_ZN7testing8internal2REC1EPKc
   fun:_ZN59chaos_test_DeathTest_test_crash_scheduled_and_executed_Test8TestBodyEv
   fun:_ZN7testing8internal38HandleSehExceptionsInMethodIfSupportedINS_4TestEvEET0_PT_MS4_FS3_vEPKc
   fun:_ZN7testing8internal35HandleExceptionsInMethodIfSupportedINS_4TestEvEET0_PT_MS4_FS3_vEPKc
   fun:_ZN7testing4Test3RunEv
   fun:_ZN7testing8TestInfo3RunEv
   fun:_ZN7testing8TestCase3RunEv
   fun:_ZN7testing8internal12UnitTestImpl11RunAllTestsEv
}
{
   <insert_a_suppression_name_here>
   Memcheck:Leak
   match-leak-kinds: reachable
   fun:malloc
   fun:analyze
   fun:re_compile_internal
   fun:regcomp
   fun:_ZN7testing8internal2RE4InitEPKc
   fun:_ZN7testing8internal2REC1EPKc
   fun:_ZN59chaos_test_DeathTest_test_crash_scheduled_and_executed_Test8TestBodyEv
   fun:_ZN7testing8internal38HandleSehExceptionsInMethodIfSupportedINS_4TestEvEET0_PT_MS4_FS3_vEPKc
   fun:_ZN7testing8internal35HandleExceptionsInMethodIfSupportedINS_4TestEvEET0_PT_MS4_FS3_vEPKc
   fun:_ZN7testing4Test3RunEv
   fun:_ZN7testing8TestInfo3RunEv
   fun:_ZN7testing8TestCase3RunEv
   fun:_ZN7testing8internal12UnitTestImpl11RunAllTestsEv
}
{
   <insert_a_suppression_name_here>
   Memcheck:Leak
   match-leak-kinds: reachable
   fun:malloc
   fun:re_node_set_init_copy
   fun:create_cd_newstate
   fun:re_acquire_state_context
   fun:create_initial_state
   fun:re_compile_internal
   fun:regcomp
   fun:_ZN7testing8internal2RE4InitEPKc
   fun:_ZN7testing8internal2REC1EPKc
   fun:_ZN59chaos_test_DeathTest_test_crash_scheduled_and_executed_Test8TestBodyEv
   fun:_ZN7testing8internal38HandleSehExceptionsInMethodIfSupportedINS_4TestEvEET0_PT_MS4_FS3_vEPKc
   fun:_ZN7testing8internal35HandleExceptionsInMethodIfSupportedINS_4TestEvEET0_PT_MS4_FS3_vEPKc
   fun:_ZN7testing4Test3RunEv
   fun:_ZN7testing8TestInfo3RunEv
   fun:_ZN7testing8TestCase3RunEv
}
{
   <insert_a_suppression_name_here>
   Memcheck:Leak
   match-leak-kinds: reachable
   fun:malloc
   fun:re_node_set_alloc
   fun:calc_eclosure_iter
   fun:calc_eclosure_iter
   fun:calc_eclosure_iter
   fun:calc_eclosure_iter
   fun:calc_eclosure
   fun:analyze
   fun:re_compile_internal
   fun:regcomp
   fun:_ZN7testing8internal2RE4InitEPKc
   fun:_ZN7testing8internal2REC1EPKc
   fun:_ZN59chaos_test_DeathTest_test_crash_scheduled_and_executed_Test8TestBodyEv
   fun:_ZN7testing8internal38HandleSehExceptionsInMethodIfSupportedINS_4TestEvEET0_PT_MS4_FS3_vEPKc
   fun:_ZN7testing8internal35HandleExceptionsInMethodIfSupportedINS_4TestEvEET0_PT_MS4_FS3_vEPKc
}
{
   <insert_a_suppression_name_here>
   Memcheck:Leak
   match-leak-kinds: reachable
   fun:malloc
   fun:re_node_set_init_1
   fun:re_node_set_insert
   fun:duplicate_node_closure
   fun:calc_eclosure_iter
   fun:calc_eclosure
   fun:analyze
   fun:re_compile_internal
   fun:regcomp
   fun:_ZN7testing8internal2RE4InitEPKc
   fun:_ZN7testing8internal2REC1EPKc
   fun:_ZN59chaos_test_DeathTest_test_crash_scheduled_and_executed_Test8TestBodyEv
   fun:_ZN7testing8internal38HandleSehExceptionsInMethodIfSupportedINS_4TestEvEET0_PT_MS4_FS3_vEPKc
   fun:_ZN7testing8internal35HandleExceptionsInMethodIfSupportedINS_4TestEvEET0_PT_MS4_FS3_vEPKc
   fun:_ZN7testing4Test3RunEv
}
{
   <insert_a_suppression_name_here>
   Memcheck:Leak
   match-leak-kinds: reachable
   fun:_Znwm
   fun:_ZN7testing8internal11ThreadLocalIPNS_31TestPartResultReporterInterfaceEEC1ERKS3_
   fun:_ZN7testing8internal12UnitTestImplC1EPNS_8UnitTestE
   fun:_ZN7testing8UnitTestC1Ev
   fun:_ZN7testing8UnitTest11GetInstanceEv
   fun:_ZN7testing8internal15GetUnitTestImplEv
   fun:_ZN7testing8internal23MakeAndRegisterTestInfoEPKcS2_S2_S2_NS0_12CodeLocationEPKvPFvvES7_PNS0_15TestFactoryBaseE
   fun:_Z41__static_initialization_and_destruction_0ii
   fun:_GLOBAL__sub_I__ZN59chaos_test_DeathTest_test_crash_scheduled_and_executed_Test10test_info_E
   fun:__libc_csu_init
   fun:(below main)
}
{
   <insert_a_suppression_name_here>
   Memcheck:Leak
   match-leak-kinds: reachable
   fun:_Znwm
   fun:_ZN9__gnu_cxx13new_allocatorIPN7testing8TestCaseEE8allocateEmPKv
   fun:_ZNSt16allocator_traitsISaIPN7testing8TestCaseEEE8allocateERS3_m
   fun:_ZNSt12_Vector_baseIPN7testing8TestCaseESaIS2_EE11_M_allocateEm
   fun:_ZNSt6vectorIPN7testing8TestCaseESaIS2_EE17_M_realloc_insertIJRKS2_EEEvN9__gnu_cxx17__normal_iteratorIPS2_S4_EEDpOT_
   fun:_ZNSt6vectorIPN7testing8TestCaseESaIS2_EE9push_backERKS2_
   fun:_ZN7testing8internal12UnitTestImpl11GetTestCaseEPKcS3_PFvvES5_
   fun:_ZN7testing8internal12UnitTestImpl11AddTestInfoEPFvvES3_PNS_8TestInfoE
   fun:_ZN7testing8internal23MakeAndRegisterTestInfoEPKcS2_S2_S2_NS0_12CodeLocationEPKvPFvvES7_PNS0_15TestFactoryBaseE
   fun:_Z41__static_initialization_and_destruction_0ii
   fun:_GLOBAL__sub_I__ZN59chaos_test_DeathTest_test_crash_scheduled_and_executed_Test10test_info_E
   fun:__libc_csu_init
}
{
   <insert_a_suppression_name_here>
   Memcheck:Leak
   match-leak-kinds: reachable
   fun:_Znwm
   fun:_ZN9__gnu_cxx13new_allocatorIN7testing8internal10linked_ptrINS2_15ExpectationBaseEEEE8allocateEmPKv
   fun:_ZNSt16allocator_traitsISaIN7testing8internal10linked_ptrINS1_15ExpectationBaseEEEEE8allocateERS5_m
   fun:_ZNSt12_Vector_baseIN7testing8internal10linked_ptrINS1_15ExpectationBaseEEESaIS4_EE11_M_allocateEm
   fun:_ZNSt6vectorIN7testing8internal10linked_ptrINS1_15ExpectationBaseEEESaIS4_EE17_M_realloc_insertIJRKS4_EEEvN9__gnu_cxx17__normal_iteratorIPS4_S6_EEDpOT_
   fun:_ZNSt6vectorIN7testing8internal10linked_ptrINS1_15ExpectationBaseEEESaIS4_EE9push_backERKS4_
   fun:_ZN7testing8internal18FunctionMockerBaseIFSt10unique_ptrIN3bzn4asio17steady_timer_baseESt14default_deleteIS5_EEvEE17AddNewExpectationEPKciRKNSt7__cxx1112basic_stringIcSt11char_traitsIcESaIcEEERKSt5tupleIJEE
   fun:_ZN7testing8internal8MockSpecIFSt10unique_ptrIN3bzn4asio17steady_timer_baseESt14default_deleteIS5_EEvEE18InternalExpectedAtEPKciSC_SC_
   fun:_ZN10chaos_testC1Ev
   fun:_ZN59chaos_test_DeathTest_test_crash_scheduled_and_executed_TestC1Ev
   fun:_ZN7testing8internal15TestFactoryImplI59chaos_test_DeathTest_test_crash_scheduled_and_executed_TestE10CreateTestEv
   fun:_ZN7testing8internal38HandleSehExceptionsInMethodIfSupportedINS0_15TestFactoryBaseEPNS_4TestEEET0_PT_MS6_FS5_vEPKc
}
{
   <insert_a_suppression_name_here>
   Memcheck:Leak
   match-leak-kinds: reachable
   fun:_Znwm
   fun:_ZNK7testing8internal11ThreadLocalIPNS_8SequenceEE25DefaultValueHolderFactory13MakeNewHolderEv
   fun:_ZNK7testing8internal11ThreadLocalIPNS_8SequenceEE16GetOrCreateValueEv
   fun:_ZNK7testing8internal11ThreadLocalIPNS_8SequenceEE7pointerEv
   fun:_ZNK7testing8internal11ThreadLocalIPNS_8SequenceEE3getEv
   fun:_ZN7testing8internal18FunctionMockerBaseIFSt10unique_ptrIN3bzn4asio17steady_timer_baseESt14default_deleteIS5_EEvEE17AddNewExpectationEPKciRKNSt7__cxx1112basic_stringIcSt11char_traitsIcESaIcEEERKSt5tupleIJEE
   fun:_ZN7testing8internal8MockSpecIFSt10unique_ptrIN3bzn4asio17steady_timer_baseESt14default_deleteIS5_EEvEE18InternalExpectedAtEPKciSC_SC_
   fun:_ZN10chaos_testC1Ev
   fun:_ZN59chaos_test_DeathTest_test_crash_scheduled_and_executed_TestC1Ev
   fun:_ZN7testing8internal15TestFactoryImplI59chaos_test_DeathTest_test_crash_scheduled_and_executed_TestE10CreateTestEv
   fun:_ZN7testing8internal38HandleSehExceptionsInMethodIfSupportedINS0_15TestFactoryBaseEPNS_4TestEEET0_PT_MS6_FS5_vEPKc
   fun:_ZN7testing8internal35HandleExceptionsInMethodIfSupportedINS0_15TestFactoryBaseEPNS_4TestEEET0_PT_MS6_FS5_vEPKc
}
{
   <insert_a_suppression_name_here>
   Memcheck:Leak
   match-leak-kinds: reachable
   fun:_Znwm
   fun:_ZN7testing7BetweenEii
   fun:_ZN7testing7AtLeastEi
   fun:_ZN7testing9AnyNumberEv
   fun:_ZN10chaos_testC1Ev
   fun:_ZN59chaos_test_DeathTest_test_crash_scheduled_and_executed_TestC1Ev
   fun:_ZN7testing8internal15TestFactoryImplI59chaos_test_DeathTest_test_crash_scheduled_and_executed_TestE10CreateTestEv
   fun:_ZN7testing8internal38HandleSehExceptionsInMethodIfSupportedINS0_15TestFactoryBaseEPNS_4TestEEET0_PT_MS6_FS5_vEPKc
   fun:_ZN7testing8internal35HandleExceptionsInMethodIfSupportedINS0_15TestFactoryBaseEPNS_4TestEEET0_PT_MS6_FS5_vEPKc
   fun:_ZN7testing8TestInfo3RunEv
   fun:_ZN7testing8TestCase3RunEv
   fun:_ZN7testing8internal12UnitTestImpl11RunAllTestsEv
}
{
   <insert_a_suppression_name_here>
   Memcheck:Leak
   match-leak-kinds: reachable
   fun:_Znwm
   fun:_ZNK7testing17PolymorphicActionINS_8internal12InvokeActionIZN10chaos_testC4EvEUlvE_EEEcvNS_6ActionIT_EEIFSt10unique_ptrIN3bzn4asio17steady_timer_baseESt14default_deleteISE_EEvEEEv
   fun:_ZN10chaos_testC1Ev
   fun:_ZN59chaos_test_DeathTest_test_crash_scheduled_and_executed_TestC1Ev
   fun:_ZN7testing8internal15TestFactoryImplI59chaos_test_DeathTest_test_crash_scheduled_and_executed_TestE10CreateTestEv
   fun:_ZN7testing8internal38HandleSehExceptionsInMethodIfSupportedINS0_15TestFactoryBaseEPNS_4TestEEET0_PT_MS6_FS5_vEPKc
   fun:_ZN7testing8internal35HandleExceptionsInMethodIfSupportedINS0_15TestFactoryBaseEPNS_4TestEEET0_PT_MS6_FS5_vEPKc
   fun:_ZN7testing8TestInfo3RunEv
   fun:_ZN7testing8TestCase3RunEv
   fun:_ZN7testing8internal12UnitTestImpl11RunAllTestsEv
   fun:_ZN7testing8internal38HandleSehExceptionsInMethodIfSupportedINS0_12UnitTestImplEbEET0_PT_MS4_FS3_vEPKc
   fun:_ZN7testing8internal35HandleExceptionsInMethodIfSupportedINS0_12UnitTestImplEbEET0_PT_MS4_FS3_vEPKc
}
{
   <insert_a_suppression_name_here>
   Memcheck:Leak
   match-leak-kinds: reachable
   fun:_Znwm
   fun:_ZN7testing8internal16TypedExpectationIFSt10unique_ptrIN3bzn4asio17steady_timer_baseESt14default_deleteIS5_EEvEE8WillOnceERKNS_6ActionIS9_EE
   fun:_ZN10chaos_testC1Ev
   fun:_ZN59chaos_test_DeathTest_test_crash_scheduled_and_executed_TestC1Ev
   fun:_ZN7testing8internal15TestFactoryImplI59chaos_test_DeathTest_test_crash_scheduled_and_executed_TestE10CreateTestEv
   fun:_ZN7testing8internal38HandleSehExceptionsInMethodIfSupportedINS0_15TestFactoryBaseEPNS_4TestEEET0_PT_MS6_FS5_vEPKc
   fun:_ZN7testing8internal35HandleExceptionsInMethodIfSupportedINS0_15TestFactoryBaseEPNS_4TestEEET0_PT_MS6_FS5_vEPKc
   fun:_ZN7testing8TestInfo3RunEv
   fun:_ZN7testing8TestCase3RunEv
   fun:_ZN7testing8internal12UnitTestImpl11RunAllTestsEv
   fun:_ZN7testing8internal38HandleSehExceptionsInMethodIfSupportedINS0_12UnitTestImplEbEET0_PT_MS4_FS3_vEPKc
   fun:_ZN7testing8internal35HandleExceptionsInMethodIfSupportedINS0_12UnitTestImplEbEET0_PT_MS4_FS3_vEPKc
}
{
   <insert_a_suppression_name_here>
   Memcheck:Leak
   match-leak-kinds: reachable
   fun:_Znwm
   fun:_ZNK7testing17PolymorphicActionINS_8internal12InvokeActionIZN10chaos_testC4EvEUlvE0_EEEcvNS_6ActionIT_EEIFSt10unique_ptrIN3bzn4asio17steady_timer_baseESt14default_deleteISE_EEvEEEv
   fun:_ZN10chaos_testC1Ev
   fun:_ZN59chaos_test_DeathTest_test_crash_scheduled_and_executed_TestC1Ev
   fun:_ZN7testing8internal15TestFactoryImplI59chaos_test_DeathTest_test_crash_scheduled_and_executed_TestE10CreateTestEv
   fun:_ZN7testing8internal38HandleSehExceptionsInMethodIfSupportedINS0_15TestFactoryBaseEPNS_4TestEEET0_PT_MS6_FS5_vEPKc
   fun:_ZN7testing8internal35HandleExceptionsInMethodIfSupportedINS0_15TestFactoryBaseEPNS_4TestEEET0_PT_MS6_FS5_vEPKc
   fun:_ZN7testing8TestInfo3RunEv
   fun:_ZN7testing8TestCase3RunEv
   fun:_ZN7testing8internal12UnitTestImpl11RunAllTestsEv
   fun:_ZN7testing8internal38HandleSehExceptionsInMethodIfSupportedINS0_12UnitTestImplEbEET0_PT_MS4_FS3_vEPKc
   fun:_ZN7testing8internal35HandleExceptionsInMethodIfSupportedINS0_12UnitTestImplEbEET0_PT_MS4_FS3_vEPKc
}
{
   <insert_a_suppression_name_here>
   Memcheck:Leak
   match-leak-kinds: reachable
   fun:_Znwm
   fun:_ZN9__gnu_cxx13new_allocatorIPKvE8allocateEmS2_
   fun:_ZNSt16allocator_traitsISaIPKvEE8allocateERS2_m
   fun:_ZNSt12_Vector_baseIPKvSaIS1_EE11_M_allocateEm
   fun:_ZNSt6vectorIPKvSaIS1_EE17_M_realloc_insertIJS1_EEEvN9__gnu_cxx17__normal_iteratorIPS1_S3_EEDpOT_
   fun:_ZNSt6vectorIPKvSaIS1_EE12emplace_backIJS1_EEERS1_DpOT_
   fun:_ZNSt6vectorIPKvSaIS1_EE9push_backEOS1_
   fun:_ZN7testing8internal16TypedExpectationIFSt10unique_ptrIN3bzn4asio17steady_timer_baseESt14default_deleteIS5_EEvEE8WillOnceERKNS_6ActionIS9_EE
   fun:_ZN10chaos_testC1Ev
   fun:_ZN59chaos_test_DeathTest_test_crash_scheduled_and_executed_TestC1Ev
   fun:_ZN7testing8internal15TestFactoryImplI59chaos_test_DeathTest_test_crash_scheduled_and_executed_TestE10CreateTestEv
   fun:_ZN7testing8internal38HandleSehExceptionsInMethodIfSupportedINS0_15TestFactoryBaseEPNS_4TestEEET0_PT_MS6_FS5_vEPKc
}
{
   <insert_a_suppression_name_here>
   Memcheck:Leak
   match-leak-kinds: reachable
   fun:_Znwm
   fun:_ZN9__gnu_cxx13new_allocatorIN7testing8internal10linked_ptrINS2_15ExpectationBaseEEEE8allocateEmPKv
   fun:_ZNSt16allocator_traitsISaIN7testing8internal10linked_ptrINS1_15ExpectationBaseEEEEE8allocateERS5_m
   fun:_ZNSt12_Vector_baseIN7testing8internal10linked_ptrINS1_15ExpectationBaseEEESaIS4_EE11_M_allocateEm
   fun:_ZNSt6vectorIN7testing8internal10linked_ptrINS1_15ExpectationBaseEEESaIS4_EE17_M_realloc_insertIJRKS4_EEEvN9__gnu_cxx17__normal_iteratorIPS4_S6_EEDpOT_
   fun:_ZNSt6vectorIN7testing8internal10linked_ptrINS1_15ExpectationBaseEEESaIS4_EE9push_backERKS4_
   fun:_ZN7testing8internal18FunctionMockerBaseIFvSt8functionIFvRKN5boost6system10error_codeEEEEE17AddNewExpectationEPKciRKNSt7__cxx1112basic_stringIcSt11char_traitsIcESaIcEEERKSt5tupleIJNS_7MatcherIS9_EEEE
   fun:_ZN7testing8internal8MockSpecIFvSt8functionIFvRKN5boost6system10error_codeEEEEE18InternalExpectedAtEPKciSD_SD_
   fun:_ZN10chaos_testC1Ev
   fun:_ZN59chaos_test_DeathTest_test_crash_scheduled_and_executed_TestC1Ev
   fun:_ZN7testing8internal15TestFactoryImplI59chaos_test_DeathTest_test_crash_scheduled_and_executed_TestE10CreateTestEv
   fun:_ZN7testing8internal38HandleSehExceptionsInMethodIfSupportedINS0_15TestFactoryBaseEPNS_4TestEEET0_PT_MS6_FS5_vEPKc
}
{
   <insert_a_suppression_name_here>
   Memcheck:Leak
   match-leak-kinds: reachable
   fun:_Znwm
   fun:_ZNK7testing17PolymorphicActionINS_8internal12InvokeActionIZN10chaos_testC4EvEUlT_E1_EEEcvNS_6ActionIS4_EEIFvSt8functionIFvRKN5boost6system10error_codeEEEEEEv
   fun:_ZN10chaos_testC1Ev
   fun:_ZN59chaos_test_DeathTest_test_crash_scheduled_and_executed_TestC1Ev
   fun:_ZN7testing8internal15TestFactoryImplI59chaos_test_DeathTest_test_crash_scheduled_and_executed_TestE10CreateTestEv
   fun:_ZN7testing8internal38HandleSehExceptionsInMethodIfSupportedINS0_15TestFactoryBaseEPNS_4TestEEET0_PT_MS6_FS5_vEPKc
   fun:_ZN7testing8internal35HandleExceptionsInMethodIfSupportedINS0_15TestFactoryBaseEPNS_4TestEEET0_PT_MS6_FS5_vEPKc
   fun:_ZN7testing8TestInfo3RunEv
   fun:_ZN7testing8TestCase3RunEv
   fun:_ZN7testing8internal12UnitTestImpl11RunAllTestsEv
   fun:_ZN7testing8internal38HandleSehExceptionsInMethodIfSupportedINS0_12UnitTestImplEbEET0_PT_MS4_FS3_vEPKc
   fun:_ZN7testing8internal35HandleExceptionsInMethodIfSupportedINS0_12UnitTestImplEbEET0_PT_MS4_FS3_vEPKc
}
{
   <insert_a_suppression_name_here>
   Memcheck:Leak
   match-leak-kinds: reachable
   fun:_Znwm
   fun:_ZNK7testing17PolymorphicActionINS_8internal12InvokeActionIZN10chaos_testC4EvEUlT_E2_EEEcvNS_6ActionIS4_EEIFvSt8functionIFvRKN5boost6system10error_codeEEEEEEv
   fun:_ZN10chaos_testC1Ev
   fun:_ZN59chaos_test_DeathTest_test_crash_scheduled_and_executed_TestC1Ev
   fun:_ZN7testing8internal15TestFactoryImplI59chaos_test_DeathTest_test_crash_scheduled_and_executed_TestE10CreateTestEv
   fun:_ZN7testing8internal38HandleSehExceptionsInMethodIfSupportedINS0_15TestFactoryBaseEPNS_4TestEEET0_PT_MS6_FS5_vEPKc
   fun:_ZN7testing8internal35HandleExceptionsInMethodIfSupportedINS0_15TestFactoryBaseEPNS_4TestEEET0_PT_MS6_FS5_vEPKc
   fun:_ZN7testing8TestInfo3RunEv
   fun:_ZN7testing8TestCase3RunEv
   fun:_ZN7testing8internal12UnitTestImpl11RunAllTestsEv
   fun:_ZN7testing8internal38HandleSehExceptionsInMethodIfSupportedINS0_12UnitTestImplEbEET0_PT_MS4_FS3_vEPKc
   fun:_ZN7testing8internal35HandleExceptionsInMethodIfSupportedINS0_12UnitTestImplEbEET0_PT_MS4_FS3_vEPKc
}
{
   <insert_a_suppression_name_here>
   Memcheck:Leak
   match-leak-kinds: reachable
   fun:_Znwm
   fun:_ZN5boost15program_options29options_description_easy_initclEPKcS3_
   fun:_ZN3bzn14simple_options13build_optionsEv
   fun:_ZN3bzn14simple_optionsC1Ev
   fun:_ZN3bzn7optionsC1Ev
   fun:_ZN9__gnu_cxx13new_allocatorIN3bzn7optionsEE9constructIS2_JEEEvPT_DpOT0_
   fun:_ZNSt16allocator_traitsISaIN3bzn7optionsEEE9constructIS1_JEEEvRS2_PT_DpOT0_
   fun:_ZNSt23_Sp_counted_ptr_inplaceIN3bzn7optionsESaIS1_ELN9__gnu_cxx12_Lock_policyE2EEC1IJEEES2_DpOT_
   fun:_ZNSt14__shared_countILN9__gnu_cxx12_Lock_policyE2EEC1IN3bzn7optionsESaIS5_EJEEESt19_Sp_make_shared_tagPT_RKT0_DpOT1_
   fun:_ZNSt12__shared_ptrIN3bzn7optionsELN9__gnu_cxx12_Lock_policyE2EEC1ISaIS1_EJEEESt19_Sp_make_shared_tagRKT_DpOT0_
   fun:_ZNSt10shared_ptrIN3bzn7optionsEEC1ISaIS1_EJEEESt19_Sp_make_shared_tagRKT_DpOT0_
   fun:_ZSt15allocate_sharedIN3bzn7optionsESaIS1_EJEESt10shared_ptrIT_ERKT0_DpOT1_
}
{
   <insert_a_suppression_name_here>
   Memcheck:Leak
   match-leak-kinds: reachable
   fun:_Znwm
   fun:_ZN5boost3anyC1ItEERKT_
   fun:_ZN5boost15program_options11typed_valueItcE13default_valueERKt
   fun:_ZN3bzn14simple_options13build_optionsEv
   fun:_ZN3bzn14simple_optionsC1Ev
   fun:_ZN3bzn7optionsC1Ev
   fun:_ZN9__gnu_cxx13new_allocatorIN3bzn7optionsEE9constructIS2_JEEEvPT_DpOT0_
   fun:_ZNSt16allocator_traitsISaIN3bzn7optionsEEE9constructIS1_JEEEvRS2_PT_DpOT0_
   fun:_ZNSt23_Sp_counted_ptr_inplaceIN3bzn7optionsESaIS1_ELN9__gnu_cxx12_Lock_policyE2EEC1IJEEES2_DpOT_
   fun:_ZNSt14__shared_countILN9__gnu_cxx12_Lock_policyE2EEC1IN3bzn7optionsESaIS5_EJEEESt19_Sp_make_shared_tagPT_RKT0_DpOT1_
   fun:_ZNSt12__shared_ptrIN3bzn7optionsELN9__gnu_cxx12_Lock_policyE2EEC1ISaIS1_EJEEESt19_Sp_make_shared_tagRKT_DpOT0_
   fun:_ZNSt10shared_ptrIN3bzn7optionsEEC1ISaIS1_EJEEESt19_Sp_make_shared_tagRKT_DpOT0_
}
{
   <insert_a_suppression_name_here>
   Memcheck:Leak
   match-leak-kinds: reachable
   fun:_Znwm
   fun:_ZN5boost3anyC1IbEERKT_
   fun:_ZN5boost15program_options11typed_valueIbcE13default_valueERKb
   fun:_ZN3bzn14simple_options13build_optionsEv
   fun:_ZN3bzn14simple_optionsC1Ev
   fun:_ZN3bzn7optionsC1Ev
   fun:_ZN9__gnu_cxx13new_allocatorIN3bzn7optionsEE9constructIS2_JEEEvPT_DpOT0_
   fun:_ZNSt16allocator_traitsISaIN3bzn7optionsEEE9constructIS1_JEEEvRS2_PT_DpOT0_
   fun:_ZNSt23_Sp_counted_ptr_inplaceIN3bzn7optionsESaIS1_ELN9__gnu_cxx12_Lock_policyE2EEC1IJEEES2_DpOT_
   fun:_ZNSt14__shared_countILN9__gnu_cxx12_Lock_policyE2EEC1IN3bzn7optionsESaIS5_EJEEESt19_Sp_make_shared_tagPT_RKT0_DpOT1_
   fun:_ZNSt12__shared_ptrIN3bzn7optionsELN9__gnu_cxx12_Lock_policyE2EEC1ISaIS1_EJEEESt19_Sp_make_shared_tagRKT_DpOT0_
   fun:_ZNSt10shared_ptrIN3bzn7optionsEEC1ISaIS1_EJEEESt19_Sp_make_shared_tagRKT_DpOT0_
}
{
   <insert_a_suppression_name_here>
   Memcheck:Leak
   match-leak-kinds: reachable
   fun:_Znwm
   fun:_ZN5boost3anyC1ImEERKT_
   fun:_ZN5boost15program_options11typed_valueImcE13default_valueERKm
   fun:_ZN3bzn14simple_options13build_optionsEv
   fun:_ZN3bzn14simple_optionsC1Ev
   fun:_ZN3bzn7optionsC1Ev
   fun:_ZN9__gnu_cxx13new_allocatorIN3bzn7optionsEE9constructIS2_JEEEvPT_DpOT0_
   fun:_ZNSt16allocator_traitsISaIN3bzn7optionsEEE9constructIS1_JEEEvRS2_PT_DpOT0_
   fun:_ZNSt23_Sp_counted_ptr_inplaceIN3bzn7optionsESaIS1_ELN9__gnu_cxx12_Lock_policyE2EEC1IJEEES2_DpOT_
   fun:_ZNSt14__shared_countILN9__gnu_cxx12_Lock_policyE2EEC1IN3bzn7optionsESaIS5_EJEEESt19_Sp_make_shared_tagPT_RKT0_DpOT1_
   fun:_ZNSt12__shared_ptrIN3bzn7optionsELN9__gnu_cxx12_Lock_policyE2EEC1ISaIS1_EJEEESt19_Sp_make_shared_tagRKT_DpOT0_
   fun:_ZNSt10shared_ptrIN3bzn7optionsEEC1ISaIS1_EJEEESt19_Sp_make_shared_tagRKT_DpOT0_
}
{
   <insert_a_suppression_name_here>
   Memcheck:Leak
   match-leak-kinds: reachable
   fun:_Znwm
   fun:_ZN5boost3anyC1IdEERKT_
   fun:_ZN5boost15program_options11typed_valueIdcE13default_valueERKd
   fun:_ZN3bzn14simple_options13build_optionsEv
   fun:_ZN3bzn14simple_optionsC1Ev
   fun:_ZN3bzn7optionsC1Ev
   fun:_ZN9__gnu_cxx13new_allocatorIN3bzn7optionsEE9constructIS2_JEEEvPT_DpOT0_
   fun:_ZNSt16allocator_traitsISaIN3bzn7optionsEEE9constructIS1_JEEEvRS2_PT_DpOT0_
   fun:_ZNSt23_Sp_counted_ptr_inplaceIN3bzn7optionsESaIS1_ELN9__gnu_cxx12_Lock_policyE2EEC1IJEEES2_DpOT_
   fun:_ZNSt14__shared_countILN9__gnu_cxx12_Lock_policyE2EEC1IN3bzn7optionsESaIS5_EJEEESt19_Sp_make_shared_tagPT_RKT0_DpOT1_
   fun:_ZNSt12__shared_ptrIN3bzn7optionsELN9__gnu_cxx12_Lock_policyE2EEC1ISaIS1_EJEEESt19_Sp_make_shared_tagRKT_DpOT0_
   fun:_ZNSt10shared_ptrIN3bzn7optionsEEC1ISaIS1_EJEEESt19_Sp_make_shared_tagRKT_DpOT0_
}
{
   <insert_a_suppression_name_here>
   Memcheck:Leak
   match-leak-kinds: reachable
   fun:_Znwm
   fun:_ZN5boost3anyC1IjEERKT_
   fun:_ZN5boost15program_options11typed_valueIjcE13default_valueERKj
   fun:_ZN3bzn14simple_options13build_optionsEv
   fun:_ZN3bzn14simple_optionsC1Ev
   fun:_ZN3bzn7optionsC1Ev
   fun:_ZN9__gnu_cxx13new_allocatorIN3bzn7optionsEE9constructIS2_JEEEvPT_DpOT0_
   fun:_ZNSt16allocator_traitsISaIN3bzn7optionsEEE9constructIS1_JEEEvRS2_PT_DpOT0_
   fun:_ZNSt23_Sp_counted_ptr_inplaceIN3bzn7optionsESaIS1_ELN9__gnu_cxx12_Lock_policyE2EEC1IJEEES2_DpOT_
   fun:_ZNSt14__shared_countILN9__gnu_cxx12_Lock_policyE2EEC1IN3bzn7optionsESaIS5_EJEEESt19_Sp_make_shared_tagPT_RKT0_DpOT1_
   fun:_ZNSt12__shared_ptrIN3bzn7optionsELN9__gnu_cxx12_Lock_policyE2EEC1ISaIS1_EJEEESt19_Sp_make_shared_tagRKT_DpOT0_
   fun:_ZNSt10shared_ptrIN3bzn7optionsEEC1ISaIS1_EJEEESt19_Sp_make_shared_tagRKT_DpOT0_
}
{
   <insert_a_suppression_name_here>
   Memcheck:Leak
   match-leak-kinds: reachable
   fun:_Znwm
   fun:_ZN5boost3anyC1IbEEOT_PNS_10disable_ifINS_7is_sameIRS0_S2_EEvE4typeEPNS4_INS_8is_constIS2_EEvE4typeE
   fun:_ZN5boost15program_options8validateERNS_3anyERKSt6vectorINSt7__cxx1112basic_stringIcSt11char_traitsIcESaIcEEESaIS9_EEPbi
   fun:_ZNK5boost15program_options11typed_valueIbcE6xparseERNS_3anyERKSt6vectorINSt7__cxx1112basic_stringIcSt11char_traitsIcESaIcEEESaISB_EE
   fun:_ZNK5boost15program_options29value_semantic_codecvt_helperIcE5parseERNS_3anyERKSt6vectorINSt7__cxx1112basic_stringIcSt11char_traitsIcESaIcEEESaISB_EEb
   fun:_ZN5boost15program_options5storeERKNS0_20basic_parsed_optionsIcEERNS0_13variables_mapEb
   fun:_ZN3bzn14simple_options15combine_optionsEv
   fun:_ZN3bzn14simple_options3setERKNSt7__cxx1112basic_stringIcSt11char_traitsIcESaIcEEES8_
   fun:_ZN10chaos_testC1Ev
   fun:_ZN59chaos_test_DeathTest_test_crash_scheduled_and_executed_TestC1Ev
   fun:_ZN7testing8internal15TestFactoryImplI59chaos_test_DeathTest_test_crash_scheduled_and_executed_TestE10CreateTestEv
   fun:_ZN7testing8internal38HandleSehExceptionsInMethodIfSupportedINS0_15TestFactoryBaseEPNS_4TestEEET0_PT_MS6_FS5_vEPKc
}
{
   <insert_a_suppression_name_here>
   Memcheck:Leak
   match-leak-kinds: reachable
   fun:_Znwm
   fun:_ZNK5boost3any6holderItE5cloneEv
   fun:_ZN5boost3anyC1ERKS0_
   fun:_ZN5boost15program_options14variable_valueC1ERKNS_3anyEb
   fun:_ZN5boost15program_options5storeERKNS0_20basic_parsed_optionsIcEERNS0_13variables_mapEb
   fun:_ZN3bzn14simple_options15combine_optionsEv
   fun:_ZN3bzn14simple_options3setERKNSt7__cxx1112basic_stringIcSt11char_traitsIcESaIcEEES8_
   fun:_ZN10chaos_testC1Ev
   fun:_ZN59chaos_test_DeathTest_test_crash_scheduled_and_executed_TestC1Ev
   fun:_ZN7testing8internal15TestFactoryImplI59chaos_test_DeathTest_test_crash_scheduled_and_executed_TestE10CreateTestEv
   fun:_ZN7testing8internal38HandleSehExceptionsInMethodIfSupportedINS0_15TestFactoryBaseEPNS_4TestEEET0_PT_MS6_FS5_vEPKc
   fun:_ZN7testing8internal35HandleExceptionsInMethodIfSupportedINS0_15TestFactoryBaseEPNS_4TestEEET0_PT_MS6_FS5_vEPKc
}
{
   <insert_a_suppression_name_here>
   Memcheck:Leak
   match-leak-kinds: reachable
   fun:_Znwm
   fun:_ZNK5boost3any6holderIjE5cloneEv
   fun:_ZN5boost3anyC1ERKS0_
   fun:_ZN5boost15program_options14variable_valueC1ERKNS_3anyEb
   fun:_ZN5boost15program_options5storeERKNS0_20basic_parsed_optionsIcEERNS0_13variables_mapEb
   fun:_ZN3bzn14simple_options15combine_optionsEv
   fun:_ZN3bzn14simple_options3setERKNSt7__cxx1112basic_stringIcSt11char_traitsIcESaIcEEES8_
   fun:_ZN10chaos_testC1Ev
   fun:_ZN59chaos_test_DeathTest_test_crash_scheduled_and_executed_TestC1Ev
   fun:_ZN7testing8internal15TestFactoryImplI59chaos_test_DeathTest_test_crash_scheduled_and_executed_TestE10CreateTestEv
   fun:_ZN7testing8internal38HandleSehExceptionsInMethodIfSupportedINS0_15TestFactoryBaseEPNS_4TestEEET0_PT_MS6_FS5_vEPKc
   fun:_ZN7testing8internal35HandleExceptionsInMethodIfSupportedINS0_15TestFactoryBaseEPNS_4TestEEET0_PT_MS6_FS5_vEPKc
}
{
   <insert_a_suppression_name_here>
   Memcheck:Leak
   match-leak-kinds: reachable
   fun:malloc
   fun:_ZN5boost3log12v2s_mt_posix3aux19stateless_allocatorIhE8allocateEmPKv
   fun:_ZN5boost3log12v2s_mt_posix9attribute4implnwEm
   fun:_ZN5boost3log12v2s_mt_posix7sources3aux14severity_levelINS1_7trivial14severity_levelEEC1Ev
   fun:_ZN5boost3log12v2s_mt_posix7sources21basic_severity_loggerINS2_12basic_loggerIcNS2_18severity_logger_mtINS1_7trivial14severity_levelEEENS2_18multi_thread_modelINS1_3aux14light_rw_mutexEEEEES7_EC1INS_9parameter3aux15tagged_argumentINS1_8keywords3tag8severityEKS7_EEEERKT_
   fun:_ZN5boost3log12v2s_mt_posix7sources22basic_composite_loggerIcNS2_18severity_logger_mtINS1_7trivial14severity_levelEEENS2_18multi_thread_modelINS1_3aux14light_rw_mutexEEENS2_8featuresIJNS2_8severityIS6_EEEEEEC1INS_9parameter3aux15tagged_argumentINS1_8keywords3tag8severityEKS6_EEEERKT_
   fun:_ZN5boost3log12v2s_mt_posix7sources18severity_logger_mtINS1_7trivial14severity_levelEEC1INS_9parameter3aux15tagged_argumentINS1_8keywords3tag8severityEKS5_EEEERKT_NS_11enable_if_cIXsrNS_3mpl3or_INS_10is_base_ofINS9_20tagged_argument_baseESG_EENSM_INS9_14empty_arg_listESG_EEN4mpl_5bool_ILb0EEEST_ST_EE5valueENS1_3aux12sfinae_dummyEE4typeE
   fun:_ZN5boost3log12v2s_mt_posix7trivial6logger16construct_loggerEv
   fun:_ZN5boost3log12v2s_mt_posix7sources3aux16logger_singletonINS1_7trivial6loggerEE16construct_loggerEv
   fun:_ZN5boost3log12v2s_mt_posix7sources3aux14global_storage11get_or_initENS_9typeindex14stl_type_indexEPFNS_10shared_ptrINS3_18logger_holder_baseEEEvE
   fun:_ZN5boost3log12v2s_mt_posix7sources3aux16logger_singletonINS1_7trivial6loggerEE13init_instanceEv
   fun:_ZN5boost3log12v2s_mt_posix3aux14lazy_singletonINS1_7sources3aux16logger_singletonINS1_7trivial6loggerEEENS_10shared_ptrINS5_13logger_holderINS4_18severity_logger_mtINS7_14severity_levelEEEEEEEE3getEv
}
{
   <insert_a_suppression_name_here>
   Memcheck:Leak
   match-leak-kinds: reachable
   fun:_Znwm
   fun:_ZN5boost6detail8heap_newINS0_25thread_exit_callback_nodeERPNS0_25thread_exit_function_baseERPS2_EEPT_OT0_OT1_
   fun:_ZN5boost6detail24add_thread_exit_functionEPNS0_25thread_exit_function_baseE
   fun:_ZN5boost11this_thread14at_thread_exitINS_3_bi6bind_tINS2_11unspecifiedENS_15checked_deleterImEENS2_5list1INS2_5valueIPmEEEEEEEEvT_
   fun:_ZN5boost3log12v2s_mt_posix7sources3aux18get_severity_levelEv
   fun:_ZN5boost3log12v2s_mt_posix7sources3aux14severity_levelINS1_7trivial14severity_levelEE9set_valueES6_
   fun:_ZN5boost3log12v2s_mt_posix7sources21basic_severity_loggerINS2_12basic_loggerIcNS2_18severity_logger_mtINS1_7trivial14severity_levelEEENS2_18multi_thread_modelINS1_3aux14light_rw_mutexEEEEES7_E20open_record_unlockedINS_9parameter3aux15tagged_argumentINS1_8keywords3tag8severityEKS7_EEEENS1_6recordERKT_
   fun:_ZN5boost3log12v2s_mt_posix7sources22basic_composite_loggerIcNS2_18severity_logger_mtINS1_7trivial14severity_levelEEENS2_18multi_thread_modelINS1_3aux14light_rw_mutexEEENS2_8featuresIJNS2_8severityIS6_EEEEEE11open_recordINS_9parameter3aux15tagged_argumentINS1_8keywords3tag8severityEKS6_EEEENS1_6recordERKT_
   fun:_ZN3bzn5chaos17start_crash_timerEv
   fun:_ZZN3bzn5chaos5startEvENKUlvE_clEv
   fun:_ZSt13__invoke_implIvZN3bzn5chaos5startEvEUlvE_JEET_St14__invoke_otherOT0_DpOT1_
   fun:_ZSt8__invokeIZN3bzn5chaos5startEvEUlvE_JEENSt15__invoke_resultIT_JDpT0_EE4typeEOS4_DpOS5_
}
{
   <insert_a_suppression_name_here>
   Memcheck:Leak
   match-leak-kinds: reachable
   fun:malloc
   fun:create_cd_newstate
   fun:re_acquire_state_context
   fun:create_initial_state
   fun:re_compile_internal
   fun:regcomp
   fun:_ZN7testing8internal2RE4InitEPKc
   fun:_ZN7testing8internal2REC1EPKc
   fun:_ZN59chaos_test_DeathTest_test_crash_scheduled_and_executed_Test8TestBodyEv
   fun:_ZN7testing8internal38HandleSehExceptionsInMethodIfSupportedINS_4TestEvEET0_PT_MS4_FS3_vEPKc
   fun:_ZN7testing8internal35HandleExceptionsInMethodIfSupportedINS_4TestEvEET0_PT_MS4_FS3_vEPKc
   fun:_ZN7testing4Test3RunEv
   fun:_ZN7testing8TestInfo3RunEv
   fun:_ZN7testing8TestCase3RunEv
}
{
   <insert_a_suppression_name_here>
   Memcheck:Leak
   match-leak-kinds: reachable
   fun:malloc
   fun:realloc
   fun:register_state
   fun:create_cd_newstate
   fun:re_acquire_state_context
   fun:create_initial_state
   fun:re_compile_internal
   fun:regcomp
   fun:_ZN7testing8internal2RE4InitEPKc
   fun:_ZN7testing8internal2REC1EPKc
   fun:_ZN59chaos_test_DeathTest_test_crash_scheduled_and_executed_Test8TestBodyEv
   fun:_ZN7testing8internal38HandleSehExceptionsInMethodIfSupportedINS_4TestEvEET0_PT_MS4_FS3_vEPKc
   fun:_ZN7testing8internal35HandleExceptionsInMethodIfSupportedINS_4TestEvEET0_PT_MS4_FS3_vEPKc
   fun:_ZN7testing4Test3RunEv
}
{
   <insert_a_suppression_name_here>
   Memcheck:Leak
   match-leak-kinds: reachable
   fun:_Znwm
   fun:_ZN9__gnu_cxx13new_allocatorIcE8allocateEmPKv
   fun:_ZNSt16allocator_traitsISaIcEE8allocateERS0_m
   fun:_ZNSt7__cxx1112basic_stringIcSt11char_traitsIcESaIcEE9_M_createERmm
   fun:_ZNSt7__cxx1112basic_stringIcSt11char_traitsIcESaIcEE12_M_constructIPKcEEvT_S8_St20forward_iterator_tag
   fun:_ZNSt7__cxx1112basic_stringIcSt11char_traitsIcESaIcEE16_M_construct_auxIPKcEEvT_S8_St12__false_type
   fun:_ZNSt7__cxx1112basic_stringIcSt11char_traitsIcESaIcEE12_M_constructIPKcEEvT_S8_
   fun:_ZNSt7__cxx1112basic_stringIcSt11char_traitsIcESaIcEEC1EPKcRKS3_
   fun:_Z41__static_initialization_and_destruction_0ii
   fun:_GLOBAL__sub_I__ZN59chaos_test_DeathTest_test_crash_scheduled_and_executed_Test10test_info_E
   fun:__libc_csu_init
   fun:(below main)
}
{
   <insert_a_suppression_name_here>
   Memcheck:Leak
   match-leak-kinds: reachable
   fun:_Znwm
   fun:_ZN9__gnu_cxx13new_allocatorIcE8allocateEmPKv
   fun:_ZNSt16allocator_traitsISaIcEE8allocateERS0_m
   fun:_ZNSt7__cxx1112basic_stringIcSt11char_traitsIcESaIcEE9_M_createERmm
   fun:_ZNSt7__cxx1112basic_stringIcSt11char_traitsIcESaIcEE12_M_constructIPKcEEvT_S8_St20forward_iterator_tag
   fun:_ZNSt7__cxx1112basic_stringIcSt11char_traitsIcESaIcEE16_M_construct_auxIPKcEEvT_S8_St12__false_type
   fun:_ZNSt7__cxx1112basic_stringIcSt11char_traitsIcESaIcEE12_M_constructIPKcEEvT_S8_
   fun:_ZNSt7__cxx1112basic_stringIcSt11char_traitsIcESaIcEEC1EPKcRKS3_
   fun:_Z41__static_initialization_and_destruction_0ii
   fun:_GLOBAL__sub_I__ZN3bzn5chaosC2ESt10shared_ptrINS_4asio15io_context_baseEES1_INS_12options_baseEE
   fun:__libc_csu_init
   fun:(below main)
}
{
   <insert_a_suppression_name_here>
   Memcheck:Leak
   match-leak-kinds: reachable
   fun:_Znwm
   fun:_ZN9__gnu_cxx13new_allocatorIcE8allocateEmPKv
   fun:_ZNSt16allocator_traitsISaIcEE8allocateERS0_m
   fun:_ZNSt7__cxx1112basic_stringIcSt11char_traitsIcESaIcEE9_M_createERmm
   fun:_ZNSt7__cxx1112basic_stringIcSt11char_traitsIcESaIcEE12_M_constructIPKcEEvT_S8_St20forward_iterator_tag
   fun:_ZNSt7__cxx1112basic_stringIcSt11char_traitsIcESaIcEE16_M_construct_auxIPKcEEvT_S8_St12__false_type
   fun:_ZNSt7__cxx1112basic_stringIcSt11char_traitsIcESaIcEE12_M_constructIPKcEEvT_S8_
   fun:_ZNSt7__cxx1112basic_stringIcSt11char_traitsIcESaIcEEC1EPKcRKS3_
   fun:_Z41__static_initialization_and_destruction_0ii
   fun:_GLOBAL__sub_I__ZN3bzn7options18parse_command_lineEiPPKc
   fun:__libc_csu_init
   fun:(below main)
}
{
   <insert_a_suppression_name_here>
   Memcheck:Leak
   match-leak-kinds: reachable
   fun:_Znwm
   fun:_ZN9__gnu_cxx13new_allocatorIcE8allocateEmPKv
   fun:_ZNSt16allocator_traitsISaIcEE8allocateERS0_m
   fun:_ZNSt7__cxx1112basic_stringIcSt11char_traitsIcESaIcEE9_M_createERmm
   fun:_ZNSt7__cxx1112basic_stringIcSt11char_traitsIcESaIcEE12_M_constructIPKcEEvT_S8_St20forward_iterator_tag
   fun:_ZNSt7__cxx1112basic_stringIcSt11char_traitsIcESaIcEE16_M_construct_auxIPKcEEvT_S8_St12__false_type
   fun:_ZNSt7__cxx1112basic_stringIcSt11char_traitsIcESaIcEE12_M_constructIPKcEEvT_S8_
   fun:_ZNSt7__cxx1112basic_stringIcSt11char_traitsIcESaIcEEC1EPKcRKS3_
   fun:_Z41__static_initialization_and_destruction_0ii
   fun:_GLOBAL__sub_I__ZN3bzn14simple_optionsC2Ev
   fun:__libc_csu_init
   fun:(below main)
}
{
   <insert_a_suppression_name_here>
   Memcheck:Leak
   match-leak-kinds: reachable
   fun:_Znwm
   fun:_ZN9__gnu_cxx13new_allocatorIcE8allocateEmPKv
   fun:_ZNSt16allocator_traitsISaIcEE8allocateERS0_m
   fun:_ZNSt7__cxx1112basic_stringIcSt11char_traitsIcESaIcEE9_M_createERmm
   fun:_ZNSt7__cxx1112basic_stringIcSt11char_traitsIcESaIcEE12_M_constructIPKcEEvT_S8_St20forward_iterator_tag
   fun:_ZNSt7__cxx1112basic_stringIcSt11char_traitsIcESaIcEE16_M_construct_auxIPKcEEvT_S8_St12__false_type
   fun:_ZNSt7__cxx1112basic_stringIcSt11char_traitsIcESaIcEE12_M_constructIPKcEEvT_S8_
   fun:_ZNSt7__cxx1112basic_stringIcSt11char_traitsIcESaIcEEC1EPKcRKS3_
   fun:_ZN5boost15program_options18option_descriptionC1EPKcPKNS0_14value_semanticES3_
   fun:_ZN5boost15program_options29options_description_easy_initclEPKcPKNS0_14value_semanticES3_
   fun:_ZN3bzn14simple_options13build_optionsEv
   fun:_ZN3bzn14simple_optionsC1Ev
}
{
   <insert_a_suppression_name_here>
   Memcheck:Leak
   match-leak-kinds: reachable
   fun:_Znwm
   fun:_ZN9__gnu_cxx13new_allocatorIcE8allocateEmPKv
   fun:_ZNSt16allocator_traitsISaIcEE8allocateERS0_m
   fun:_ZNSt7__cxx1112basic_stringIcSt11char_traitsIcESaIcEE9_M_createERmm
   fun:_ZNSt7__cxx1112basic_stringIcSt11char_traitsIcESaIcEE12_M_constructIPcEEvT_S7_St20forward_iterator_tag
   fun:_ZNSt7__cxx1112basic_stringIcSt11char_traitsIcESaIcEE16_M_construct_auxIPcEEvT_S7_St12__false_type
   fun:_ZNSt7__cxx1112basic_stringIcSt11char_traitsIcESaIcEE12_M_constructIPcEEvT_S7_
   fun:_ZNSt7__cxx1112basic_stringIcSt11char_traitsIcESaIcEEC1ERKS4_
   fun:_ZN5boost15program_options19options_descriptionC1ERKS1_
   fun:_ZN5boost15program_options19options_description3addERKS1_
   fun:_ZN3bzn14simple_options13build_optionsEv
   fun:_ZN3bzn14simple_optionsC1Ev
}
{
   <insert_a_suppression_name_here>
   Memcheck:Leak
   match-leak-kinds: reachable
   fun:_Znwm
   fun:_ZN9__gnu_cxx13new_allocatorIcE8allocateEmPKv
   fun:_ZNSt16allocator_traitsISaIcEE8allocateERS0_m
   fun:_ZNSt7__cxx1112basic_stringIcSt11char_traitsIcESaIcEE9_M_createERmm
   fun:_ZNSt7__cxx1112basic_stringIcSt11char_traitsIcESaIcEE12_M_constructIPcEEvT_S7_St20forward_iterator_tag
   fun:_ZNSt7__cxx1112basic_stringIcSt11char_traitsIcESaIcEE16_M_construct_auxIPcEEvT_S7_St12__false_type
   fun:_ZNSt7__cxx1112basic_stringIcSt11char_traitsIcESaIcEE12_M_constructIPcEEvT_S7_
   fun:_ZNSt7__cxx1112basic_stringIcSt11char_traitsIcESaIcEEC1ERKS4_
   fun:_ZN5boost15program_options19options_descriptionC1ERKNSt7__cxx1112basic_stringIcSt11char_traitsIcESaIcEEEjj
   fun:_ZN3bzn14simple_optionsC1Ev
   fun:_ZN3bzn7optionsC1Ev
   fun:_ZN9__gnu_cxx13new_allocatorIN3bzn7optionsEE9constructIS2_JEEEvPT_DpOT0_
}
{
   <insert_a_suppression_name_here>
   Memcheck:Leak
   match-leak-kinds: reachable
   fun:_Znwm
   fun:_ZN9__gnu_cxx13new_allocatorIcE8allocateEmPKv
   fun:_ZNSt16allocator_traitsISaIcEE8allocateERS0_m
   fun:_ZNSt7__cxx1112basic_stringIcSt11char_traitsIcESaIcEE9_M_createERmm
   fun:_ZNSt7__cxx1112basic_stringIcSt11char_traitsIcESaIcEE12_M_constructIPcEEvT_S7_St20forward_iterator_tag
   fun:_ZNSt7__cxx1112basic_stringIcSt11char_traitsIcESaIcEE16_M_construct_auxIPcEEvT_S7_St12__false_type
   fun:_ZNSt7__cxx1112basic_stringIcSt11char_traitsIcESaIcEE12_M_constructIPcEEvT_S7_
   fun:_ZNSt7__cxx1112basic_stringIcSt11char_traitsIcESaIcEEC1ERKS4_
   fun:_ZN7testing8TestInfoC1ERKNSt7__cxx1112basic_stringIcSt11char_traitsIcESaIcEEES8_PKcSA_NS_8internal12CodeLocationEPKvPNSB_15TestFactoryBaseE
   fun:_ZN7testing8internal23MakeAndRegisterTestInfoEPKcS2_S2_S2_NS0_12CodeLocationEPKvPFvvES7_PNS0_15TestFactoryBaseE
   fun:_Z41__static_initialization_and_destruction_0ii
   fun:_GLOBAL__sub_I__ZN59chaos_test_DeathTest_test_crash_scheduled_and_executed_Test10test_info_E
}
{
   <insert_a_suppression_name_here>
   Memcheck:Leak
   match-leak-kinds: reachable
   fun:_Znwm
   fun:_ZN9__gnu_cxx13new_allocatorIcE8allocateEmPKv
   fun:_ZNSt16allocator_traitsISaIcEE8allocateERS0_m
   fun:_ZNSt7__cxx1112basic_stringIcSt11char_traitsIcESaIcEE9_M_createERmm
   fun:_ZNSt7__cxx1112basic_stringIcSt11char_traitsIcESaIcEE12_M_constructIPKcEEvT_S8_St20forward_iterator_tag
   fun:_ZNSt7__cxx1112basic_stringIcSt11char_traitsIcESaIcEE16_M_construct_auxIPKcEEvT_S8_St12__false_type
   fun:_ZNSt7__cxx1112basic_stringIcSt11char_traitsIcESaIcEE12_M_constructIPKcEEvT_S8_
   fun:_ZNSt7__cxx1112basic_stringIcSt11char_traitsIcESaIcEEC1EPKcRKS3_
   fun:_ZN7testing8TestCaseC1EPKcS2_PFvvES4_
   fun:_ZN7testing8internal12UnitTestImpl11GetTestCaseEPKcS3_PFvvES5_
   fun:_ZN7testing8internal12UnitTestImpl11AddTestInfoEPFvvES3_PNS_8TestInfoE
   fun:_ZN7testing8internal23MakeAndRegisterTestInfoEPKcS2_S2_S2_NS0_12CodeLocationEPKvPFvvES7_PNS0_15TestFactoryBaseE
}
{
   <insert_a_suppression_name_here>
   Memcheck:Leak
   match-leak-kinds: reachable
   fun:_Znwm
   fun:_ZN9__gnu_cxx13new_allocatorIcE8allocateEmPKv
   fun:_ZNSt16allocator_traitsISaIcEE8allocateERS0_m
   fun:_ZNSt7__cxx1112basic_stringIcSt11char_traitsIcESaIcEE9_M_createERmm
   fun:_ZNSt7__cxx1112basic_stringIcSt11char_traitsIcESaIcEE12_M_constructIPcEEvT_S7_St20forward_iterator_tag
   fun:_ZNSt7__cxx1112basic_stringIcSt11char_traitsIcESaIcEE16_M_construct_auxIPcEEvT_S7_St12__false_type
   fun:_ZNSt7__cxx1112basic_stringIcSt11char_traitsIcESaIcEE12_M_constructIPcEEvT_S7_
   fun:_ZNSt7__cxx1112basic_stringIcSt11char_traitsIcESaIcEEC1ERKS4_
   fun:_ZN5boost3any6holderINSt7__cxx1112basic_stringIcSt11char_traitsIcESaIcEEEEC1ERKS7_
   fun:_ZN5boost3anyC1INSt7__cxx1112basic_stringIcSt11char_traitsIcESaIcEEEEERKT_
   fun:_ZN5boost15program_options11typed_valueINSt7__cxx1112basic_stringIcSt11char_traitsIcESaIcEEEcE13default_valueERKS7_
   fun:_ZN3bzn14simple_options13build_optionsEv
}
{
   <insert_a_suppression_name_here>
   Memcheck:Leak
   match-leak-kinds: reachable
   fun:_Znwm
   fun:_ZN9__gnu_cxx13new_allocatorIcE8allocateEmPKv
   fun:_ZNSt16allocator_traitsISaIcEE8allocateERS0_m
   fun:_ZNSt7__cxx1112basic_stringIcSt11char_traitsIcESaIcEE9_M_createERmm
   fun:_ZNSt7__cxx1112basic_stringIcSt11char_traitsIcESaIcEE12_M_constructIPKcEEvT_S8_St20forward_iterator_tag
   fun:_ZNSt7__cxx1112basic_stringIcSt11char_traitsIcESaIcEE16_M_construct_auxIPKcEEvT_S8_St12__false_type
   fun:_ZNSt7__cxx1112basic_stringIcSt11char_traitsIcESaIcEE12_M_constructIPKcEEvT_S8_
   fun:_ZNSt7__cxx1112basic_stringIcSt11char_traitsIcESaIcEEC1EPKcRKS3_
   fun:_ZN5boost15program_options18option_descriptionC1EPKcPKNS0_14value_semanticES3_
   fun:_ZN5boost15program_options29options_description_easy_initclEPKcS3_
   fun:_ZN3bzn14simple_options13build_optionsEv
   fun:_ZN3bzn14simple_optionsC1Ev
}
{
   <insert_a_suppression_name_here>
   Memcheck:Leak
   match-leak-kinds: reachable
   fun:_Znwm
   fun:_ZN5boost6detail12shared_countC1INS_16exception_detail10clone_implINS3_10bad_alloc_EEEEEPT_
   fun:_ZN5boost6detail20sp_pointer_constructIKNS_16exception_detail10clone_baseENS2_10clone_implINS2_10bad_alloc_EEEEEvPNS_10shared_ptrIT_EEPT0_RNS0_12shared_countE
   fun:_ZN5boost10shared_ptrIKNS_16exception_detail10clone_baseEEC1INS1_10clone_implINS1_10bad_alloc_EEEEEPT_
   fun:_ZN5boost16exception_detail27get_static_exception_objectINS0_10bad_alloc_EEENS_13exception_ptrEv
   fun:_Z41__static_initialization_and_destruction_0ii
   fun:_GLOBAL__sub_I__ZN5boost6detail16thread_data_baseD2Ev
   fun:__libc_csu_init
   fun:(below main)
}
{
   <insert_a_suppression_name_here>
   Memcheck:Leak
   match-leak-kinds: reachable
   fun:_Znwm
   fun:_ZN5boost6detail12shared_countC1INS_16exception_detail10clone_implINS3_14bad_exception_EEEEEPT_
   fun:_ZN5boost6detail20sp_pointer_constructIKNS_16exception_detail10clone_baseENS2_10clone_implINS2_14bad_exception_EEEEEvPNS_10shared_ptrIT_EEPT0_RNS0_12shared_countE
   fun:_ZN5boost10shared_ptrIKNS_16exception_detail10clone_baseEEC1INS1_10clone_implINS1_14bad_exception_EEEEEPT_
   fun:_ZN5boost16exception_detail27get_static_exception_objectINS0_14bad_exception_EEENS_13exception_ptrEv
   fun:_Z41__static_initialization_and_destruction_0ii
   fun:_GLOBAL__sub_I__ZN5boost6detail16thread_data_baseD2Ev
   fun:__libc_csu_init
   fun:(below main)
}
{
   <insert_a_suppression_name_here>
   Memcheck:Leak
   match-leak-kinds: reachable
   fun:_Znwm
   fun:_ZN5boost6detail12shared_countC1IKNS_15program_options14value_semanticEEEPT_
   fun:_ZN5boost6detail20sp_pointer_constructIKNS_15program_options14value_semanticES4_EEvPNS_10shared_ptrIT_EEPT0_RNS0_12shared_countE
   fun:_ZN5boost10shared_ptrIKNS_15program_options14value_semanticEEC1IS3_EEPT_
   fun:_ZN5boost15program_options18option_descriptionC1EPKcPKNS0_14value_semanticES3_
   fun:_ZN5boost15program_options29options_description_easy_initclEPKcS3_
   fun:_ZN3bzn14simple_options13build_optionsEv
   fun:_ZN3bzn14simple_optionsC1Ev
   fun:_ZN3bzn7optionsC1Ev
   fun:_ZN9__gnu_cxx13new_allocatorIN3bzn7optionsEE9constructIS2_JEEEvPT_DpOT0_
   fun:_ZNSt16allocator_traitsISaIN3bzn7optionsEEE9constructIS1_JEEEvRS2_PT_DpOT0_
   fun:_ZNSt23_Sp_counted_ptr_inplaceIN3bzn7optionsESaIS1_ELN9__gnu_cxx12_Lock_policyE2EEC1IJEEES2_DpOT_
}
{
   <insert_a_suppression_name_here>
   Memcheck:Leak
   match-leak-kinds: reachable
   fun:_Znwm
   fun:_ZN5boost6detail12shared_countC1INS_15program_options18option_descriptionEEEPT_
   fun:_ZN5boost6detail20sp_pointer_constructINS_15program_options18option_descriptionES3_EEvPNS_10shared_ptrIT_EEPT0_RNS0_12shared_countE
   fun:_ZN5boost10shared_ptrINS_15program_options18option_descriptionEEC1IS2_EEPT_
   fun:_ZN5boost15program_options29options_description_easy_initclEPKcS3_
   fun:_ZN3bzn14simple_options13build_optionsEv
   fun:_ZN3bzn14simple_optionsC1Ev
   fun:_ZN3bzn7optionsC1Ev
   fun:_ZN9__gnu_cxx13new_allocatorIN3bzn7optionsEE9constructIS2_JEEEvPT_DpOT0_
   fun:_ZNSt16allocator_traitsISaIN3bzn7optionsEEE9constructIS1_JEEEvRS2_PT_DpOT0_
   fun:_ZNSt23_Sp_counted_ptr_inplaceIN3bzn7optionsESaIS1_ELN9__gnu_cxx12_Lock_policyE2EEC1IJEEES2_DpOT_
   fun:_ZNSt14__shared_countILN9__gnu_cxx12_Lock_policyE2EEC1IN3bzn7optionsESaIS5_EJEEESt19_Sp_make_shared_tagPT_RKT0_DpOT1_
}
{
   <insert_a_suppression_name_here>
   Memcheck:Leak
   match-leak-kinds: reachable
   fun:_Znwm
   fun:_ZN5boost6detail12shared_countC1IKNS_15program_options14value_semanticEEEPT_
   fun:_ZN5boost6detail20sp_pointer_constructIKNS_15program_options14value_semanticES4_EEvPNS_10shared_ptrIT_EEPT0_RNS0_12shared_countE
   fun:_ZN5boost10shared_ptrIKNS_15program_options14value_semanticEEC1IS3_EEPT_
   fun:_ZN5boost15program_options18option_descriptionC1EPKcPKNS0_14value_semanticES3_
   fun:_ZN5boost15program_options29options_description_easy_initclEPKcPKNS0_14value_semanticES3_
   fun:_ZN3bzn14simple_options13build_optionsEv
   fun:_ZN3bzn14simple_optionsC1Ev
   fun:_ZN3bzn7optionsC1Ev
   fun:_ZN9__gnu_cxx13new_allocatorIN3bzn7optionsEE9constructIS2_JEEEvPT_DpOT0_
   fun:_ZNSt16allocator_traitsISaIN3bzn7optionsEEE9constructIS1_JEEEvRS2_PT_DpOT0_
   fun:_ZNSt23_Sp_counted_ptr_inplaceIN3bzn7optionsESaIS1_ELN9__gnu_cxx12_Lock_policyE2EEC1IJEEES2_DpOT_
}
{
   <insert_a_suppression_name_here>
   Memcheck:Leak
   match-leak-kinds: reachable
   fun:_Znwm
   fun:_ZN5boost6detail12shared_countC1INS_15program_options18option_descriptionEEEPT_
   fun:_ZN5boost6detail20sp_pointer_constructINS_15program_options18option_descriptionES3_EEvPNS_10shared_ptrIT_EEPT0_RNS0_12shared_countE
   fun:_ZN5boost10shared_ptrINS_15program_options18option_descriptionEEC1IS2_EEPT_
   fun:_ZN5boost15program_options29options_description_easy_initclEPKcPKNS0_14value_semanticES3_
   fun:_ZN3bzn14simple_options13build_optionsEv
   fun:_ZN3bzn14simple_optionsC1Ev
   fun:_ZN3bzn7optionsC1Ev
   fun:_ZN9__gnu_cxx13new_allocatorIN3bzn7optionsEE9constructIS2_JEEEvPT_DpOT0_
   fun:_ZNSt16allocator_traitsISaIN3bzn7optionsEEE9constructIS1_JEEEvRS2_PT_DpOT0_
   fun:_ZNSt23_Sp_counted_ptr_inplaceIN3bzn7optionsESaIS1_ELN9__gnu_cxx12_Lock_policyE2EEC1IJEEES2_DpOT_
   fun:_ZNSt14__shared_countILN9__gnu_cxx12_Lock_policyE2EEC1IN3bzn7optionsESaIS5_EJEEESt19_Sp_make_shared_tagPT_RKT0_DpOT1_
}
{
   <insert_a_suppression_name_here>
   Memcheck:Leak
   match-leak-kinds: reachable
   fun:_Znwm
   fun:_ZN5boost6detail12shared_countC1INS_15program_options19options_descriptionEEEPT_
   fun:_ZN5boost6detail20sp_pointer_constructINS_15program_options19options_descriptionES3_EEvPNS_10shared_ptrIT_EEPT0_RNS0_12shared_countE
   fun:_ZN5boost10shared_ptrINS_15program_options19options_descriptionEEC1IS2_EEPT_
   fun:_ZN5boost15program_options19options_description3addERKS1_
   fun:_ZN3bzn14simple_options13build_optionsEv
   fun:_ZN3bzn14simple_optionsC1Ev
   fun:_ZN3bzn7optionsC1Ev
   fun:_ZN9__gnu_cxx13new_allocatorIN3bzn7optionsEE9constructIS2_JEEEvPT_DpOT0_
   fun:_ZNSt16allocator_traitsISaIN3bzn7optionsEEE9constructIS1_JEEEvRS2_PT_DpOT0_
   fun:_ZNSt23_Sp_counted_ptr_inplaceIN3bzn7optionsESaIS1_ELN9__gnu_cxx12_Lock_policyE2EEC1IJEEES2_DpOT_
   fun:_ZNSt14__shared_countILN9__gnu_cxx12_Lock_policyE2EEC1IN3bzn7optionsESaIS5_EJEEESt19_Sp_make_shared_tagPT_RKT0_DpOT1_
}
{
   <insert_a_suppression_name_here>
   Memcheck:Leak
   match-leak-kinds: reachable
   fun:_Znwm
   fun:_ZN5boost6detail12shared_countC1INS_3log12v2s_mt_posix3aux23default_attribute_names12_GLOBAL__N_15namesEEEPT_
   fun:_ZN5boost6detail20sp_pointer_constructINS_3log12v2s_mt_posix3aux23default_attribute_names12_GLOBAL__N_15namesES7_EEvPNS_10shared_ptrIT_EEPT0_RNS0_12shared_countE
   fun:_ZN5boost10shared_ptrINS_3log12v2s_mt_posix3aux23default_attribute_names12_GLOBAL__N_15namesEEC1IS6_EEPT_
   fun:_ZN5boost10shared_ptrINS_3log12v2s_mt_posix3aux23default_attribute_names12_GLOBAL__N_15namesEE5resetIS6_EEvPT_
   fun:_ZN5boost3log12v2s_mt_posix3aux23default_attribute_names12_GLOBAL__N_15names13init_instanceEv
   fun:_ZN5boost3log12v2s_mt_posix3aux14lazy_singletonINS2_23default_attribute_names12_GLOBAL__N_15namesENS_10shared_ptrIS6_EEE3getEv
   fun:_ZN5boost3log12v2s_mt_posix3aux23default_attribute_names12_GLOBAL__N_15names3getEv
   fun:_ZN5boost3log12v2s_mt_posix3aux23default_attribute_names8severityEv
   fun:_ZN5boost3log12v2s_mt_posix5sinks3aux12default_sinkC1Ev
   fun:_ZN5boost11make_sharedINS_3log12v2s_mt_posix5sinks3aux12default_sinkEJEEENS_6detail15sp_if_not_arrayIT_E4typeEDpOT0_
   fun:_ZN5boost3log12v2s_mt_posix4core14implementationC1Ev
}
{
   <insert_a_suppression_name_here>
   Memcheck:Leak
   match-leak-kinds: reachable
   fun:_Znwm
   fun:_ZN5boost6detail12shared_countC1INS_3log12v2s_mt_posix4coreEEEPT_
   fun:_ZN5boost6detail20sp_pointer_constructINS_3log12v2s_mt_posix4coreES4_EEvPNS_10shared_ptrIT_EEPT0_RNS0_12shared_countE
   fun:_ZN5boost10shared_ptrINS_3log12v2s_mt_posix4coreEEC1IS3_EEPT_
   fun:_ZN5boost10shared_ptrINS_3log12v2s_mt_posix4coreEE5resetIS3_EEvPT_
   fun:_ZN5boost3log12v2s_mt_posix4core14implementation13init_instanceEv
   fun:_ZN5boost3log12v2s_mt_posix3aux14lazy_singletonINS1_4core14implementationENS_10shared_ptrIS4_EEE3getEv
   fun:_ZN5boost3log12v2s_mt_posix4core3getEv
   fun:_ZN5boost3log12v2s_mt_posix7sources12basic_loggerIcNS2_18severity_logger_mtINS1_7trivial14severity_levelEEENS2_18multi_thread_modelINS1_3aux14light_rw_mutexEEEEC1INS_9parameter3aux15tagged_argumentINS1_8keywords3tag8severityEKS6_EEEERKT_
   fun:_ZN5boost3log12v2s_mt_posix7sources21basic_severity_loggerINS2_12basic_loggerIcNS2_18severity_logger_mtINS1_7trivial14severity_levelEEENS2_18multi_thread_modelINS1_3aux14light_rw_mutexEEEEES7_EC1INS_9parameter3aux15tagged_argumentINS1_8keywords3tag8severityEKS7_EEEERKT_
   fun:_ZN5boost3log12v2s_mt_posix7sources22basic_composite_loggerIcNS2_18severity_logger_mtINS1_7trivial14severity_levelEEENS2_18multi_thread_modelINS1_3aux14light_rw_mutexEEENS2_8featuresIJNS2_8severityIS6_EEEEEEC1INS_9parameter3aux15tagged_argumentINS1_8keywords3tag8severityEKS6_EEEERKT_
   fun:_ZN5boost3log12v2s_mt_posix7sources18severity_logger_mtINS1_7trivial14severity_levelEEC1INS_9parameter3aux15tagged_argumentINS1_8keywords3tag8severityEKS5_EEEERKT_NS_11enable_if_cIXsrNS_3mpl3or_INS_10is_base_ofINS9_20tagged_argument_baseESG_EENSM_INS9_14empty_arg_listESG_EEN4mpl_5bool_ILb0EEEST_ST_EE5valueENS1_3aux12sfinae_dummyEE4typeE
}
{
   <insert_a_suppression_name_here>
   Memcheck:Leak
   match-leak-kinds: reachable
   fun:_Znwm
   fun:_ZN5boost6detail8heap_newINS0_20thread_exit_functionINS_3_bi6bind_tINS3_11unspecifiedENS_15checked_deleterImEENS3_5list1INS3_5valueIPmEEEEEEEERSD_EEPT_OT0_
   fun:_ZN5boost11this_thread14at_thread_exitINS_3_bi6bind_tINS2_11unspecifiedENS_15checked_deleterImEENS2_5list1INS2_5valueIPmEEEEEEEEvT_
   fun:_ZN5boost3log12v2s_mt_posix7sources3aux18get_severity_levelEv
   fun:_ZN5boost3log12v2s_mt_posix7sources3aux14severity_levelINS1_7trivial14severity_levelEE9set_valueES6_
   fun:_ZN5boost3log12v2s_mt_posix7sources21basic_severity_loggerINS2_12basic_loggerIcNS2_18severity_logger_mtINS1_7trivial14severity_levelEEENS2_18multi_thread_modelINS1_3aux14light_rw_mutexEEEEES7_E20open_record_unlockedINS_9parameter3aux15tagged_argumentINS1_8keywords3tag8severityEKS7_EEEENS1_6recordERKT_
   fun:_ZN5boost3log12v2s_mt_posix7sources22basic_composite_loggerIcNS2_18severity_logger_mtINS1_7trivial14severity_levelEEENS2_18multi_thread_modelINS1_3aux14light_rw_mutexEEENS2_8featuresIJNS2_8severityIS6_EEEEEE11open_recordINS_9parameter3aux15tagged_argumentINS1_8keywords3tag8severityEKS6_EEEENS1_6recordERKT_
   fun:_ZN3bzn5chaos17start_crash_timerEv
   fun:_ZZN3bzn5chaos5startEvENKUlvE_clEv
   fun:_ZSt13__invoke_implIvZN3bzn5chaos5startEvEUlvE_JEET_St14__invoke_otherOT0_DpOT1_
   fun:_ZSt8__invokeIZN3bzn5chaos5startEvEUlvE_JEENSt15__invoke_resultIT_JDpT0_EE4typeEOS4_DpOS5_
   fun:_ZZSt9call_onceIZN3bzn5chaos5startEvEUlvE_JEEvRSt9once_flagOT_DpOT0_ENKUlvE_clEv
}
{
   <insert_a_suppression_name_here>
   Memcheck:Leak
   match-leak-kinds: reachable
   fun:_Znwm
   fun:_ZN5boost6detail12shared_countC1INS0_16thread_data_baseEEEPT_
   fun:_ZN5boost6detail20sp_pointer_constructINS0_16thread_data_baseES2_EEvPNS_10shared_ptrIT_EEPT0_RNS0_12shared_countE
   fun:_ZN5boost10shared_ptrINS_6detail16thread_data_baseEEC1IS2_EEPT_
   fun:_ZN5boost10shared_ptrINS_6detail16thread_data_baseEE5resetIS2_EEvPT_
   fun:_ZN5boost6detail25make_external_thread_dataEv
   fun:_ZN5boost6detail31get_or_make_current_thread_dataEv
   fun:_ZN5boost6detail24add_thread_exit_functionEPNS0_25thread_exit_function_baseE
   fun:_ZN5boost11this_thread14at_thread_exitINS_3_bi6bind_tINS2_11unspecifiedENS_15checked_deleterImEENS2_5list1INS2_5valueIPmEEEEEEEEvT_
   fun:_ZN5boost3log12v2s_mt_posix7sources3aux18get_severity_levelEv
   fun:_ZN5boost3log12v2s_mt_posix7sources3aux14severity_levelINS1_7trivial14severity_levelEE9set_valueES6_
   fun:_ZN5boost3log12v2s_mt_posix7sources21basic_severity_loggerINS2_12basic_loggerIcNS2_18severity_logger_mtINS1_7trivial14severity_levelEEENS2_18multi_thread_modelINS1_3aux14light_rw_mutexEEEEES7_E20open_record_unlockedINS_9parameter3aux15tagged_argumentINS1_8keywords3tag8severityEKS7_EEEENS1_6recordERKT_
}
{
   <insert_a_suppression_name_here>
   Memcheck:Leak
   match-leak-kinds: reachable
   fun:_Znwm
   fun:_ZN5boost3log12v2s_mt_posix4core14implementation16init_thread_dataEv
   fun:_ZN5boost3log12v2s_mt_posix4core14implementation15get_thread_dataEv
   fun:open_record<const boost::log::v2s_mt_posix::attribute_set&>
   fun:_ZN5boost3log12v2s_mt_posix4core11open_recordERKNS1_13attribute_setE
   fun:_ZN5boost3log12v2s_mt_posix7sources12basic_loggerIcNS2_18severity_logger_mtINS1_7trivial14severity_levelEEENS2_18multi_thread_modelINS1_3aux14light_rw_mutexEEEE20open_record_unlockedINS_9parameter3aux15tagged_argumentINS1_8keywords3tag8severityEKS6_EEEENS1_6recordERKT_
   fun:_ZN5boost3log12v2s_mt_posix7sources21basic_severity_loggerINS2_12basic_loggerIcNS2_18severity_logger_mtINS1_7trivial14severity_levelEEENS2_18multi_thread_modelINS1_3aux14light_rw_mutexEEEEES7_E20open_record_unlockedINS_9parameter3aux15tagged_argumentINS1_8keywords3tag8severityEKS7_EEEENS1_6recordERKT_
   fun:_ZN5boost3log12v2s_mt_posix7sources22basic_composite_loggerIcNS2_18severity_logger_mtINS1_7trivial14severity_levelEEENS2_18multi_thread_modelINS1_3aux14light_rw_mutexEEENS2_8featuresIJNS2_8severityIS6_EEEEEE11open_recordINS_9parameter3aux15tagged_argumentINS1_8keywords3tag8severityEKS6_EEEENS1_6recordERKT_
   fun:_ZN3bzn5chaos17start_crash_timerEv
   fun:_ZZN3bzn5chaos5startEvENKUlvE_clEv
   fun:_ZSt13__invoke_implIvZN3bzn5chaos5startEvEUlvE_JEET_St14__invoke_otherOT0_DpOT1_
   fun:_ZSt8__invokeIZN3bzn5chaos5startEvEUlvE_JEENSt15__invoke_resultIT_JDpT0_EE4typeEOS4_DpOS5_
   fun:_ZZSt9call_onceIZN3bzn5chaos5startEvEUlvE_JEEvRSt9once_flagOT_DpOT0_ENKUlvE_clEv
}
{
   <insert_a_suppression_name_here>
   Memcheck:Leak
   match-leak-kinds: reachable
   fun:_Znwm
   fun:_ZN9__gnu_cxx13new_allocatorIcE8allocateEmPKv
   fun:_ZNSt16allocator_traitsISaIcEE8allocateERS0_m
   fun:_ZNSt7__cxx1112basic_stringIcSt11char_traitsIcESaIcEE9_M_createERmm
   fun:_ZNSt7__cxx1112basic_stringIcSt11char_traitsIcESaIcEE12_M_constructIPKcEEvT_S8_St20forward_iterator_tag
   fun:_ZNSt7__cxx1112basic_stringIcSt11char_traitsIcESaIcEE16_M_construct_auxIPKcEEvT_S8_St12__false_type
   fun:_ZNSt7__cxx1112basic_stringIcSt11char_traitsIcESaIcEE12_M_constructIPKcEEvT_S8_
   fun:_ZNSt7__cxx1112basic_stringIcSt11char_traitsIcESaIcEEC1EPKcRKS3_
   fun:_Z41__static_initialization_and_destruction_0ii
   fun:_GLOBAL__sub_I__ZN3bzn5utils6crypto13base64_decodeERKNSt7__cxx1112basic_stringIcSt11char_traitsIcESaIcEEERSt6vectorIhSaIhEE
   fun:__libc_csu_init
   fun:(below main)
}
{
   <insert_a_suppression_name_here>
   Memcheck:Leak
   match-leak-kinds: reachable
   fun:_Znwm
   fun:_ZN5boost3log12v2s_mt_posix3aux23default_attribute_names12_GLOBAL__N_15names13init_instanceEv
   fun:_ZN5boost3log12v2s_mt_posix3aux14lazy_singletonINS2_23default_attribute_names12_GLOBAL__N_15namesENS_10shared_ptrIS6_EEE3getEv
   fun:_ZN5boost3log12v2s_mt_posix3aux23default_attribute_names12_GLOBAL__N_15names3getEv
   fun:_ZN5boost3log12v2s_mt_posix3aux23default_attribute_names8severityEv
   fun:_ZN5boost3log12v2s_mt_posix5sinks3aux12default_sinkC1Ev
   fun:_ZN5boost11make_sharedINS_3log12v2s_mt_posix5sinks3aux12default_sinkEJEEENS_6detail15sp_if_not_arrayIT_E4typeEDpOT0_
   fun:_ZN5boost3log12v2s_mt_posix4core14implementationC1Ev
   fun:_ZN5boost3log12v2s_mt_posix4coreC1Ev
   fun:_ZN5boost3log12v2s_mt_posix4core14implementation13init_instanceEv
   fun:_ZN5boost3log12v2s_mt_posix3aux14lazy_singletonINS1_4core14implementationENS_10shared_ptrIS4_EEE3getEv
   fun:_ZN5boost3log12v2s_mt_posix4core3getEv
}
{
   <insert_a_suppression_name_here>
   Memcheck:Leak
   match-leak-kinds: reachable
   fun:_Znwm
   fun:_ZN9__gnu_cxx13new_allocatorIcE8allocateEmPKv
   fun:_ZNSt16allocator_traitsISaIcEE8allocateERS0_m
   fun:_ZNSt7__cxx1112basic_stringIcSt11char_traitsIcESaIcEE9_M_createERmm
   fun:_ZNSt7__cxx1112basic_stringIcSt11char_traitsIcESaIcEE7reserveEm
   fun:_ZN7testing8internal20StringStreamToStringEPNSt7__cxx1118basic_stringstreamIcSt11char_traitsIcESaIcEEE
   fun:_ZNK7testing7Message9GetStringB5cxx11Ev
   fun:_ZN7testing8internal18StreamableToStringIPcEENSt7__cxx1112basic_stringIcSt11char_traitsIcESaIcEEERKT_
   fun:_ZN7testing8internal18InitGoogleTestImplIcEEvPiPPT_
   fun:_ZN7testing14InitGoogleTestEPiPPc
   fun:_ZN7testing8internal18InitGoogleMockImplIcEEvPiPPT_
   fun:_ZN7testing14InitGoogleMockEPiPPc
}
{
   <insert_a_suppression_name_here>
   Memcheck:Leak
   match-leak-kinds: reachable
   fun:_Znwm
   fun:_ZN9__gnu_cxx13new_allocatorIcE8allocateEmPKv
   fun:_ZNSt16allocator_traitsISaIcEE8allocateERS0_m
   fun:_ZNSt7__cxx1112basic_stringIcSt11char_traitsIcESaIcEE9_M_createERmm
   fun:_ZNSt7__cxx1112basic_stringIcSt11char_traitsIcESaIcEE9_M_mutateEmmPKcm
   fun:_ZNSt7__cxx1112basic_stringIcSt11char_traitsIcESaIcEE10_M_replaceEmmPKcm
   fun:_ZNSt7__cxx1112basic_stringIcSt11char_traitsIcESaIcEE6assignEPKc
   fun:_ZNSt7__cxx1112basic_stringIcSt11char_traitsIcESaIcEEaSEPKc
   fun:_ZN7testing4Mock31RegisterUseByOnCallOrExpectCallEPKvPKci
   fun:_ZN7testing8internal18FunctionMockerBaseIFSt10unique_ptrIN3bzn4asio17steady_timer_baseESt14default_deleteIS5_EEvEE17AddNewExpectationEPKciRKNSt7__cxx1112basic_stringIcSt11char_traitsIcESaIcEEERKSt5tupleIJEE
   fun:_ZN7testing8internal8MockSpecIFSt10unique_ptrIN3bzn4asio17steady_timer_baseESt14default_deleteIS5_EEvEE18InternalExpectedAtEPKciSC_SC_
   fun:_ZN10chaos_testC1Ev
}
{
   <insert_a_suppression_name_here>
   Memcheck:Leak
   match-leak-kinds: reachable
   fun:_Znwm
   fun:_ZN9__gnu_cxx13new_allocatorIcE8allocateEmPKv
   fun:_ZNSt16allocator_traitsISaIcEE8allocateERS0_m
   fun:_ZNSt7__cxx1112basic_stringIcSt11char_traitsIcESaIcEE9_M_createERmm
   fun:_ZNSt7__cxx1112basic_stringIcSt11char_traitsIcESaIcEE9_M_mutateEmmPKcm
   fun:_ZNSt7__cxx1112basic_stringIcSt11char_traitsIcESaIcEE10_M_replaceEmmPKcm
   fun:_ZNSt7__cxx1112basic_stringIcSt11char_traitsIcESaIcEE6assignEPKc
   fun:_ZNSt7__cxx1112basic_stringIcSt11char_traitsIcESaIcEEaSEPKc
   fun:_ZN7testing4Mock31RegisterUseByOnCallOrExpectCallEPKvPKci
   fun:_ZN7testing8internal18FunctionMockerBaseIFvSt8functionIFvRKN5boost6system10error_codeEEEEE17AddNewExpectationEPKciRKNSt7__cxx1112basic_stringIcSt11char_traitsIcESaIcEEERKSt5tupleIJNS_7MatcherIS9_EEEE
   fun:_ZN7testing8internal8MockSpecIFvSt8functionIFvRKN5boost6system10error_codeEEEEE18InternalExpectedAtEPKciSD_SD_
   fun:_ZN10chaos_testC1Ev
}
{
   <insert_a_suppression_name_here>
   Memcheck:Leak
   match-leak-kinds: reachable
   fun:_Znwm
   fun:_ZN9__gnu_cxx13new_allocatorIcE8allocateEmPKv
   fun:_ZNSt16allocator_traitsISaIcEE8allocateERS0_m
   fun:_ZNSt7__cxx1112basic_stringIcSt11char_traitsIcESaIcEE9_M_createERmm
   fun:_ZNSt7__cxx1112basic_stringIcSt11char_traitsIcESaIcEE9_M_assignERKS4_
   fun:_ZNSt7__cxx1112basic_stringIcSt11char_traitsIcESaIcEE6assignERKS4_
   fun:_ZNSt7__cxx1112basic_stringIcSt11char_traitsIcESaIcEEaSERKS4_
   fun:_ZN5boost6detail19copy_converter_implINSt7__cxx1112basic_stringIcSt11char_traitsIcESaIcEEES7_E11try_convertIRKS7_EEbOT_RS7_
   fun:_ZN5boost10conversion6detail19try_lexical_convertINSt7__cxx1112basic_stringIcSt11char_traitsIcESaIcEEES8_EEbRKT0_RT_
   fun:_ZN5boost12lexical_castINSt7__cxx1112basic_stringIcSt11char_traitsIcESaIcEEES6_EET_RKT0_
   fun:_ZN5boost15program_options11typed_valueINSt7__cxx1112basic_stringIcSt11char_traitsIcESaIcEEEcE13default_valueERKS7_
   fun:_ZN3bzn14simple_options13build_optionsEv
}
{
   <insert_a_suppression_name_here>
   Memcheck:Leak
   match-leak-kinds: reachable
   fun:_Znwm
   fun:_ZN9__gnu_cxx13new_allocatorIcE8allocateEmPKv
   fun:_ZNSt16allocator_traitsISaIcEE8allocateERS0_m
   fun:_ZNSt7__cxx1112basic_stringIcSt11char_traitsIcESaIcEE9_M_createERmm
   fun:_ZNSt7__cxx1112basic_stringIcSt11char_traitsIcESaIcEE9_M_mutateEmmPKcm
   fun:_ZNSt7__cxx1112basic_stringIcSt11char_traitsIcESaIcEE10_M_replaceEmmPKcm
   fun:_ZNSt7__cxx1112basic_stringIcSt11char_traitsIcESaIcEE6assignEPKc
   fun:_ZNSt7__cxx1112basic_stringIcSt11char_traitsIcESaIcEEaSEPKc
   fun:_ZN7testing8internal14CapturedStreamC1Ei
   fun:_ZN7testing8internal13CaptureStreamEiPKcPPNS0_14CapturedStreamE
   fun:_ZN7testing8internal13CaptureStderrEv
   fun:_ZN7testing8internal15NoExecDeathTest10AssumeRoleEv
}
{
   <insert_a_suppression_name_here>
   Memcheck:Leak
   match-leak-kinds: reachable
   fun:_Znwm
   fun:_ZN9__gnu_cxx13new_allocatorINSt7__cxx1112basic_stringIcSt11char_traitsIcESaIcEEEE8allocateEmPKv
   fun:_ZNSt16allocator_traitsISaINSt7__cxx1112basic_stringIcSt11char_traitsIcESaIcEEEEE8allocateERS6_m
   fun:_ZNSt12_Vector_baseINSt7__cxx1112basic_stringIcSt11char_traitsIcESaIcEEESaIS5_EE11_M_allocateEm
   fun:_ZNSt6vectorINSt7__cxx1112basic_stringIcSt11char_traitsIcESaIcEEESaIS5_EE17_M_realloc_insertIJS5_EEEvN9__gnu_cxx17__normal_iteratorIPS5_S7_EEDpOT_
   fun:_ZNSt6vectorINSt7__cxx1112basic_stringIcSt11char_traitsIcESaIcEEESaIS5_EE12emplace_backIJS5_EEERS5_DpOT_
   fun:_ZNSt6vectorINSt7__cxx1112basic_stringIcSt11char_traitsIcESaIcEEESaIS5_EE9push_backEOS5_
   fun:_ZN7testing8internal18InitGoogleTestImplIcEEvPiPPT_
   fun:_ZN7testing14InitGoogleTestEPiPPc
   fun:_ZN7testing8internal18InitGoogleMockImplIcEEvPiPPT_
   fun:_ZN7testing14InitGoogleMockEPiPPc
   fun:main
}
{
   <insert_a_suppression_name_here>
   Memcheck:Leak
   match-leak-kinds: reachable
   fun:_Znwm
   fun:_ZN9__gnu_cxx13new_allocatorINSt7__cxx1112basic_stringIcSt11char_traitsIcESaIcEEEE8allocateEmPKv
   fun:_ZNSt16allocator_traitsISaINSt7__cxx1112basic_stringIcSt11char_traitsIcESaIcEEEEE8allocateERS6_m
   fun:_ZNSt12_Vector_baseINSt7__cxx1112basic_stringIcSt11char_traitsIcESaIcEEESaIS5_EE11_M_allocateEm
   fun:_ZNSt6vectorINSt7__cxx1112basic_stringIcSt11char_traitsIcESaIcEEESaIS5_EE17_M_realloc_insertIJRKS5_EEEvN9__gnu_cxx17__normal_iteratorIPS5_S7_EEDpOT_
   fun:_ZNSt6vectorINSt7__cxx1112basic_stringIcSt11char_traitsIcESaIcEEESaIS5_EE9push_backERKS5_
   fun:_ZN5boost15program_options18option_description9set_namesEPKc
   fun:_ZN5boost15program_options18option_descriptionC1EPKcPKNS0_14value_semanticES3_
   fun:_ZN5boost15program_options29options_description_easy_initclEPKcPKNS0_14value_semanticES3_
   fun:_ZN3bzn14simple_options13build_optionsEv
   fun:_ZN3bzn14simple_optionsC1Ev
   fun:_ZN3bzn7optionsC1Ev
}
{
   <insert_a_suppression_name_here>
   Memcheck:Leak
   match-leak-kinds: reachable
   fun:_Znwm
   fun:_ZN5boost3log12v2s_mt_posix3aux14light_functionIFbRKNS1_19attribute_value_setEEEC1INS1_6filter14default_filterEEEOT_
   fun:_ZN5boost3log12v2s_mt_posix6filterC1Ev
   fun:_ZN5boost3log12v2s_mt_posix4core14implementationC1Ev
   fun:_ZN5boost3log12v2s_mt_posix4coreC1Ev
   fun:_ZN5boost3log12v2s_mt_posix4core14implementation13init_instanceEv
   fun:_ZN5boost3log12v2s_mt_posix3aux14lazy_singletonINS1_4core14implementationENS_10shared_ptrIS4_EEE3getEv
   fun:_ZN5boost3log12v2s_mt_posix4core3getEv
   fun:_ZN5boost3log12v2s_mt_posix7sources12basic_loggerIcNS2_18severity_logger_mtINS1_7trivial14severity_levelEEENS2_18multi_thread_modelINS1_3aux14light_rw_mutexEEEEC1INS_9parameter3aux15tagged_argumentINS1_8keywords3tag8severityEKS6_EEEERKT_
   fun:_ZN5boost3log12v2s_mt_posix7sources21basic_severity_loggerINS2_12basic_loggerIcNS2_18severity_logger_mtINS1_7trivial14severity_levelEEENS2_18multi_thread_modelINS1_3aux14light_rw_mutexEEEEES7_EC1INS_9parameter3aux15tagged_argumentINS1_8keywords3tag8severityEKS7_EEEERKT_
   fun:_ZN5boost3log12v2s_mt_posix7sources22basic_composite_loggerIcNS2_18severity_logger_mtINS1_7trivial14severity_levelEEENS2_18multi_thread_modelINS1_3aux14light_rw_mutexEEENS2_8featuresIJNS2_8severityIS6_EEEEEEC1INS_9parameter3aux15tagged_argumentINS1_8keywords3tag8severityEKS6_EEEERKT_
   fun:_ZN5boost3log12v2s_mt_posix7sources18severity_logger_mtINS1_7trivial14severity_levelEEC1INS_9parameter3aux15tagged_argumentINS1_8keywords3tag8severityEKS5_EEEERKT_NS_11enable_if_cIXsrNS_3mpl3or_INS_10is_base_ofINS9_20tagged_argument_baseESG_EENSM_INS9_14empty_arg_listESG_EEN4mpl_5bool_ILb0EEEST_ST_EE5valueENS1_3aux12sfinae_dummyEE4typeE
}
{
   <insert_a_suppression_name_here>
   Memcheck:Leak
   match-leak-kinds: reachable
   fun:_Znwm
   fun:_ZN9__gnu_cxx13new_allocatorIN5boost3log12v2s_mt_posix13attribute_set4nodeEE8allocateEmPKv
   fun:_ZN5boost3log12v2s_mt_posix14pool_allocatorINS1_13attribute_set4nodeEE8allocateEmPKv
   fun:_ZN5boost3log12v2s_mt_posix13attribute_set14implementation6insertENS1_14attribute_nameERKNS1_9attributeE
   fun:_ZN5boost3log12v2s_mt_posix13attribute_set6insertENS1_14attribute_nameERKNS1_9attributeE
   fun:_ZN5boost3log12v2s_mt_posix7sources12basic_loggerIcNS2_18severity_logger_mtINS1_7trivial14severity_levelEEENS2_18multi_thread_modelINS1_3aux14light_rw_mutexEEEE22add_attribute_unlockedERKNS1_14attribute_nameERKNS1_9attributeE
   fun:_ZN5boost3log12v2s_mt_posix7sources21basic_severity_loggerINS2_12basic_loggerIcNS2_18severity_logger_mtINS1_7trivial14severity_levelEEENS2_18multi_thread_modelINS1_3aux14light_rw_mutexEEEEES7_EC1INS_9parameter3aux15tagged_argumentINS1_8keywords3tag8severityEKS7_EEEERKT_
   fun:_ZN5boost3log12v2s_mt_posix7sources22basic_composite_loggerIcNS2_18severity_logger_mtINS1_7trivial14severity_levelEEENS2_18multi_thread_modelINS1_3aux14light_rw_mutexEEENS2_8featuresIJNS2_8severityIS6_EEEEEEC1INS_9parameter3aux15tagged_argumentINS1_8keywords3tag8severityEKS6_EEEERKT_
   fun:_ZN5boost3log12v2s_mt_posix7sources18severity_logger_mtINS1_7trivial14severity_levelEEC1INS_9parameter3aux15tagged_argumentINS1_8keywords3tag8severityEKS5_EEEERKT_NS_11enable_if_cIXsrNS_3mpl3or_INS_10is_base_ofINS9_20tagged_argument_baseESG_EENSM_INS9_14empty_arg_listESG_EEN4mpl_5bool_ILb0EEEST_ST_EE5valueENS1_3aux12sfinae_dummyEE4typeE
   fun:_ZN5boost3log12v2s_mt_posix7trivial6logger16construct_loggerEv
   fun:_ZN5boost3log12v2s_mt_posix7sources3aux16logger_singletonINS1_7trivial6loggerEE16construct_loggerEv
   fun:_ZN5boost3log12v2s_mt_posix7sources3aux14global_storage11get_or_initENS_9typeindex14stl_type_indexEPFNS_10shared_ptrINS3_18logger_holder_baseEEEvE
}
{
   <insert_a_suppression_name_here>
   Memcheck:Leak
   match-leak-kinds: reachable
   fun:_Znwm
   fun:_ZNSt14_Function_base13_Base_managerISt5_BindIFMN3bzn5chaosEFvRKN5boost6system10error_codeEESt10shared_ptrIS3_ESt12_PlaceholderILi1EEEEE8_M_cloneERSt9_Any_dataRKSI_St17integral_constantIbLb0EE
   fun:_ZNSt14_Function_base13_Base_managerISt5_BindIFMN3bzn5chaosEFvRKN5boost6system10error_codeEESt10shared_ptrIS3_ESt12_PlaceholderILi1EEEEE10_M_managerERSt9_Any_dataRKSI_St18_Manager_operation
   fun:_ZNSt8functionIFvRKN5boost6system10error_codeEEEC1ERKS6_
   fun:_ZNSt8functionIFvRKN5boost6system10error_codeEEEaSERKS6_
   fun:_ZZN10chaos_testC4EvENKUlT_E1_clISt8functionIFvRKN5boost6system10error_codeEEEEEDaS0_
   fun:_ZN7testing8internal12InvokeHelperIvSt5tupleIJSt8functionIFvRKN5boost6system10error_codeEEEEEE6InvokeIZN10chaos_testC4EvEUlT_E1_EEvSF_RKSB_
   fun:_ZN7testing8internal12InvokeActionIZN10chaos_testC4EvEUlT_E1_E7PerformIvSt5tupleIJSt8functionIFvRKN5boost6system10error_codeEEEEEEES3_RKT0_
   fun:_ZN7testing17PolymorphicActionINS_8internal12InvokeActionIZN10chaos_testC4EvEUlT_E1_EEE15MonomorphicImplIFvSt8functionIFvRKN5boost6system10error_codeEEEEE7PerformERKSt5tupleIJSG_EE
   fun:_ZNK7testing6ActionIFvSt8functionIFvRKN5boost6system10error_codeEEEEE7PerformERKSt5tupleIJS8_EE
   fun:_ZN7testing8internal18ActionResultHolderIvE13PerformActionIFvSt8functionIFvRKN5boost6system10error_codeEEEEEEPS2_RKNS_6ActionIT_EERKNS0_8FunctionISF_E13ArgumentTupleE
   fun:_ZNK7testing8internal18FunctionMockerBaseIFvSt8functionIFvRKN5boost6system10error_codeEEEEE20UntypedPerformActionEPKvSD_
}
{
   <insert_a_suppression_name_here>
   Memcheck:Leak
   match-leak-kinds: reachable
   fun:realloc
   fun:re_node_set_merge
   fun:calc_eclosure_iter
   fun:calc_eclosure_iter
   fun:calc_eclosure_iter
   fun:calc_eclosure
   fun:analyze
   fun:re_compile_internal
   fun:regcomp
   fun:_ZN7testing8internal2RE4InitEPKc
   fun:_ZN7testing8internal2REC1EPKc
   fun:_ZN59chaos_test_DeathTest_test_crash_scheduled_and_executed_Test8TestBodyEv
   fun:_ZN7testing8internal38HandleSehExceptionsInMethodIfSupportedINS_4TestEvEET0_PT_MS4_FS3_vEPKc
   fun:_ZN7testing8internal35HandleExceptionsInMethodIfSupportedINS_4TestEvEET0_PT_MS4_FS3_vEPKc
   fun:_ZN7testing4Test3RunEv
}
{
   <insert_a_suppression_name_here>
   Memcheck:Leak
   match-leak-kinds: reachable
   fun:realloc
   fun:re_node_set_merge
   fun:calc_eclosure_iter
   fun:calc_eclosure
   fun:analyze
   fun:re_compile_internal
   fun:regcomp
   fun:_ZN7testing8internal2RE4InitEPKc
   fun:_ZN7testing8internal2REC1EPKc
   fun:_ZN59chaos_test_DeathTest_test_crash_scheduled_and_executed_Test8TestBodyEv
   fun:_ZN7testing8internal38HandleSehExceptionsInMethodIfSupportedINS_4TestEvEET0_PT_MS4_FS3_vEPKc
   fun:_ZN7testing8internal35HandleExceptionsInMethodIfSupportedINS_4TestEvEET0_PT_MS4_FS3_vEPKc
   fun:_ZN7testing4Test3RunEv
   fun:_ZN7testing8TestInfo3RunEv
   fun:_ZN7testing8TestCase3RunEv
}
{
   <insert_a_suppression_name_here>
   Memcheck:Leak
   match-leak-kinds: reachable
   fun:_Znwm
   fun:_ZN5boost3anyC1IdEEOT_PNS_10disable_ifINS_7is_sameIRS0_S2_EEvE4typeEPNS4_INS_8is_constIS2_EEvE4typeE
   fun:_ZN5boost15program_options8validateIdcEEvRNS_3anyERKSt6vectorINSt7__cxx1112basic_stringIT0_St11char_traitsIS7_ESaIS7_EEESaISB_EEPT_l
   fun:_ZNK5boost15program_options11typed_valueIdcE6xparseERNS_3anyERKSt6vectorINSt7__cxx1112basic_stringIcSt11char_traitsIcESaIcEEESaISB_EE
   fun:_ZNK5boost15program_options29value_semantic_codecvt_helperIcE5parseERNS_3anyERKSt6vectorINSt7__cxx1112basic_stringIcSt11char_traitsIcESaIcEEESaISB_EEb
   fun:_ZN5boost15program_options5storeERKNS0_20basic_parsed_optionsIcEERNS0_13variables_mapEb
   fun:_ZN3bzn14simple_options15combine_optionsEv
   fun:_ZN3bzn14simple_options3setERKNSt7__cxx1112basic_stringIcSt11char_traitsIcESaIcEEES8_
   fun:_ZN10chaos_testC1Ev
   fun:_ZN59chaos_test_DeathTest_test_crash_scheduled_and_executed_TestC1Ev
   fun:_ZN7testing8internal15TestFactoryImplI59chaos_test_DeathTest_test_crash_scheduled_and_executed_TestE10CreateTestEv
   fun:_ZN7testing8internal38HandleSehExceptionsInMethodIfSupportedINS0_15TestFactoryBaseEPNS_4TestEEET0_PT_MS6_FS5_vEPKc
}
{
   <insert_a_suppression_name_here>
   Memcheck:Leak
   match-leak-kinds: reachable
   fun:_Znwm
   fun:_ZNK5boost3any6holderIdE5cloneEv
   fun:_ZN5boost3anyC1ERKS0_
   fun:_ZN5boost15program_options14variable_valueC1ERKNS_3anyEb
   fun:_ZN5boost15program_options5storeERKNS0_20basic_parsed_optionsIcEERNS0_13variables_mapEb
   fun:_ZN3bzn14simple_options15combine_optionsEv
   fun:_ZN3bzn14simple_options3setERKNSt7__cxx1112basic_stringIcSt11char_traitsIcESaIcEEES8_
   fun:_ZN10chaos_testC1Ev
   fun:_ZN59chaos_test_DeathTest_test_crash_scheduled_and_executed_TestC1Ev
   fun:_ZN7testing8internal15TestFactoryImplI59chaos_test_DeathTest_test_crash_scheduled_and_executed_TestE10CreateTestEv
   fun:_ZN7testing8internal38HandleSehExceptionsInMethodIfSupportedINS0_15TestFactoryBaseEPNS_4TestEEET0_PT_MS6_FS5_vEPKc
   fun:_ZN7testing8internal35HandleExceptionsInMethodIfSupportedINS0_15TestFactoryBaseEPNS_4TestEEET0_PT_MS6_FS5_vEPKc
}
{
   <insert_a_suppression_name_here>
   Memcheck:Leak
   match-leak-kinds: reachable
   fun:_Znwm
   fun:_ZN9__gnu_cxx13new_allocatorIcE8allocateEmPKv
   fun:_ZNSt16allocator_traitsISaIcEE8allocateERS0_m
   fun:_ZNSt7__cxx1112basic_stringIcSt11char_traitsIcESaIcEE9_M_createERmm
   fun:_ZNSt7__cxx1112basic_stringIcSt11char_traitsIcESaIcEE12_M_constructIPcEEvT_S7_St20forward_iterator_tag
   fun:_ZNSt7__cxx1112basic_stringIcSt11char_traitsIcESaIcEE16_M_construct_auxIPcEEvT_S7_St12__false_type
   fun:_ZNSt7__cxx1112basic_stringIcSt11char_traitsIcESaIcEE12_M_constructIPcEEvT_S7_
   fun:_ZNSt7__cxx1112basic_stringIcSt11char_traitsIcESaIcEEC1ERKS4_
   fun:_ZNSt4pairIKNSt7__cxx1112basic_stringIcSt11char_traitsIcESaIcEEES5_EC1IJRS6_EJLm0EEJEJEEERSt5tupleIJDpT_EERSA_IJDpT1_EESt12_Index_tupleIJXspT0_EEESJ_IJXspT2_EEE
   fun:_ZNSt4pairIKNSt7__cxx1112basic_stringIcSt11char_traitsIcESaIcEEES5_EC1IJRS6_EJEEESt21piecewise_construct_tSt5tupleIJDpT_EESB_IJDpT0_EE
   fun:_ZN9__gnu_cxx13new_allocatorISt13_Rb_tree_nodeISt4pairIKNSt7__cxx1112basic_stringIcSt11char_traitsIcESaIcEEES8_EEE9constructISA_JRKSt21piecewise_construct_tSt5tupleIJRS9_EESH_IJEEEEEvPT_DpOT0_
   fun:_ZNSt16allocator_traitsISaISt13_Rb_tree_nodeISt4pairIKNSt7__cxx1112basic_stringIcSt11char_traitsIcESaIcEEES7_EEEE9constructIS9_JRKSt21piecewise_construct_tSt5tupleIJRS8_EESH_IJEEEEEvRSB_PT_DpOT0_
}
{
   <insert_a_suppression_name_here>
   Memcheck:Leak
   match-leak-kinds: reachable
   fun:_Znwm
   fun:_ZN7testing18TestEventListenersC1Ev
   fun:_ZN7testing8internal12UnitTestImplC1EPNS_8UnitTestE
   fun:_ZN7testing8UnitTestC1Ev
   fun:_ZN7testing8UnitTest11GetInstanceEv
   fun:_ZN7testing8internal15GetUnitTestImplEv
   fun:_ZN7testing8internal23MakeAndRegisterTestInfoEPKcS2_S2_S2_NS0_12CodeLocationEPKvPFvvES7_PNS0_15TestFactoryBaseE
   fun:_Z41__static_initialization_and_destruction_0ii
   fun:_GLOBAL__sub_I__ZN59chaos_test_DeathTest_test_crash_scheduled_and_executed_Test10test_info_E
   fun:__libc_csu_init
   fun:(below main)
}
{
   <insert_a_suppression_name_here>
   Memcheck:Leak
   match-leak-kinds: reachable
   fun:_Znwm
   fun:_ZN9__gnu_cxx13new_allocatorIcE8allocateEmPKv
   fun:_ZNSt16allocator_traitsISaIcEE8allocateERS0_m
   fun:_ZNSt7__cxx1112basic_stringIcSt11char_traitsIcESaIcEE9_M_createERmm
   fun:_ZNSt7__cxx1112basic_stringIcSt11char_traitsIcESaIcEE9_M_assignERKS4_
   fun:_ZNSt7__cxx1112basic_stringIcSt11char_traitsIcESaIcEE6assignERKS4_
   fun:_ZNSt7__cxx1112basic_stringIcSt11char_traitsIcESaIcEEaSERKS4_
   fun:_ZN7testing8internal8FilePath3SetERKS1_
   fun:_ZN7testing8internal12UnitTestImpl11AddTestInfoEPFvvES3_PNS_8TestInfoE
   fun:_ZN7testing8internal23MakeAndRegisterTestInfoEPKcS2_S2_S2_NS0_12CodeLocationEPKvPFvvES7_PNS0_15TestFactoryBaseE
   fun:_Z41__static_initialization_and_destruction_0ii
   fun:_GLOBAL__sub_I__ZN59chaos_test_DeathTest_test_crash_scheduled_and_executed_Test10test_info_E
}
{
   <insert_a_suppression_name_here>
   Memcheck:Leak
   match-leak-kinds: reachable
   fun:_Znwm
   fun:_ZN9__gnu_cxx13new_allocatorISt13_Rb_tree_nodeIPN7testing8internal25UntypedFunctionMockerBaseEEE8allocateEmPKv
   fun:_ZNSt16allocator_traitsISaISt13_Rb_tree_nodeIPN7testing8internal25UntypedFunctionMockerBaseEEEE8allocateERS6_m
   fun:_ZNSt8_Rb_treeIPN7testing8internal25UntypedFunctionMockerBaseES3_St9_IdentityIS3_ESt4lessIS3_ESaIS3_EE11_M_get_nodeEv
   fun:_ZNSt8_Rb_treeIPN7testing8internal25UntypedFunctionMockerBaseES3_St9_IdentityIS3_ESt4lessIS3_ESaIS3_EE14_M_create_nodeIJRKS3_EEEPSt13_Rb_tree_nodeIS3_EDpOT_
   fun:_ZNKSt8_Rb_treeIPN7testing8internal25UntypedFunctionMockerBaseES3_St9_IdentityIS3_ESt4lessIS3_ESaIS3_EE11_Alloc_nodeclIRKS3_EEPSt13_Rb_tree_nodeIS3_EOT_
   fun:_ZNSt8_Rb_treeIPN7testing8internal25UntypedFunctionMockerBaseES3_St9_IdentityIS3_ESt4lessIS3_ESaIS3_EE10_M_insert_IRKS3_NS9_11_Alloc_nodeEEESt17_Rb_tree_iteratorIS3_EPSt18_Rb_tree_node_baseSH_OT_RT0_
   fun:_ZNSt8_Rb_treeIPN7testing8internal25UntypedFunctionMockerBaseES3_St9_IdentityIS3_ESt4lessIS3_ESaIS3_EE16_M_insert_uniqueIRKS3_EESt4pairISt17_Rb_tree_iteratorIS3_EbEOT_
   fun:_ZNSt3setIPN7testing8internal25UntypedFunctionMockerBaseESt4lessIS3_ESaIS3_EE6insertERKS3_
   fun:_ZN7testing4Mock8RegisterEPKvPNS_8internal25UntypedFunctionMockerBaseE
   fun:_ZN7testing8internal25UntypedFunctionMockerBase13RegisterOwnerEPKv
   fun:_ZN3bzn4asio19Mockio_context_base30gmock_make_unique_steady_timerEv
}
{
   <insert_a_suppression_name_here>
   Memcheck:Leak
   match-leak-kinds: reachable
   fun:_Znwm
   fun:_ZN5boost3anyC1INSt7__cxx1112basic_stringIcSt11char_traitsIcESaIcEEEEERKT_
   fun:_ZN5boost15program_options11typed_valueINSt7__cxx1112basic_stringIcSt11char_traitsIcESaIcEEEcE13default_valueERKS7_
   fun:_ZN3bzn14simple_options13build_optionsEv
   fun:_ZN3bzn14simple_optionsC1Ev
   fun:_ZN3bzn7optionsC1Ev
   fun:_ZN9__gnu_cxx13new_allocatorIN3bzn7optionsEE9constructIS2_JEEEvPT_DpOT0_
   fun:_ZNSt16allocator_traitsISaIN3bzn7optionsEEE9constructIS1_JEEEvRS2_PT_DpOT0_
   fun:_ZNSt23_Sp_counted_ptr_inplaceIN3bzn7optionsESaIS1_ELN9__gnu_cxx12_Lock_policyE2EEC1IJEEES2_DpOT_
   fun:_ZNSt14__shared_countILN9__gnu_cxx12_Lock_policyE2EEC1IN3bzn7optionsESaIS5_EJEEESt19_Sp_make_shared_tagPT_RKT0_DpOT1_
   fun:_ZNSt12__shared_ptrIN3bzn7optionsELN9__gnu_cxx12_Lock_policyE2EEC1ISaIS1_EJEEESt19_Sp_make_shared_tagRKT_DpOT0_
   fun:_ZNSt10shared_ptrIN3bzn7optionsEEC1ISaIS1_EJEEESt19_Sp_make_shared_tagRKT_DpOT0_
}
{
   <insert_a_suppression_name_here>
   Memcheck:Leak
   match-leak-kinds: reachable
   fun:realloc
   fun:re_dfa_add_node
   fun:duplicate_node
   fun:duplicate_node_closure
   fun:calc_eclosure_iter
   fun:calc_eclosure
   fun:analyze
   fun:re_compile_internal
   fun:regcomp
   fun:_ZN7testing8internal2RE4InitEPKc
   fun:_ZN7testing8internal2REC1EPKc
   fun:_ZN59chaos_test_DeathTest_test_crash_scheduled_and_executed_Test8TestBodyEv
   fun:_ZN7testing8internal38HandleSehExceptionsInMethodIfSupportedINS_4TestEvEET0_PT_MS4_FS3_vEPKc
   fun:_ZN7testing8internal35HandleExceptionsInMethodIfSupportedINS_4TestEvEET0_PT_MS4_FS3_vEPKc
   fun:_ZN7testing4Test3RunEv
}
{
   <insert_a_suppression_name_here>
   Memcheck:Leak
   match-leak-kinds: reachable
   fun:_Znwm
   fun:_ZN7testing8internal13CaptureStreamEiPKcPPNS0_14CapturedStreamE
   fun:_ZN7testing8internal13CaptureStderrEv
   fun:_ZN7testing8internal15NoExecDeathTest10AssumeRoleEv
   fun:_ZN59chaos_test_DeathTest_test_crash_scheduled_and_executed_Test8TestBodyEv
   fun:_ZN7testing8internal38HandleSehExceptionsInMethodIfSupportedINS_4TestEvEET0_PT_MS4_FS3_vEPKc
   fun:_ZN7testing8internal35HandleExceptionsInMethodIfSupportedINS_4TestEvEET0_PT_MS4_FS3_vEPKc
   fun:_ZN7testing4Test3RunEv
   fun:_ZN7testing8TestInfo3RunEv
   fun:_ZN7testing8TestCase3RunEv
   fun:_ZN7testing8internal12UnitTestImpl11RunAllTestsEv
   fun:_ZN7testing8internal38HandleSehExceptionsInMethodIfSupportedINS0_12UnitTestImplEbEET0_PT_MS4_FS3_vEPKc
}
{
   <insert_a_suppression_name_here>
   Memcheck:Leak
   match-leak-kinds: reachable
   fun:_Znwm
   fun:_ZN9__gnu_cxx13new_allocatorIcE8allocateEmPKv
   fun:_ZNSt16allocator_traitsISaIcEE8allocateERS0_m
   fun:_ZNSt7__cxx1112basic_stringIcSt11char_traitsIcESaIcEE9_M_createERmm
   fun:_ZNSt7__cxx1112basic_stringIcSt11char_traitsIcESaIcEE12_M_constructIPcEEvT_S7_St20forward_iterator_tag
   fun:_ZNSt7__cxx1112basic_stringIcSt11char_traitsIcESaIcEE16_M_construct_auxIPcEEvT_S7_St12__false_type
   fun:_ZNSt7__cxx1112basic_stringIcSt11char_traitsIcESaIcEE12_M_constructIPcEEvT_S7_
   fun:_ZNSt7__cxx1112basic_stringIcSt11char_traitsIcESaIcEEC1ERKS4_
   fun:_ZN5boost3any6holderINSt7__cxx1112basic_stringIcSt11char_traitsIcESaIcEEEEC1ERKS7_
   fun:_ZNK5boost3any6holderINSt7__cxx1112basic_stringIcSt11char_traitsIcESaIcEEEE5cloneEv
   fun:_ZN5boost3anyC1ERKS0_
   fun:_ZN5boost15program_options14variable_valueC1ERKNS_3anyEb
}
{
   <insert_a_suppression_name_here>
   Memcheck:Leak
   match-leak-kinds: reachable
   fun:_Znwm
   fun:_ZN9__gnu_cxx13new_allocatorISt13_Rb_tree_nodeISt4pairIKPKvN7testing8internal12CallReactionEEEE8allocateEmS4_
   fun:_ZNSt16allocator_traitsISaISt13_Rb_tree_nodeISt4pairIKPKvN7testing8internal12CallReactionEEEEE8allocateERSA_m
   fun:_ZNSt8_Rb_treeIPKvSt4pairIKS1_N7testing8internal12CallReactionEESt10_Select1stIS7_ESt4lessIS1_ESaIS7_EE11_M_get_nodeEv
   fun:_ZNSt8_Rb_treeIPKvSt4pairIKS1_N7testing8internal12CallReactionEESt10_Select1stIS7_ESt4lessIS1_ESaIS7_EE14_M_create_nodeIJRKSt21piecewise_construct_tSt5tupleIJRS3_EESI_IJEEEEEPSt13_Rb_tree_nodeIS7_EDpOT_
   fun:_ZNSt8_Rb_treeIPKvSt4pairIKS1_N7testing8internal12CallReactionEESt10_Select1stIS7_ESt4lessIS1_ESaIS7_EE22_M_emplace_hint_uniqueIJRKSt21piecewise_construct_tSt5tupleIJRS3_EESI_IJEEEEESt17_Rb_tree_iteratorIS7_ESt23_Rb_tree_const_iteratorIS7_EDpOT_
   fun:_ZNSt3mapIPKvN7testing8internal12CallReactionESt4lessIS1_ESaISt4pairIKS1_S4_EEEixERS8_
   fun:_ZN7testing12_GLOBAL__N_131SetReactionOnUninterestingCallsEPKvNS_8internal12CallReactionE
   fun:_ZN7testing4Mock23AllowUninterestingCallsEPKv
   fun:_ZN7testing8NiceMockIN3bzn4asio19Mockio_context_baseEEC1Ev
   fun:_ZN9__gnu_cxx13new_allocatorIN7testing8NiceMockIN3bzn4asio19Mockio_context_baseEEEE9constructIS6_JEEEvPT_DpOT0_
   fun:_ZNSt16allocator_traitsISaIN7testing8NiceMockIN3bzn4asio19Mockio_context_baseEEEEE9constructIS5_JEEEvRS6_PT_DpOT0_
}
{
   <insert_a_suppression_name_here>
   Memcheck:Leak
   match-leak-kinds: reachable
   fun:_Znwm
   fun:_ZN9__gnu_cxx13new_allocatorISt13_Rb_tree_nodeISt4pairIKPKvN7testing8internal12CallReactionEEEE8allocateEmS4_
   fun:_ZNSt16allocator_traitsISaISt13_Rb_tree_nodeISt4pairIKPKvN7testing8internal12CallReactionEEEEE8allocateERSA_m
   fun:_ZNSt8_Rb_treeIPKvSt4pairIKS1_N7testing8internal12CallReactionEESt10_Select1stIS7_ESt4lessIS1_ESaIS7_EE11_M_get_nodeEv
   fun:_ZNSt8_Rb_treeIPKvSt4pairIKS1_N7testing8internal12CallReactionEESt10_Select1stIS7_ESt4lessIS1_ESaIS7_EE14_M_create_nodeIJRKSt21piecewise_construct_tSt5tupleIJRS3_EESI_IJEEEEEPSt13_Rb_tree_nodeIS7_EDpOT_
   fun:_ZNSt8_Rb_treeIPKvSt4pairIKS1_N7testing8internal12CallReactionEESt10_Select1stIS7_ESt4lessIS1_ESaIS7_EE22_M_emplace_hint_uniqueIJRKSt21piecewise_construct_tSt5tupleIJRS3_EESI_IJEEEEESt17_Rb_tree_iteratorIS7_ESt23_Rb_tree_const_iteratorIS7_EDpOT_
   fun:_ZNSt3mapIPKvN7testing8internal12CallReactionESt4lessIS1_ESaISt4pairIKS1_S4_EEEixERS8_
   fun:_ZN7testing12_GLOBAL__N_131SetReactionOnUninterestingCallsEPKvNS_8internal12CallReactionE
   fun:_ZN7testing4Mock23AllowUninterestingCallsEPKv
   fun:_ZN7testing8NiceMockIN3bzn4asio21Mocksteady_timer_baseEEC1Ev
   fun:_ZSt11make_uniqueIN7testing8NiceMockIN3bzn4asio21Mocksteady_timer_baseEEEJEENSt9_MakeUniqIT_E15__single_objectEDpOT0_
   fun:_ZN10chaos_testC1Ev
}
{
   <insert_a_suppression_name_here>
   Memcheck:Leak
   match-leak-kinds: reachable
   fun:_Znwm
   fun:_ZN9__gnu_cxx13new_allocatorIN5boost10shared_ptrINS1_15program_options18option_descriptionEEEE8allocateEmPKv
   fun:_ZNSt16allocator_traitsISaIN5boost10shared_ptrINS0_15program_options18option_descriptionEEEEE8allocateERS5_m
   fun:_ZNSt12_Vector_baseIN5boost10shared_ptrINS0_15program_options18option_descriptionEEESaIS4_EE11_M_allocateEm
   fun:_ZNSt12_Vector_baseIN5boost10shared_ptrINS0_15program_options18option_descriptionEEESaIS4_EE17_M_create_storageEm
   fun:_ZNSt12_Vector_baseIN5boost10shared_ptrINS0_15program_options18option_descriptionEEESaIS4_EEC1EmRKS5_
   fun:_ZNSt6vectorIN5boost10shared_ptrINS0_15program_options18option_descriptionEEESaIS4_EEC1ERKS6_
   fun:_ZN5boost15program_options19options_descriptionC1ERKS1_
   fun:_ZN5boost15program_options19options_description3addERKS1_
   fun:_ZN3bzn14simple_options13build_optionsEv
   fun:_ZN3bzn14simple_optionsC1Ev
   fun:_ZN3bzn7optionsC1Ev
}
{
   <insert_a_suppression_name_here>
   Memcheck:Leak
   match-leak-kinds: reachable
   fun:malloc
   fun:init_dfa
   fun:re_compile_internal
   fun:regcomp
   fun:_ZN7testing8internal2RE4InitEPKc
   fun:_ZN7testing8internal2REC1EPKc
   fun:_ZN59chaos_test_DeathTest_test_crash_scheduled_and_executed_Test8TestBodyEv
   fun:_ZN7testing8internal38HandleSehExceptionsInMethodIfSupportedINS_4TestEvEET0_PT_MS4_FS3_vEPKc
   fun:_ZN7testing8internal35HandleExceptionsInMethodIfSupportedINS_4TestEvEET0_PT_MS4_FS3_vEPKc
   fun:_ZN7testing4Test3RunEv
   fun:_ZN7testing8TestInfo3RunEv
   fun:_ZN7testing8TestCase3RunEv
   fun:_ZN7testing8internal12UnitTestImpl11RunAllTestsEv
}
{
   <insert_a_suppression_name_here>
   Memcheck:Leak
   match-leak-kinds: reachable
   fun:_Znwm
   fun:_ZN7testing8internal23DefaultDeathTestFactory6CreateEPKcPKNS0_2REES3_iPPNS0_9DeathTestE
   fun:_ZN7testing8internal9DeathTest6CreateEPKcPKNS0_2REES3_iPPS1_
   fun:_ZN59chaos_test_DeathTest_test_crash_scheduled_and_executed_Test8TestBodyEv
   fun:_ZN7testing8internal38HandleSehExceptionsInMethodIfSupportedINS_4TestEvEET0_PT_MS4_FS3_vEPKc
   fun:_ZN7testing8internal35HandleExceptionsInMethodIfSupportedINS_4TestEvEET0_PT_MS4_FS3_vEPKc
   fun:_ZN7testing4Test3RunEv
   fun:_ZN7testing8TestInfo3RunEv
   fun:_ZN7testing8TestCase3RunEv
   fun:_ZN7testing8internal12UnitTestImpl11RunAllTestsEv
   fun:_ZN7testing8internal38HandleSehExceptionsInMethodIfSupportedINS0_12UnitTestImplEbEET0_PT_MS4_FS3_vEPKc
   fun:_ZN7testing8internal35HandleExceptionsInMethodIfSupportedINS0_12UnitTestImplEbEET0_PT_MS4_FS3_vEPKc
}
{
   <insert_a_suppression_name_here>
   Memcheck:Leak
   match-leak-kinds: reachable
   fun:_Znwm
   fun:_ZNK5boost3any6holderImE5cloneEv
   fun:_ZN5boost3anyC1ERKS0_
   fun:_ZN5boost15program_options14variable_valueC1ERKNS_3anyEb
   fun:_ZN5boost15program_options5storeERKNS0_20basic_parsed_optionsIcEERNS0_13variables_mapEb
   fun:_ZN3bzn14simple_options15combine_optionsEv
   fun:_ZN3bzn14simple_options3setERKNSt7__cxx1112basic_stringIcSt11char_traitsIcESaIcEEES8_
   fun:_ZN10chaos_testC1Ev
   fun:_ZN59chaos_test_DeathTest_test_crash_scheduled_and_executed_TestC1Ev
   fun:_ZN7testing8internal15TestFactoryImplI59chaos_test_DeathTest_test_crash_scheduled_and_executed_TestE10CreateTestEv
   fun:_ZN7testing8internal38HandleSehExceptionsInMethodIfSupportedINS0_15TestFactoryBaseEPNS_4TestEEET0_PT_MS6_FS5_vEPKc
   fun:_ZN7testing8internal35HandleExceptionsInMethodIfSupportedINS0_15TestFactoryBaseEPNS_4TestEEET0_PT_MS6_FS5_vEPKc
}
{
   <insert_a_suppression_name_here>
   Memcheck:Leak
   match-leak-kinds: reachable
   fun:_Znwm
   fun:_ZN9__gnu_cxx13new_allocatorIcE8allocateEmPKv
   fun:_ZNSt16allocator_traitsISaIcEE8allocateERS0_m
   fun:_ZNSt7__cxx1112basic_stringIcSt11char_traitsIcESaIcEE9_M_createERmm
   fun:_ZNSt7__cxx1112basic_stringIcSt11char_traitsIcESaIcEE12_M_constructIPcEEvT_S7_St20forward_iterator_tag
   fun:_ZNSt7__cxx1112basic_stringIcSt11char_traitsIcESaIcEE16_M_construct_auxIPcEEvT_S7_St12__false_type
   fun:_ZNSt7__cxx1112basic_stringIcSt11char_traitsIcESaIcEE12_M_constructIPcEEvT_S7_
   fun:_ZNSt7__cxx1112basic_stringIcSt11char_traitsIcESaIcEEC1ERKS4_
   fun:_ZN7testing8internal12CodeLocationC1ERKS1_
   fun:_ZN7testing8TestInfoC1ERKNSt7__cxx1112basic_stringIcSt11char_traitsIcESaIcEEES8_PKcSA_NS_8internal12CodeLocationEPKvPNSB_15TestFactoryBaseE
   fun:_ZN7testing8internal23MakeAndRegisterTestInfoEPKcS2_S2_S2_NS0_12CodeLocationEPKvPFvvES7_PNS0_15TestFactoryBaseE
   fun:_Z41__static_initialization_and_destruction_0ii
}
{
   <insert_a_suppression_name_here>
   Memcheck:Leak
   match-leak-kinds: reachable
   fun:_Znwm
   fun:_ZN5boost16exception_detail27get_static_exception_objectINS0_10bad_alloc_EEENS_13exception_ptrEv
   fun:_Z41__static_initialization_and_destruction_0ii
   fun:_GLOBAL__sub_I__ZN5boost6detail16thread_data_baseD2Ev
   fun:__libc_csu_init
   fun:(below main)
}
{
   <insert_a_suppression_name_here>
   Memcheck:Leak
   match-leak-kinds: reachable
   fun:_Znwm
   fun:_ZN5boost16exception_detail27get_static_exception_objectINS0_14bad_exception_EEENS_13exception_ptrEv
   fun:_Z41__static_initialization_and_destruction_0ii
   fun:_GLOBAL__sub_I__ZN5boost6detail16thread_data_baseD2Ev
   fun:__libc_csu_init
   fun:(below main)
}
{
   <insert_a_suppression_name_here>
   Memcheck:Leak
   match-leak-kinds: reachable
   fun:_Znwm
   fun:_ZN9__gnu_cxx13new_allocatorIPNSt8__detail15_Hash_node_baseEE8allocateEmPKv
   fun:_ZNSt16allocator_traitsISaIPNSt8__detail15_Hash_node_baseEEE8allocateERS3_m
   fun:_ZNSt8__detail16_Hashtable_allocISaINS_10_Hash_nodeISt4pairIKNSt7__cxx1112basic_stringIcSt11char_traitsIcESaIcEEES8_ELb1EEEEE19_M_allocate_bucketsEm
   fun:_ZNSt10_HashtableINSt7__cxx1112basic_stringIcSt11char_traitsIcESaIcEEESt4pairIKS5_S5_ESaIS8_ENSt8__detail10_Select1stESt8equal_toIS5_ESt4hashIS5_ENSA_18_Mod_range_hashingENSA_20_Default_ranged_hashENSA_20_Prime_rehash_policyENSA_17_Hashtable_traitsILb1ELb0ELb1EEEE19_M_allocate_bucketsEm
   fun:_ZNSt10_HashtableINSt7__cxx1112basic_stringIcSt11char_traitsIcESaIcEEESt4pairIKS5_S5_ESaIS8_ENSt8__detail10_Select1stESt8equal_toIS5_ESt4hashIS5_ENSA_18_Mod_range_hashingENSA_20_Default_ranged_hashENSA_20_Prime_rehash_policyENSA_17_Hashtable_traitsILb1ELb0ELb1EEEE13_M_rehash_auxEmSt17integral_constantIbLb1EE
   fun:_ZNSt10_HashtableINSt7__cxx1112basic_stringIcSt11char_traitsIcESaIcEEESt4pairIKS5_S5_ESaIS8_ENSt8__detail10_Select1stESt8equal_toIS5_ESt4hashIS5_ENSA_18_Mod_range_hashingENSA_20_Default_ranged_hashENSA_20_Prime_rehash_policyENSA_17_Hashtable_traitsILb1ELb0ELb1EEEE9_M_rehashEmRKm
   fun:_ZNSt10_HashtableINSt7__cxx1112basic_stringIcSt11char_traitsIcESaIcEEESt4pairIKS5_S5_ESaIS8_ENSt8__detail10_Select1stESt8equal_toIS5_ESt4hashIS5_ENSA_18_Mod_range_hashingENSA_20_Default_ranged_hashENSA_20_Prime_rehash_policyENSA_17_Hashtable_traitsILb1ELb0ELb1EEEE21_M_insert_unique_nodeEmmPNSA_10_Hash_nodeIS8_Lb1EEE
   fun:_ZNSt8__detail9_Map_baseINSt7__cxx1112basic_stringIcSt11char_traitsIcESaIcEEESt4pairIKS6_S6_ESaIS9_ENS_10_Select1stESt8equal_toIS6_ESt4hashIS6_ENS_18_Mod_range_hashingENS_20_Default_ranged_hashENS_20_Prime_rehash_policyENS_17_Hashtable_traitsILb1ELb0ELb1EEELb1EEixERS8_
   fun:_ZNSt13unordered_mapINSt7__cxx1112basic_stringIcSt11char_traitsIcESaIcEEES5_St4hashIS5_ESt8equal_toIS5_ESaISt4pairIKS5_S5_EEEixERSB_
   fun:_ZN3bzn14simple_options3setERKNSt7__cxx1112basic_stringIcSt11char_traitsIcESaIcEEES8_
   fun:_ZN10chaos_testC1Ev
}
{
   <insert_a_suppression_name_here>
   Memcheck:Leak
   match-leak-kinds: reachable
   fun:_Znwm
   fun:_ZN9__gnu_cxx13new_allocatorISt13_Rb_tree_nodeISt4pairIKN5boost9typeindex14stl_type_indexENS3_10shared_ptrINS3_3log12v2s_mt_posix7sources3aux18logger_holder_baseEEEEEE8allocateEmPKv
   fun:_ZNSt16allocator_traitsISaISt13_Rb_tree_nodeISt4pairIKN5boost9typeindex14stl_type_indexENS2_10shared_ptrINS2_3log12v2s_mt_posix7sources3aux18logger_holder_baseEEEEEEE8allocateERSF_m
   fun:_ZNSt8_Rb_treeIN5boost9typeindex14stl_type_indexESt4pairIKS2_NS0_10shared_ptrINS0_3log12v2s_mt_posix7sources3aux18logger_holder_baseEEEESt10_Select1stISC_ESt4lessIS2_ESaISC_EE11_M_get_nodeEv
   fun:_ZNSt8_Rb_treeIN5boost9typeindex14stl_type_indexESt4pairIKS2_NS0_10shared_ptrINS0_3log12v2s_mt_posix7sources3aux18logger_holder_baseEEEESt10_Select1stISC_ESt4lessIS2_ESaISC_EE14_M_create_nodeIJRKSt21piecewise_construct_tSt5tupleIJRS4_EESN_IJEEEEEPSt13_Rb_tree_nodeISC_EDpOT_
   fun:_ZNSt8_Rb_treeIN5boost9typeindex14stl_type_indexESt4pairIKS2_NS0_10shared_ptrINS0_3log12v2s_mt_posix7sources3aux18logger_holder_baseEEEESt10_Select1stISC_ESt4lessIS2_ESaISC_EE22_M_emplace_hint_uniqueIJRKSt21piecewise_construct_tSt5tupleIJRS4_EESN_IJEEEEESt17_Rb_tree_iteratorISC_ESt23_Rb_tree_const_iteratorISC_EDpOT_
   fun:_ZNSt3mapIN5boost9typeindex14stl_type_indexENS0_10shared_ptrINS0_3log12v2s_mt_posix7sources3aux18logger_holder_baseEEESt4lessIS2_ESaISt4pairIKS2_S9_EEEixERSD_
   fun:_ZN5boost3log12v2s_mt_posix7sources3aux14global_storage11get_or_initENS_9typeindex14stl_type_indexEPFNS_10shared_ptrINS3_18logger_holder_baseEEEvE
   fun:_ZN5boost3log12v2s_mt_posix7sources3aux16logger_singletonINS1_7trivial6loggerEE13init_instanceEv
   fun:_ZN5boost3log12v2s_mt_posix3aux14lazy_singletonINS1_7sources3aux16logger_singletonINS1_7trivial6loggerEEENS_10shared_ptrINS5_13logger_holderINS4_18severity_logger_mtINS7_14severity_levelEEEEEEEE3getEv
   fun:_ZN5boost3log12v2s_mt_posix7sources3aux16logger_singletonINS1_7trivial6loggerEE3getEv
   fun:_ZN5boost3log12v2s_mt_posix7trivial6logger3getEv
}
{
   <insert_a_suppression_name_here>
   Memcheck:Leak
   match-leak-kinds: reachable
   fun:_Znwm
   fun:_ZN9__gnu_cxx13new_allocatorIcE8allocateEmPKv
   fun:_ZNSt16allocator_traitsISaIcEE8allocateERS0_m
   fun:_ZNSt7__cxx1112basic_stringIcSt11char_traitsIcESaIcEE9_M_createERmm
   fun:_ZNSt7__cxx1112basic_stringIcSt11char_traitsIcESaIcEE9_M_mutateEmmPKcm
   fun:_ZNSt7__cxx1112basic_stringIcSt11char_traitsIcESaIcEE10_M_replaceEmmPKcm
   fun:_ZNSt7__cxx1112basic_stringIcSt11char_traitsIcESaIcEE7replaceEmmPKcm
   fun:_ZNSt7__cxx1112basic_stringIcSt11char_traitsIcESaIcEE7replaceEN9__gnu_cxx17__normal_iteratorIPKcS4_EES9_S8_S8_
   fun:_ZNSt7__cxx1112basic_stringIcSt11char_traitsIcESaIcEE6assignIPKcvEERS4_T_S9_
   fun:_ZN5boost6detail27lexical_ostream_limited_srcIcSt11char_traitsIcEErsISaIcEEEbRNSt7__cxx1112basic_stringIcS3_T_EE
   fun:_ZN5boost6detail22lexical_converter_implINSt7__cxx1112basic_stringIcSt11char_traitsIcESaIcEEEdE11try_convertERKdRS7_
   fun:_ZN5boost10conversion6detail19try_lexical_convertINSt7__cxx1112basic_stringIcSt11char_traitsIcESaIcEEEdEEbRKT0_RT_
}
{
   <insert_a_suppression_name_here>
   Memcheck:Leak
   match-leak-kinds: reachable
   fun:_Znwm
   fun:_ZN9__gnu_cxx13new_allocatorIcE8allocateEmPKv
   fun:_ZNSt16allocator_traitsISaIcEE8allocateERS0_m
   fun:_ZNSt7__cxx1112basic_stringIcSt11char_traitsIcESaIcEE9_M_createERmm
   fun:_ZNSt7__cxx1112basic_stringIcSt11char_traitsIcESaIcEE9_M_assignERKS4_
   fun:_ZNSt7__cxx1112basic_stringIcSt11char_traitsIcESaIcEE6assignERKS4_
   fun:_ZNSt7__cxx1112basic_stringIcSt11char_traitsIcESaIcEEaSERKS4_
   fun:_ZN5boost15program_options5storeERKNS0_20basic_parsed_optionsIcEERNS0_13variables_mapEb
   fun:_ZN3bzn14simple_options15combine_optionsEv
   fun:_ZN3bzn14simple_options3setERKNSt7__cxx1112basic_stringIcSt11char_traitsIcESaIcEEES8_
   fun:_ZN10chaos_testC1Ev
   fun:_ZN59chaos_test_DeathTest_test_crash_scheduled_and_executed_TestC1Ev
}
{
   <insert_a_suppression_name_here>
   Memcheck:Leak
   match-leak-kinds: reachable
   fun:_Znwm
   fun:_ZN9__gnu_cxx13new_allocatorINSt7__cxx1112basic_stringIcSt11char_traitsIcESaIcEEEE8allocateEmPKv
   fun:_ZNSt16allocator_traitsISaINSt7__cxx1112basic_stringIcSt11char_traitsIcESaIcEEEEE8allocateERS6_m
   fun:_ZNSt12_Vector_baseINSt7__cxx1112basic_stringIcSt11char_traitsIcESaIcEEESaIS5_EE11_M_allocateEm
   fun:_ZNSt6vectorINSt7__cxx1112basic_stringIcSt11char_traitsIcESaIcEEESaIS5_EE17_M_realloc_insertIJRKS5_EEEvN9__gnu_cxx17__normal_iteratorIPS5_S7_EEDpOT_
   fun:_ZNSt6vectorINSt7__cxx1112basic_stringIcSt11char_traitsIcESaIcEEESaIS5_EE9push_backERKS5_
   fun:_ZN5boost15program_options18option_description9set_namesEPKc
   fun:_ZN5boost15program_options18option_descriptionC1EPKcPKNS0_14value_semanticES3_
   fun:_ZN5boost15program_options29options_description_easy_initclEPKcS3_
   fun:_ZN3bzn14simple_options13build_optionsEv
   fun:_ZN3bzn14simple_optionsC1Ev
   fun:_ZN3bzn7optionsC1Ev
}
{
   <insert_a_suppression_name_here>
   Memcheck:Leak
   match-leak-kinds: reachable
   fun:_Znwm
   fun:_ZN9__gnu_cxx13new_allocatorIPN5boost3log12v2s_mt_posix14attribute_name10repository4nodeEE8allocateEmPKv
   fun:_ZNSt16allocator_traitsISaIPN5boost3log12v2s_mt_posix14attribute_name10repository4nodeEEE8allocateERS7_m
   fun:_ZNSt11_Deque_baseIN5boost3log12v2s_mt_posix14attribute_name10repository4nodeESaIS5_EE15_M_allocate_mapEm
   fun:_ZNSt11_Deque_baseIN5boost3log12v2s_mt_posix14attribute_name10repository4nodeESaIS5_EE17_M_initialize_mapEm
   fun:_ZNSt11_Deque_baseIN5boost3log12v2s_mt_posix14attribute_name10repository4nodeESaIS5_EEC1Ev
   fun:_ZNSt5dequeIN5boost3log12v2s_mt_posix14attribute_name10repository4nodeESaIS5_EEC1Ev
   fun:_ZN5boost3log12v2s_mt_posix14attribute_name10repositoryC1Ev
   fun:_ZN5boost11make_sharedINS_3log12v2s_mt_posix14attribute_name10repositoryEJEEENS_6detail15sp_if_not_arrayIT_E4typeEDpOT0_
   fun:_ZN5boost3log12v2s_mt_posix14attribute_name10repository13init_instanceEv
   fun:_ZN5boost3log12v2s_mt_posix3aux14lazy_singletonINS1_14attribute_name10repositoryENS_10shared_ptrIS5_EEE3getEv
   fun:_ZN5boost3log12v2s_mt_posix14attribute_name18get_id_from_stringEPKc
}
{
   <insert_a_suppression_name_here>
   Memcheck:Leak
   match-leak-kinds: reachable
   fun:_Znwm
   fun:_ZN9__gnu_cxx13new_allocatorISt13_Rb_tree_nodeISt4pairIKPKvN5boost6detail13tss_data_nodeEEEE8allocateEmS4_
   fun:_ZNSt16allocator_traitsISaISt13_Rb_tree_nodeISt4pairIKPKvN5boost6detail13tss_data_nodeEEEEE8allocateERSA_m
   fun:_ZNSt8_Rb_treeIPKvSt4pairIKS1_N5boost6detail13tss_data_nodeEESt10_Select1stIS7_ESt4lessIS1_ESaIS7_EE11_M_get_nodeEv
   fun:_ZNSt8_Rb_treeIPKvSt4pairIKS1_N5boost6detail13tss_data_nodeEESt10_Select1stIS7_ESt4lessIS1_ESaIS7_EE14_M_create_nodeIJS2_IS1_S6_EEEEPSt13_Rb_tree_nodeIS7_EDpOT_
   fun:_ZNSt8_Rb_treeIPKvSt4pairIKS1_N5boost6detail13tss_data_nodeEESt10_Select1stIS7_ESt4lessIS1_ESaIS7_EE17_M_emplace_uniqueIJS2_IS1_S6_EEEES2_ISt17_Rb_tree_iteratorIS7_EbEDpOT_
   fun:_ZNSt3mapIPKvN5boost6detail13tss_data_nodeESt4lessIS1_ESaISt4pairIKS1_S4_EEE6insertIS7_IS1_S4_EEENSt9enable_ifIXsrSt16is_constructibleIS9_JT_EE5valueES7_ISt17_Rb_tree_iteratorIS9_EbEE4typeEOSG_
   fun:_ZN5boost6detail16add_new_tss_nodeEPKvPFvPFvPvES3_ES5_S3_
   fun:_ZN5boost6detail12set_tss_dataEPKvPFvPFvPvES3_ES5_S3_b
   fun:_ZN5boost19thread_specific_ptrINS_3log12v2s_mt_posix4core14implementation11thread_dataEE5resetEPS5_
   fun:_ZN5boost3log12v2s_mt_posix4core14implementation16init_thread_dataEv
   fun:_ZN5boost3log12v2s_mt_posix4core14implementation15get_thread_dataEv
}
{
   <insert_a_suppression_name_here>
   Memcheck:Leak
   match-leak-kinds: reachable
   fun:_Znwm
   fun:_ZN9__gnu_cxx13new_allocatorISt13_Rb_tree_nodeISt4pairIKPKvN5boost6detail13tss_data_nodeEEEE8allocateEmS4_
   fun:_ZNSt16allocator_traitsISaISt13_Rb_tree_nodeISt4pairIKPKvN5boost6detail13tss_data_nodeEEEEE8allocateERSA_m
   fun:_ZNSt8_Rb_treeIPKvSt4pairIKS1_N5boost6detail13tss_data_nodeEESt10_Select1stIS7_ESt4lessIS1_ESaIS7_EE11_M_get_nodeEv
   fun:_ZNSt8_Rb_treeIPKvSt4pairIKS1_N5boost6detail13tss_data_nodeEESt10_Select1stIS7_ESt4lessIS1_ESaIS7_EE14_M_create_nodeIJS2_IS1_S6_EEEEPSt13_Rb_tree_nodeIS7_EDpOT_
   fun:_ZNSt8_Rb_treeIPKvSt4pairIKS1_N5boost6detail13tss_data_nodeEESt10_Select1stIS7_ESt4lessIS1_ESaIS7_EE17_M_emplace_uniqueIJS2_IS1_S6_EEEES2_ISt17_Rb_tree_iteratorIS7_EbEDpOT_
   fun:_ZNSt3mapIPKvN5boost6detail13tss_data_nodeESt4lessIS1_ESaISt4pairIKS1_S4_EEE6insertIS7_IS1_S4_EEENSt9enable_ifIXsrSt16is_constructibleIS9_JT_EE5valueES7_ISt17_Rb_tree_iteratorIS9_EbEE4typeEOSG_
   fun:_ZN5boost6detail16add_new_tss_nodeEPKvPFvPFvPvES3_ES5_S3_
   fun:_ZN5boost6detail12set_tss_dataEPKvPFvPFvPvES3_ES5_S3_b
   fun:_ZN5boost19thread_specific_ptrINS_3log12v2s_mt_posix3aux12_GLOBAL__N_120stream_compound_poolIcEEE5resetEPS6_
   fun:_ZN5boost3log12v2s_mt_posix3aux12_GLOBAL__N_120stream_compound_poolIcE3getEv
   fun:_ZN5boost3log12v2s_mt_posix3aux15stream_providerIcE17allocate_compoundERNS1_6recordE
}
{
   <insert_a_suppression_name_here>
   Memcheck:Leak
   match-leak-kinds: reachable
   fun:calloc
   fun:init_dfa
   fun:re_compile_internal
   fun:regcomp
   fun:_ZN7testing8internal2RE4InitEPKc
   fun:_ZN7testing8internal2REC1EPKc
   fun:_ZN59chaos_test_DeathTest_test_crash_scheduled_and_executed_Test8TestBodyEv
   fun:_ZN7testing8internal38HandleSehExceptionsInMethodIfSupportedINS_4TestEvEET0_PT_MS4_FS3_vEPKc
   fun:_ZN7testing8internal35HandleExceptionsInMethodIfSupportedINS_4TestEvEET0_PT_MS4_FS3_vEPKc
   fun:_ZN7testing4Test3RunEv
   fun:_ZN7testing8TestInfo3RunEv
   fun:_ZN7testing8TestCase3RunEv
   fun:_ZN7testing8internal12UnitTestImpl11RunAllTestsEv
}
{
   <insert_a_suppression_name_here>
   Memcheck:Leak
   match-leak-kinds: reachable
   fun:_Znwm
   fun:_ZN9__gnu_cxx13new_allocatorIcE8allocateEmPKv
   fun:_ZNSt16allocator_traitsISaIcEE8allocateERS0_m
   fun:_ZNSt7__cxx1112basic_stringIcSt11char_traitsIcESaIcEE9_M_createERmm
   fun:_ZNSt7__cxx1112basic_stringIcSt11char_traitsIcESaIcEE12_M_constructIPcEEvT_S7_St20forward_iterator_tag
   fun:_ZNSt7__cxx1112basic_stringIcSt11char_traitsIcESaIcEE16_M_construct_auxIPcEEvT_S7_St12__false_type
   fun:_ZNSt7__cxx1112basic_stringIcSt11char_traitsIcESaIcEE12_M_constructIPcEEvT_S7_
   fun:_ZNSt7__cxx1112basic_stringIcSt11char_traitsIcESaIcEEC1ERKS4_
   fun:_ZN7testing8internal15ExpectationBaseC1EPKciRKNSt7__cxx1112basic_stringIcSt11char_traitsIcESaIcEEE
   fun:_ZN7testing8internal16TypedExpectationIFSt10unique_ptrIN3bzn4asio17steady_timer_baseESt14default_deleteIS5_EEvEEC1EPNS0_18FunctionMockerBaseIS9_EEPKciRKNSt7__cxx1112basic_stringIcSt11char_traitsIcESaIcEEERKSt5tupleIJEE
   fun:_ZN7testing8internal18FunctionMockerBaseIFSt10unique_ptrIN3bzn4asio17steady_timer_baseESt14default_deleteIS5_EEvEE17AddNewExpectationEPKciRKNSt7__cxx1112basic_stringIcSt11char_traitsIcESaIcEEERKSt5tupleIJEE
   fun:_ZN7testing8internal8MockSpecIFSt10unique_ptrIN3bzn4asio17steady_timer_baseESt14default_deleteIS5_EEvEE18InternalExpectedAtEPKciSC_SC_
}
{
   <insert_a_suppression_name_here>
   Memcheck:Leak
   match-leak-kinds: reachable
   fun:realloc
   fun:re_node_set_merge
   fun:calc_eclosure_iter
   fun:calc_eclosure_iter
   fun:calc_eclosure
   fun:analyze
   fun:re_compile_internal
   fun:regcomp
   fun:_ZN7testing8internal2RE4InitEPKc
   fun:_ZN7testing8internal2REC1EPKc
   fun:_ZN59chaos_test_DeathTest_test_crash_scheduled_and_executed_Test8TestBodyEv
   fun:_ZN7testing8internal38HandleSehExceptionsInMethodIfSupportedINS_4TestEvEET0_PT_MS4_FS3_vEPKc
   fun:_ZN7testing8internal35HandleExceptionsInMethodIfSupportedINS_4TestEvEET0_PT_MS4_FS3_vEPKc
   fun:_ZN7testing4Test3RunEv
   fun:_ZN7testing8TestInfo3RunEv
}
{
   <insert_a_suppression_name_here>
   Memcheck:Leak
   match-leak-kinds: reachable
   fun:_Znwm
   fun:_ZN9__gnu_cxx13new_allocatorIcE8allocateEmPKv
   fun:_ZNSt16allocator_traitsISaIcEE8allocateERS0_m
   fun:_ZNSt7__cxx1112basic_stringIcSt11char_traitsIcESaIcEE9_M_createERmm
   fun:_ZNSt7__cxx1112basic_stringIcSt11char_traitsIcESaIcEE12_M_constructIPcEEvT_S7_St20forward_iterator_tag
   fun:_ZNSt7__cxx1112basic_stringIcSt11char_traitsIcESaIcEE16_M_construct_auxIPcEEvT_S7_St12__false_type
   fun:_ZNSt7__cxx1112basic_stringIcSt11char_traitsIcESaIcEE12_M_constructIPcEEvT_S7_
   fun:_ZNSt7__cxx1112basic_stringIcSt11char_traitsIcESaIcEEC1ERKS4_
   fun:_ZNSt4pairIKNSt7__cxx1112basic_stringIcSt11char_traitsIcESaIcEEES5_EC1IJRS6_EJLm0EEJEJEEERSt5tupleIJDpT_EERSA_IJDpT1_EESt12_Index_tupleIJXspT0_EEESJ_IJXspT2_EEE
   fun:_ZNSt4pairIKNSt7__cxx1112basic_stringIcSt11char_traitsIcESaIcEEES5_EC1IJRS6_EJEEESt21piecewise_construct_tSt5tupleIJDpT_EESB_IJDpT0_EE
   fun:_ZN9__gnu_cxx13new_allocatorISt4pairIKNSt7__cxx1112basic_stringIcSt11char_traitsIcESaIcEEES7_EE9constructIS9_JRKSt21piecewise_construct_tSt5tupleIJRS8_EESF_IJEEEEEvPT_DpOT0_
   fun:_ZNSt16allocator_traitsISaISt4pairIKNSt7__cxx1112basic_stringIcSt11char_traitsIcESaIcEEES6_EEE9constructIS8_JRKSt21piecewise_construct_tSt5tupleIJRS7_EESF_IJEEEEEvRS9_PT_DpOT0_
}
{
   <insert_a_suppression_name_here>
   Memcheck:Leak
   match-leak-kinds: reachable
   fun:_Znwm
   fun:_ZN9__gnu_cxx13new_allocatorIcE8allocateEmPKv
   fun:_ZNSt16allocator_traitsISaIcEE8allocateERS0_m
   fun:_ZNSt7__cxx1112basic_stringIcSt11char_traitsIcESaIcEE9_M_createERmm
   fun:_ZNSt7__cxx1112basic_stringIcSt11char_traitsIcESaIcEE12_M_constructIPcEEvT_S7_St20forward_iterator_tag
   fun:_ZNSt7__cxx1112basic_stringIcSt11char_traitsIcESaIcEE16_M_construct_auxIPcEEvT_S7_St12__false_type
   fun:_ZNSt7__cxx1112basic_stringIcSt11char_traitsIcESaIcEE12_M_constructIPcEEvT_S7_
   fun:_ZNSt7__cxx1112basic_stringIcSt11char_traitsIcESaIcEEC1ERKS4_
   fun:_ZN9__gnu_cxx13new_allocatorISt13_Rb_tree_nodeINSt7__cxx1112basic_stringIcSt11char_traitsIcESaIcEEEEE9constructIS7_JRKS7_EEEvPT_DpOT0_
   fun:_ZNSt16allocator_traitsISaISt13_Rb_tree_nodeINSt7__cxx1112basic_stringIcSt11char_traitsIcESaIcEEEEEE9constructIS6_JRKS6_EEEvRS8_PT_DpOT0_
   fun:_ZNSt8_Rb_treeINSt7__cxx1112basic_stringIcSt11char_traitsIcESaIcEEES5_St9_IdentityIS5_ESt4lessIS5_ESaIS5_EE17_M_construct_nodeIJRKS5_EEEvPSt13_Rb_tree_nodeIS5_EDpOT_
   fun:_ZNSt8_Rb_treeINSt7__cxx1112basic_stringIcSt11char_traitsIcESaIcEEES5_St9_IdentityIS5_ESt4lessIS5_ESaIS5_EE14_M_create_nodeIJRKS5_EEEPSt13_Rb_tree_nodeIS5_EDpOT_
}
{
   <insert_a_suppression_name_here>
   Memcheck:Leak
   match-leak-kinds: reachable
   fun:_Znwm
   fun:_ZN9__gnu_cxx13new_allocatorINSt8__detail10_Hash_nodeISt4pairIKNSt7__cxx1112basic_stringIcSt11char_traitsIcESaIcEEES9_ELb1EEEE8allocateEmPKv
   fun:_ZNSt16allocator_traitsISaINSt8__detail10_Hash_nodeISt4pairIKNSt7__cxx1112basic_stringIcSt11char_traitsIcESaIcEEES8_ELb1EEEEE8allocateERSC_m
   fun:_ZNSt8__detail16_Hashtable_allocISaINS_10_Hash_nodeISt4pairIKNSt7__cxx1112basic_stringIcSt11char_traitsIcESaIcEEES8_ELb1EEEEE16_M_allocate_nodeIJRKSt21piecewise_construct_tSt5tupleIJRS9_EESI_IJEEEEEPSB_DpOT_
   fun:_ZNSt8__detail9_Map_baseINSt7__cxx1112basic_stringIcSt11char_traitsIcESaIcEEESt4pairIKS6_S6_ESaIS9_ENS_10_Select1stESt8equal_toIS6_ESt4hashIS6_ENS_18_Mod_range_hashingENS_20_Default_ranged_hashENS_20_Prime_rehash_policyENS_17_Hashtable_traitsILb1ELb0ELb1EEELb1EEixERS8_
   fun:_ZNSt13unordered_mapINSt7__cxx1112basic_stringIcSt11char_traitsIcESaIcEEES5_St4hashIS5_ESt8equal_toIS5_ESaISt4pairIKS5_S5_EEEixERSB_
   fun:_ZN3bzn14simple_options3setERKNSt7__cxx1112basic_stringIcSt11char_traitsIcESaIcEEES8_
   fun:_ZN10chaos_testC1Ev
   fun:_ZN59chaos_test_DeathTest_test_crash_scheduled_and_executed_TestC1Ev
   fun:_ZN7testing8internal15TestFactoryImplI59chaos_test_DeathTest_test_crash_scheduled_and_executed_TestE10CreateTestEv
   fun:_ZN7testing8internal38HandleSehExceptionsInMethodIfSupportedINS0_15TestFactoryBaseEPNS_4TestEEET0_PT_MS6_FS5_vEPKc
   fun:_ZN7testing8internal35HandleExceptionsInMethodIfSupportedINS0_15TestFactoryBaseEPNS_4TestEEET0_PT_MS6_FS5_vEPKc
}
{
   <insert_a_suppression_name_here>
   Memcheck:Leak
   match-leak-kinds: reachable
   fun:_Znwm
   fun:_ZN9__gnu_cxx13new_allocatorISt13_Rb_tree_nodeIPN7testing8internal25UntypedFunctionMockerBaseEEE8allocateEmPKv
   fun:_ZNSt16allocator_traitsISaISt13_Rb_tree_nodeIPN7testing8internal25UntypedFunctionMockerBaseEEEE8allocateERS6_m
   fun:_ZNSt8_Rb_treeIPN7testing8internal25UntypedFunctionMockerBaseES3_St9_IdentityIS3_ESt4lessIS3_ESaIS3_EE11_M_get_nodeEv
   fun:_ZNSt8_Rb_treeIPN7testing8internal25UntypedFunctionMockerBaseES3_St9_IdentityIS3_ESt4lessIS3_ESaIS3_EE14_M_create_nodeIJRKS3_EEEPSt13_Rb_tree_nodeIS3_EDpOT_
   fun:_ZNKSt8_Rb_treeIPN7testing8internal25UntypedFunctionMockerBaseES3_St9_IdentityIS3_ESt4lessIS3_ESaIS3_EE11_Alloc_nodeclIRKS3_EEPSt13_Rb_tree_nodeIS3_EOT_
   fun:_ZNSt8_Rb_treeIPN7testing8internal25UntypedFunctionMockerBaseES3_St9_IdentityIS3_ESt4lessIS3_ESaIS3_EE10_M_insert_IRKS3_NS9_11_Alloc_nodeEEESt17_Rb_tree_iteratorIS3_EPSt18_Rb_tree_node_baseSH_OT_RT0_
   fun:_ZNSt8_Rb_treeIPN7testing8internal25UntypedFunctionMockerBaseES3_St9_IdentityIS3_ESt4lessIS3_ESaIS3_EE16_M_insert_uniqueIRKS3_EESt4pairISt17_Rb_tree_iteratorIS3_EbEOT_
   fun:_ZNSt3setIPN7testing8internal25UntypedFunctionMockerBaseESt4lessIS3_ESaIS3_EE6insertERKS3_
   fun:_ZN7testing4Mock8RegisterEPKvPNS_8internal25UntypedFunctionMockerBaseE
   fun:_ZN7testing8internal25UntypedFunctionMockerBase13RegisterOwnerEPKv
   fun:_ZN3bzn4asio21Mocksteady_timer_base16gmock_async_waitERKN7testing7MatcherISt8functionIFvRKN5boost6system10error_codeEEEEE
}
{
   <insert_a_suppression_name_here>
   Memcheck:Leak
   match-leak-kinds: reachable
   fun:calloc
   fun:create_cd_newstate
   fun:re_acquire_state_context
   fun:create_initial_state
   fun:re_compile_internal
   fun:regcomp
   fun:_ZN7testing8internal2RE4InitEPKc
   fun:_ZN7testing8internal2REC1EPKc
   fun:_ZN59chaos_test_DeathTest_test_crash_scheduled_and_executed_Test8TestBodyEv
   fun:_ZN7testing8internal38HandleSehExceptionsInMethodIfSupportedINS_4TestEvEET0_PT_MS4_FS3_vEPKc
   fun:_ZN7testing8internal35HandleExceptionsInMethodIfSupportedINS_4TestEvEET0_PT_MS4_FS3_vEPKc
   fun:_ZN7testing4Test3RunEv
   fun:_ZN7testing8TestInfo3RunEv
   fun:_ZN7testing8TestCase3RunEv
}
{
   <insert_a_suppression_name_here>
   Memcheck:Leak
   match-leak-kinds: reachable
   fun:_Znwm
   fun:_ZN5boost6detail12shared_countC1IPNS_3log12v2s_mt_posix5sinks3aux12default_sinkENS0_13sp_ms_deleterIS7_EEEET_NS0_14sp_inplace_tagIT0_EE
   fun:_ZN5boost10shared_ptrINS_3log12v2s_mt_posix5sinks3aux12default_sinkEEC1IS5_NS_6detail14sp_inplace_tagINS8_13sp_ms_deleterIS5_EEEEEEPT_T0_
   fun:_ZN5boost11make_sharedINS_3log12v2s_mt_posix5sinks3aux12default_sinkEJEEENS_6detail15sp_if_not_arrayIT_E4typeEDpOT0_
   fun:_ZN5boost3log12v2s_mt_posix4core14implementationC1Ev
   fun:_ZN5boost3log12v2s_mt_posix4coreC1Ev
   fun:_ZN5boost3log12v2s_mt_posix4core14implementation13init_instanceEv
   fun:_ZN5boost3log12v2s_mt_posix3aux14lazy_singletonINS1_4core14implementationENS_10shared_ptrIS4_EEE3getEv
   fun:_ZN5boost3log12v2s_mt_posix4core3getEv
   fun:_ZN5boost3log12v2s_mt_posix7sources12basic_loggerIcNS2_18severity_logger_mtINS1_7trivial14severity_levelEEENS2_18multi_thread_modelINS1_3aux14light_rw_mutexEEEEC1INS_9parameter3aux15tagged_argumentINS1_8keywords3tag8severityEKS6_EEEERKT_
   fun:_ZN5boost3log12v2s_mt_posix7sources21basic_severity_loggerINS2_12basic_loggerIcNS2_18severity_logger_mtINS1_7trivial14severity_levelEEENS2_18multi_thread_modelINS1_3aux14light_rw_mutexEEEEES7_EC1INS_9parameter3aux15tagged_argumentINS1_8keywords3tag8severityEKS7_EEEERKT_
   fun:_ZN5boost3log12v2s_mt_posix7sources22basic_composite_loggerIcNS2_18severity_logger_mtINS1_7trivial14severity_levelEEENS2_18multi_thread_modelINS1_3aux14light_rw_mutexEEENS2_8featuresIJNS2_8severityIS6_EEEEEEC1INS_9parameter3aux15tagged_argumentINS1_8keywords3tag8severityEKS6_EEEERKT_
}
{
   <insert_a_suppression_name_here>
   Memcheck:Leak
   match-leak-kinds: reachable
   fun:_Znwm
   fun:_ZN9__gnu_cxx13new_allocatorIcE8allocateEmPKv
   fun:_ZNSt16allocator_traitsISaIcEE8allocateERS0_m
   fun:_ZNSt7__cxx1112basic_stringIcSt11char_traitsIcESaIcEE9_M_createERmm
   fun:_ZNSt7__cxx1112basic_stringIcSt11char_traitsIcESaIcEE12_M_constructIPcEEvT_S7_St20forward_iterator_tag
   fun:_ZNSt7__cxx1112basic_stringIcSt11char_traitsIcESaIcEE16_M_construct_auxIPcEEvT_S7_St12__false_type
   fun:_ZNSt7__cxx1112basic_stringIcSt11char_traitsIcESaIcEE12_M_constructIPcEEvT_S7_
   fun:_ZNSt7__cxx1112basic_stringIcSt11char_traitsIcESaIcEEC1ERKS4_
   fun:_ZN7testing8internal15ExpectationBaseC1EPKciRKNSt7__cxx1112basic_stringIcSt11char_traitsIcESaIcEEE
   fun:_ZN7testing8internal16TypedExpectationIFvSt8functionIFvRKN5boost6system10error_codeEEEEEC1EPNS0_18FunctionMockerBaseISA_EEPKciRKNSt7__cxx1112basic_stringIcSt11char_traitsIcESaIcEEERKSt5tupleIJNS_7MatcherIS9_EEEE
   fun:_ZN7testing8internal18FunctionMockerBaseIFvSt8functionIFvRKN5boost6system10error_codeEEEEE17AddNewExpectationEPKciRKNSt7__cxx1112basic_stringIcSt11char_traitsIcESaIcEEERKSt5tupleIJNS_7MatcherIS9_EEEE
   fun:_ZN7testing8internal8MockSpecIFvSt8functionIFvRKN5boost6system10error_codeEEEEE18InternalExpectedAtEPKciSD_SD_
}
{
   <insert_a_suppression_name_here>
   Memcheck:Leak
   match-leak-kinds: reachable
   fun:_Znwm
   fun:_ZN5boost15program_options29options_description_easy_initclEPKcPKNS0_14value_semanticES3_
   fun:_ZN3bzn14simple_options13build_optionsEv
   fun:_ZN3bzn14simple_optionsC1Ev
   fun:_ZN3bzn7optionsC1Ev
   fun:_ZN9__gnu_cxx13new_allocatorIN3bzn7optionsEE9constructIS2_JEEEvPT_DpOT0_
   fun:_ZNSt16allocator_traitsISaIN3bzn7optionsEEE9constructIS1_JEEEvRS2_PT_DpOT0_
   fun:_ZNSt23_Sp_counted_ptr_inplaceIN3bzn7optionsESaIS1_ELN9__gnu_cxx12_Lock_policyE2EEC1IJEEES2_DpOT_
   fun:_ZNSt14__shared_countILN9__gnu_cxx12_Lock_policyE2EEC1IN3bzn7optionsESaIS5_EJEEESt19_Sp_make_shared_tagPT_RKT0_DpOT1_
   fun:_ZNSt12__shared_ptrIN3bzn7optionsELN9__gnu_cxx12_Lock_policyE2EEC1ISaIS1_EJEEESt19_Sp_make_shared_tagRKT_DpOT0_
   fun:_ZNSt10shared_ptrIN3bzn7optionsEEC1ISaIS1_EJEEESt19_Sp_make_shared_tagRKT_DpOT0_
   fun:_ZSt15allocate_sharedIN3bzn7optionsESaIS1_EJEESt10shared_ptrIT_ERKT0_DpOT1_
}
{
   <insert_a_suppression_name_here>
   Memcheck:Leak
   match-leak-kinds: reachable
   fun:_Znwm
   fun:_ZN5boost15program_options19options_description3addERKS1_
   fun:_ZN3bzn14simple_options13build_optionsEv
   fun:_ZN3bzn14simple_optionsC1Ev
   fun:_ZN3bzn7optionsC1Ev
   fun:_ZN9__gnu_cxx13new_allocatorIN3bzn7optionsEE9constructIS2_JEEEvPT_DpOT0_
   fun:_ZNSt16allocator_traitsISaIN3bzn7optionsEEE9constructIS1_JEEEvRS2_PT_DpOT0_
   fun:_ZNSt23_Sp_counted_ptr_inplaceIN3bzn7optionsESaIS1_ELN9__gnu_cxx12_Lock_policyE2EEC1IJEEES2_DpOT_
   fun:_ZNSt14__shared_countILN9__gnu_cxx12_Lock_policyE2EEC1IN3bzn7optionsESaIS5_EJEEESt19_Sp_make_shared_tagPT_RKT0_DpOT1_
   fun:_ZNSt12__shared_ptrIN3bzn7optionsELN9__gnu_cxx12_Lock_policyE2EEC1ISaIS1_EJEEESt19_Sp_make_shared_tagRKT_DpOT0_
   fun:_ZNSt10shared_ptrIN3bzn7optionsEEC1ISaIS1_EJEEESt19_Sp_make_shared_tagRKT_DpOT0_
   fun:_ZSt15allocate_sharedIN3bzn7optionsESaIS1_EJEESt10shared_ptrIT_ERKT0_DpOT1_
}
{
   <insert_a_suppression_name_here>
   Memcheck:Leak
   match-leak-kinds: reachable
   fun:_Znwm
   fun:_ZN9__gnu_cxx13new_allocatorIN5boost10shared_ptrINS1_15program_options19options_descriptionEEEE8allocateEmPKv
   fun:_ZNSt16allocator_traitsISaIN5boost10shared_ptrINS0_15program_options19options_descriptionEEEEE8allocateERS5_m
   fun:_ZNSt12_Vector_baseIN5boost10shared_ptrINS0_15program_options19options_descriptionEEESaIS4_EE11_M_allocateEm
   fun:_ZNSt6vectorIN5boost10shared_ptrINS0_15program_options19options_descriptionEEESaIS4_EE17_M_realloc_insertIJRKS4_EEEvN9__gnu_cxx17__normal_iteratorIPS4_S6_EEDpOT_
   fun:_ZNSt6vectorIN5boost10shared_ptrINS0_15program_options19options_descriptionEEESaIS4_EE9push_backERKS4_
   fun:_ZN5boost15program_options19options_description3addERKS1_
   fun:_ZN3bzn14simple_options13build_optionsEv
   fun:_ZN3bzn14simple_optionsC1Ev
   fun:_ZN3bzn7optionsC1Ev
   fun:_ZN9__gnu_cxx13new_allocatorIN3bzn7optionsEE9constructIS2_JEEEvPT_DpOT0_
   fun:_ZNSt16allocator_traitsISaIN3bzn7optionsEEE9constructIS1_JEEEvRS2_PT_DpOT0_
}
{
   <insert_a_suppression_name_here>
   Memcheck:Leak
   match-leak-kinds: reachable
   fun:_Znwm
   fun:_ZN5boost3log12v2s_mt_posix4coreC1Ev
   fun:_ZN5boost3log12v2s_mt_posix4core14implementation13init_instanceEv
   fun:_ZN5boost3log12v2s_mt_posix3aux14lazy_singletonINS1_4core14implementationENS_10shared_ptrIS4_EEE3getEv
   fun:_ZN5boost3log12v2s_mt_posix4core3getEv
   fun:_ZN5boost3log12v2s_mt_posix7sources12basic_loggerIcNS2_18severity_logger_mtINS1_7trivial14severity_levelEEENS2_18multi_thread_modelINS1_3aux14light_rw_mutexEEEEC1INS_9parameter3aux15tagged_argumentINS1_8keywords3tag8severityEKS6_EEEERKT_
   fun:_ZN5boost3log12v2s_mt_posix7sources21basic_severity_loggerINS2_12basic_loggerIcNS2_18severity_logger_mtINS1_7trivial14severity_levelEEENS2_18multi_thread_modelINS1_3aux14light_rw_mutexEEEEES7_EC1INS_9parameter3aux15tagged_argumentINS1_8keywords3tag8severityEKS7_EEEERKT_
   fun:_ZN5boost3log12v2s_mt_posix7sources22basic_composite_loggerIcNS2_18severity_logger_mtINS1_7trivial14severity_levelEEENS2_18multi_thread_modelINS1_3aux14light_rw_mutexEEENS2_8featuresIJNS2_8severityIS6_EEEEEEC1INS_9parameter3aux15tagged_argumentINS1_8keywords3tag8severityEKS6_EEEERKT_
   fun:_ZN5boost3log12v2s_mt_posix7sources18severity_logger_mtINS1_7trivial14severity_levelEEC1INS_9parameter3aux15tagged_argumentINS1_8keywords3tag8severityEKS5_EEEERKT_NS_11enable_if_cIXsrNS_3mpl3or_INS_10is_base_ofINS9_20tagged_argument_baseESG_EENSM_INS9_14empty_arg_listESG_EEN4mpl_5bool_ILb0EEEST_ST_EE5valueENS1_3aux12sfinae_dummyEE4typeE
   fun:_ZN5boost3log12v2s_mt_posix7trivial6logger16construct_loggerEv
   fun:_ZN5boost3log12v2s_mt_posix7sources3aux16logger_singletonINS1_7trivial6loggerEE16construct_loggerEv
   fun:_ZN5boost3log12v2s_mt_posix7sources3aux14global_storage11get_or_initENS_9typeindex14stl_type_indexEPFNS_10shared_ptrINS3_18logger_holder_baseEEEvE
}
{
   <insert_a_suppression_name_here>
   Memcheck:Leak
   match-leak-kinds: reachable
   fun:_Znwm
   fun:_ZNK5boost3any6holderIbE5cloneEv
   fun:_ZN5boost3anyC1ERKS0_
   fun:_ZN5boost15program_options14variable_valueC1ERKNS_3anyEb
   fun:_ZN5boost15program_options5storeERKNS0_20basic_parsed_optionsIcEERNS0_13variables_mapEb
   fun:_ZN3bzn14simple_options15combine_optionsEv
   fun:_ZN3bzn14simple_options3setERKNSt7__cxx1112basic_stringIcSt11char_traitsIcESaIcEEES8_
   fun:_ZN10chaos_testC1Ev
   fun:_ZN59chaos_test_DeathTest_test_crash_scheduled_and_executed_TestC1Ev
   fun:_ZN7testing8internal15TestFactoryImplI59chaos_test_DeathTest_test_crash_scheduled_and_executed_TestE10CreateTestEv
   fun:_ZN7testing8internal38HandleSehExceptionsInMethodIfSupportedINS0_15TestFactoryBaseEPNS_4TestEEET0_PT_MS6_FS5_vEPKc
   fun:_ZN7testing8internal35HandleExceptionsInMethodIfSupportedINS0_15TestFactoryBaseEPNS_4TestEEET0_PT_MS6_FS5_vEPKc
}
{
   <insert_a_suppression_name_here>
   Memcheck:Leak
   match-leak-kinds: reachable
   fun:_Znwm
   fun:_ZN7testing8internal15TestFactoryImplI59chaos_test_DeathTest_test_crash_scheduled_and_executed_TestE10CreateTestEv
   fun:_ZN7testing8internal38HandleSehExceptionsInMethodIfSupportedINS0_15TestFactoryBaseEPNS_4TestEEET0_PT_MS6_FS5_vEPKc
   fun:_ZN7testing8internal35HandleExceptionsInMethodIfSupportedINS0_15TestFactoryBaseEPNS_4TestEEET0_PT_MS6_FS5_vEPKc
   fun:_ZN7testing8TestInfo3RunEv
   fun:_ZN7testing8TestCase3RunEv
   fun:_ZN7testing8internal12UnitTestImpl11RunAllTestsEv
   fun:_ZN7testing8internal38HandleSehExceptionsInMethodIfSupportedINS0_12UnitTestImplEbEET0_PT_MS4_FS3_vEPKc
   fun:_ZN7testing8internal35HandleExceptionsInMethodIfSupportedINS0_12UnitTestImplEbEET0_PT_MS4_FS3_vEPKc
   fun:_ZN7testing8UnitTest3RunEv
   fun:_Z13RUN_ALL_TESTSv
   fun:main
}
{
   <insert_a_suppression_name_here>
   Memcheck:Leak
   match-leak-kinds: reachable
   fun:_Znwm
   fun:_ZN5boost6detail12shared_countC1IPNS_3log12v2s_mt_posix7sources3aux13logger_holderINS5_18severity_logger_mtINS4_7trivial14severity_levelEEEEENS0_13sp_ms_deleterISC_EEEET_NS0_14sp_inplace_tagIT0_EE
   fun:_ZN5boost10shared_ptrINS_3log12v2s_mt_posix7sources3aux13logger_holderINS3_18severity_logger_mtINS2_7trivial14severity_levelEEEEEEC1ISA_NS_6detail14sp_inplace_tagINSD_13sp_ms_deleterISA_EEEEEEPT_T0_
   fun:_ZN5boost11make_sharedINS_3log12v2s_mt_posix7sources3aux13logger_holderINS3_18severity_logger_mtINS2_7trivial14severity_levelEEEEEJPKcjS9_EEENS_6detail15sp_if_not_arrayIT_E4typeEDpOT0_
   fun:_ZN5boost3log12v2s_mt_posix7sources3aux16logger_singletonINS1_7trivial6loggerEE16construct_loggerEv
   fun:_ZN5boost3log12v2s_mt_posix7sources3aux14global_storage11get_or_initENS_9typeindex14stl_type_indexEPFNS_10shared_ptrINS3_18logger_holder_baseEEEvE
   fun:_ZN5boost3log12v2s_mt_posix7sources3aux16logger_singletonINS1_7trivial6loggerEE13init_instanceEv
   fun:_ZN5boost3log12v2s_mt_posix3aux14lazy_singletonINS1_7sources3aux16logger_singletonINS1_7trivial6loggerEEENS_10shared_ptrINS5_13logger_holderINS4_18severity_logger_mtINS7_14severity_levelEEEEEEEE3getEv
   fun:_ZN5boost3log12v2s_mt_posix7sources3aux16logger_singletonINS1_7trivial6loggerEE3getEv
   fun:_ZN5boost3log12v2s_mt_posix7trivial6logger3getEv
   fun:_ZN3bzn5chaos17start_crash_timerEv
   fun:_ZZN3bzn5chaos5startEvENKUlvE_clEv
}
{
   <insert_a_suppression_name_here>
   Memcheck:Leak
   match-leak-kinds: reachable
   fun:_Znwm
   fun:_ZN9__gnu_cxx13new_allocatorISt13_Rb_tree_nodeISt4pairIKPKvN7testing12_GLOBAL__N_115MockObjectStateEEEE8allocateEmS4_
   fun:_ZNSt16allocator_traitsISaISt13_Rb_tree_nodeISt4pairIKPKvN7testing12_GLOBAL__N_115MockObjectStateEEEEE8allocateERSA_m
   fun:_ZNSt8_Rb_treeIPKvSt4pairIKS1_N7testing12_GLOBAL__N_115MockObjectStateEESt10_Select1stIS7_ESt4lessIS1_ESaIS7_EE11_M_get_nodeEv
   fun:_ZNSt8_Rb_treeIPKvSt4pairIKS1_N7testing12_GLOBAL__N_115MockObjectStateEESt10_Select1stIS7_ESt4lessIS1_ESaIS7_EE14_M_create_nodeIJRKSt21piecewise_construct_tSt5tupleIJRS3_EESI_IJEEEEEPSt13_Rb_tree_nodeIS7_EDpOT_
   fun:_ZNSt8_Rb_treeIPKvSt4pairIKS1_N7testing12_GLOBAL__N_115MockObjectStateEESt10_Select1stIS7_ESt4lessIS1_ESaIS7_EE22_M_emplace_hint_uniqueIJRKSt21piecewise_construct_tSt5tupleIJRS3_EESI_IJEEEEESt17_Rb_tree_iteratorIS7_ESt23_Rb_tree_const_iteratorIS7_EDpOT_
   fun:_ZNSt3mapIPKvN7testing12_GLOBAL__N_115MockObjectStateESt4lessIS1_ESaISt4pairIKS1_S4_EEEixERS8_
   fun:_ZN7testing4Mock8RegisterEPKvPNS_8internal25UntypedFunctionMockerBaseE
   fun:_ZN7testing8internal25UntypedFunctionMockerBase13RegisterOwnerEPKv
   fun:_ZN3bzn4asio19Mockio_context_base30gmock_make_unique_steady_timerEv
   fun:_ZN10chaos_testC1Ev
   fun:_ZN59chaos_test_DeathTest_test_crash_scheduled_and_executed_TestC1Ev
}
{
   <insert_a_suppression_name_here>
   Memcheck:Leak
   match-leak-kinds: reachable
   fun:_Znwm
   fun:_ZN9__gnu_cxx13new_allocatorISt13_Rb_tree_nodeISt4pairIKPKvN7testing12_GLOBAL__N_115MockObjectStateEEEE8allocateEmS4_
   fun:_ZNSt16allocator_traitsISaISt13_Rb_tree_nodeISt4pairIKPKvN7testing12_GLOBAL__N_115MockObjectStateEEEEE8allocateERSA_m
   fun:_ZNSt8_Rb_treeIPKvSt4pairIKS1_N7testing12_GLOBAL__N_115MockObjectStateEESt10_Select1stIS7_ESt4lessIS1_ESaIS7_EE11_M_get_nodeEv
   fun:_ZNSt8_Rb_treeIPKvSt4pairIKS1_N7testing12_GLOBAL__N_115MockObjectStateEESt10_Select1stIS7_ESt4lessIS1_ESaIS7_EE14_M_create_nodeIJRKSt21piecewise_construct_tSt5tupleIJRS3_EESI_IJEEEEEPSt13_Rb_tree_nodeIS7_EDpOT_
   fun:_ZNSt8_Rb_treeIPKvSt4pairIKS1_N7testing12_GLOBAL__N_115MockObjectStateEESt10_Select1stIS7_ESt4lessIS1_ESaIS7_EE22_M_emplace_hint_uniqueIJRKSt21piecewise_construct_tSt5tupleIJRS3_EESI_IJEEEEESt17_Rb_tree_iteratorIS7_ESt23_Rb_tree_const_iteratorIS7_EDpOT_
   fun:_ZNSt3mapIPKvN7testing12_GLOBAL__N_115MockObjectStateESt4lessIS1_ESaISt4pairIKS1_S4_EEEixERS8_
   fun:_ZN7testing4Mock8RegisterEPKvPNS_8internal25UntypedFunctionMockerBaseE
   fun:_ZN7testing8internal25UntypedFunctionMockerBase13RegisterOwnerEPKv
   fun:_ZN3bzn4asio21Mocksteady_timer_base16gmock_async_waitERKN7testing7MatcherISt8functionIFvRKN5boost6system10error_codeEEEEE
   fun:_ZN10chaos_testC1Ev
   fun:_ZN59chaos_test_DeathTest_test_crash_scheduled_and_executed_TestC1Ev
}
{
   <insert_a_suppression_name_here>
   Memcheck:Leak
   match-leak-kinds: reachable
   fun:_Znwm
   fun:_ZN5boost15program_options5valueINSt7__cxx1112basic_stringIcSt11char_traitsIcESaIcEEEEEPNS0_11typed_valueIT_cEEPS9_
   fun:_ZN5boost15program_options5valueINSt7__cxx1112basic_stringIcSt11char_traitsIcESaIcEEEEEPNS0_11typed_valueIT_cEEv
   fun:_ZN3bzn14simple_options13build_optionsEv
   fun:_ZN3bzn14simple_optionsC1Ev
   fun:_ZN3bzn7optionsC1Ev
   fun:_ZN9__gnu_cxx13new_allocatorIN3bzn7optionsEE9constructIS2_JEEEvPT_DpOT0_
   fun:_ZNSt16allocator_traitsISaIN3bzn7optionsEEE9constructIS1_JEEEvRS2_PT_DpOT0_
   fun:_ZNSt23_Sp_counted_ptr_inplaceIN3bzn7optionsESaIS1_ELN9__gnu_cxx12_Lock_policyE2EEC1IJEEES2_DpOT_
   fun:_ZNSt14__shared_countILN9__gnu_cxx12_Lock_policyE2EEC1IN3bzn7optionsESaIS5_EJEEESt19_Sp_make_shared_tagPT_RKT0_DpOT1_
   fun:_ZNSt12__shared_ptrIN3bzn7optionsELN9__gnu_cxx12_Lock_policyE2EEC1ISaIS1_EJEEESt19_Sp_make_shared_tagRKT_DpOT0_
   fun:_ZNSt10shared_ptrIN3bzn7optionsEEC1ISaIS1_EJEEESt19_Sp_make_shared_tagRKT_DpOT0_
}
{
   <insert_a_suppression_name_here>
   Memcheck:Leak
   match-leak-kinds: reachable
   fun:_Znwm
   fun:_ZN5boost15program_options5valueItEEPNS0_11typed_valueIT_cEEPS3_
   fun:_ZN5boost15program_options5valueItEEPNS0_11typed_valueIT_cEEv
   fun:_ZN3bzn14simple_options13build_optionsEv
   fun:_ZN3bzn14simple_optionsC1Ev
   fun:_ZN3bzn7optionsC1Ev
   fun:_ZN9__gnu_cxx13new_allocatorIN3bzn7optionsEE9constructIS2_JEEEvPT_DpOT0_
   fun:_ZNSt16allocator_traitsISaIN3bzn7optionsEEE9constructIS1_JEEEvRS2_PT_DpOT0_
   fun:_ZNSt23_Sp_counted_ptr_inplaceIN3bzn7optionsESaIS1_ELN9__gnu_cxx12_Lock_policyE2EEC1IJEEES2_DpOT_
   fun:_ZNSt14__shared_countILN9__gnu_cxx12_Lock_policyE2EEC1IN3bzn7optionsESaIS5_EJEEESt19_Sp_make_shared_tagPT_RKT0_DpOT1_
   fun:_ZNSt12__shared_ptrIN3bzn7optionsELN9__gnu_cxx12_Lock_policyE2EEC1ISaIS1_EJEEESt19_Sp_make_shared_tagRKT_DpOT0_
   fun:_ZNSt10shared_ptrIN3bzn7optionsEEC1ISaIS1_EJEEESt19_Sp_make_shared_tagRKT_DpOT0_
}
{
   <insert_a_suppression_name_here>
   Memcheck:Leak
   match-leak-kinds: reachable
   fun:_Znwm
   fun:_ZN5boost15program_options5valueIbEEPNS0_11typed_valueIT_cEEPS3_
   fun:_ZN5boost15program_options5valueIbEEPNS0_11typed_valueIT_cEEv
   fun:_ZN3bzn14simple_options13build_optionsEv
   fun:_ZN3bzn14simple_optionsC1Ev
   fun:_ZN3bzn7optionsC1Ev
   fun:_ZN9__gnu_cxx13new_allocatorIN3bzn7optionsEE9constructIS2_JEEEvPT_DpOT0_
   fun:_ZNSt16allocator_traitsISaIN3bzn7optionsEEE9constructIS1_JEEEvRS2_PT_DpOT0_
   fun:_ZNSt23_Sp_counted_ptr_inplaceIN3bzn7optionsESaIS1_ELN9__gnu_cxx12_Lock_policyE2EEC1IJEEES2_DpOT_
   fun:_ZNSt14__shared_countILN9__gnu_cxx12_Lock_policyE2EEC1IN3bzn7optionsESaIS5_EJEEESt19_Sp_make_shared_tagPT_RKT0_DpOT1_
   fun:_ZNSt12__shared_ptrIN3bzn7optionsELN9__gnu_cxx12_Lock_policyE2EEC1ISaIS1_EJEEESt19_Sp_make_shared_tagRKT_DpOT0_
   fun:_ZNSt10shared_ptrIN3bzn7optionsEEC1ISaIS1_EJEEESt19_Sp_make_shared_tagRKT_DpOT0_
}
{
   <insert_a_suppression_name_here>
   Memcheck:Leak
   match-leak-kinds: reachable
   fun:_Znwm
   fun:_ZN5boost15program_options5valueImEEPNS0_11typed_valueIT_cEEPS3_
   fun:_ZN5boost15program_options5valueImEEPNS0_11typed_valueIT_cEEv
   fun:_ZN3bzn14simple_options13build_optionsEv
   fun:_ZN3bzn14simple_optionsC1Ev
   fun:_ZN3bzn7optionsC1Ev
   fun:_ZN9__gnu_cxx13new_allocatorIN3bzn7optionsEE9constructIS2_JEEEvPT_DpOT0_
   fun:_ZNSt16allocator_traitsISaIN3bzn7optionsEEE9constructIS1_JEEEvRS2_PT_DpOT0_
   fun:_ZNSt23_Sp_counted_ptr_inplaceIN3bzn7optionsESaIS1_ELN9__gnu_cxx12_Lock_policyE2EEC1IJEEES2_DpOT_
   fun:_ZNSt14__shared_countILN9__gnu_cxx12_Lock_policyE2EEC1IN3bzn7optionsESaIS5_EJEEESt19_Sp_make_shared_tagPT_RKT0_DpOT1_
   fun:_ZNSt12__shared_ptrIN3bzn7optionsELN9__gnu_cxx12_Lock_policyE2EEC1ISaIS1_EJEEESt19_Sp_make_shared_tagRKT_DpOT0_
   fun:_ZNSt10shared_ptrIN3bzn7optionsEEC1ISaIS1_EJEEESt19_Sp_make_shared_tagRKT_DpOT0_
}
{
   <insert_a_suppression_name_here>
   Memcheck:Leak
   match-leak-kinds: reachable
   fun:_Znwm
   fun:_ZN5boost15program_options5valueIdEEPNS0_11typed_valueIT_cEEPS3_
   fun:_ZN5boost15program_options5valueIdEEPNS0_11typed_valueIT_cEEv
   fun:_ZN3bzn14simple_options13build_optionsEv
   fun:_ZN3bzn14simple_optionsC1Ev
   fun:_ZN3bzn7optionsC1Ev
   fun:_ZN9__gnu_cxx13new_allocatorIN3bzn7optionsEE9constructIS2_JEEEvPT_DpOT0_
   fun:_ZNSt16allocator_traitsISaIN3bzn7optionsEEE9constructIS1_JEEEvRS2_PT_DpOT0_
   fun:_ZNSt23_Sp_counted_ptr_inplaceIN3bzn7optionsESaIS1_ELN9__gnu_cxx12_Lock_policyE2EEC1IJEEES2_DpOT_
   fun:_ZNSt14__shared_countILN9__gnu_cxx12_Lock_policyE2EEC1IN3bzn7optionsESaIS5_EJEEESt19_Sp_make_shared_tagPT_RKT0_DpOT1_
   fun:_ZNSt12__shared_ptrIN3bzn7optionsELN9__gnu_cxx12_Lock_policyE2EEC1ISaIS1_EJEEESt19_Sp_make_shared_tagRKT_DpOT0_
   fun:_ZNSt10shared_ptrIN3bzn7optionsEEC1ISaIS1_EJEEESt19_Sp_make_shared_tagRKT_DpOT0_
}
{
   <insert_a_suppression_name_here>
   Memcheck:Leak
   match-leak-kinds: reachable
   fun:_Znwm
   fun:_ZN5boost15program_options5valueIjEEPNS0_11typed_valueIT_cEEPS3_
   fun:_ZN5boost15program_options5valueIjEEPNS0_11typed_valueIT_cEEv
   fun:_ZN3bzn14simple_options13build_optionsEv
   fun:_ZN3bzn14simple_optionsC1Ev
   fun:_ZN3bzn7optionsC1Ev
   fun:_ZN9__gnu_cxx13new_allocatorIN3bzn7optionsEE9constructIS2_JEEEvPT_DpOT0_
   fun:_ZNSt16allocator_traitsISaIN3bzn7optionsEEE9constructIS1_JEEEvRS2_PT_DpOT0_
   fun:_ZNSt23_Sp_counted_ptr_inplaceIN3bzn7optionsESaIS1_ELN9__gnu_cxx12_Lock_policyE2EEC1IJEEES2_DpOT_
   fun:_ZNSt14__shared_countILN9__gnu_cxx12_Lock_policyE2EEC1IN3bzn7optionsESaIS5_EJEEESt19_Sp_make_shared_tagPT_RKT0_DpOT1_
   fun:_ZNSt12__shared_ptrIN3bzn7optionsELN9__gnu_cxx12_Lock_policyE2EEC1ISaIS1_EJEEESt19_Sp_make_shared_tagRKT_DpOT0_
   fun:_ZNSt10shared_ptrIN3bzn7optionsEEC1ISaIS1_EJEEESt19_Sp_make_shared_tagRKT_DpOT0_
}
{
   <insert_a_suppression_name_here>
   Memcheck:Leak
   match-leak-kinds: reachable
   fun:_Znwm
   fun:_ZN5boost6detail12shared_countC1IPNS_3log12v2s_mt_posix14attribute_name10repositoryENS0_13sp_ms_deleterIS6_EEEET_NS0_14sp_inplace_tagIT0_EE
   fun:_ZN5boost10shared_ptrINS_3log12v2s_mt_posix14attribute_name10repositoryEEC1IS4_NS_6detail14sp_inplace_tagINS7_13sp_ms_deleterIS4_EEEEEEPT_T0_
   fun:_ZN5boost11make_sharedINS_3log12v2s_mt_posix14attribute_name10repositoryEJEEENS_6detail15sp_if_not_arrayIT_E4typeEDpOT0_
   fun:_ZN5boost3log12v2s_mt_posix14attribute_name10repository13init_instanceEv
   fun:_ZN5boost3log12v2s_mt_posix3aux14lazy_singletonINS1_14attribute_name10repositoryENS_10shared_ptrIS5_EEE3getEv
   fun:_ZN5boost3log12v2s_mt_posix14attribute_name18get_id_from_stringEPKc
   fun:_ZN5boost3log12v2s_mt_posix14attribute_nameC1EPKc
   fun:_ZN5boost3log12v2s_mt_posix3aux23default_attribute_names12_GLOBAL__N_15namesC1Ev
   fun:_ZN5boost3log12v2s_mt_posix3aux23default_attribute_names12_GLOBAL__N_15names13init_instanceEv
   fun:_ZN5boost3log12v2s_mt_posix3aux14lazy_singletonINS2_23default_attribute_names12_GLOBAL__N_15namesENS_10shared_ptrIS6_EEE3getEv
   fun:_ZN5boost3log12v2s_mt_posix3aux23default_attribute_names12_GLOBAL__N_15names3getEv
}
{
   <insert_a_suppression_name_here>
   Memcheck:Leak
   match-leak-kinds: reachable
   fun:_Znwm
   fun:_ZN9__gnu_cxx13new_allocatorISt13_Rb_tree_nodeINSt7__cxx1112basic_stringIcSt11char_traitsIcESaIcEEEEE8allocateEmPKv
   fun:_ZNSt16allocator_traitsISaISt13_Rb_tree_nodeINSt7__cxx1112basic_stringIcSt11char_traitsIcESaIcEEEEEE8allocateERS8_m
   fun:_ZNSt8_Rb_treeINSt7__cxx1112basic_stringIcSt11char_traitsIcESaIcEEES5_St9_IdentityIS5_ESt4lessIS5_ESaIS5_EE11_M_get_nodeEv
   fun:_ZNSt8_Rb_treeINSt7__cxx1112basic_stringIcSt11char_traitsIcESaIcEEES5_St9_IdentityIS5_ESt4lessIS5_ESaIS5_EE14_M_create_nodeIJRKS5_EEEPSt13_Rb_tree_nodeIS5_EDpOT_
   fun:_ZNKSt8_Rb_treeINSt7__cxx1112basic_stringIcSt11char_traitsIcESaIcEEES5_St9_IdentityIS5_ESt4lessIS5_ESaIS5_EE11_Alloc_nodeclIRKS5_EEPSt13_Rb_tree_nodeIS5_EOT_
   fun:_ZNSt8_Rb_treeINSt7__cxx1112basic_stringIcSt11char_traitsIcESaIcEEES5_St9_IdentityIS5_ESt4lessIS5_ESaIS5_EE10_M_insert_IRKS5_NSB_11_Alloc_nodeEEESt17_Rb_tree_iteratorIS5_EPSt18_Rb_tree_node_baseSJ_OT_RT0_
   fun:_ZNSt8_Rb_treeINSt7__cxx1112basic_stringIcSt11char_traitsIcESaIcEEES5_St9_IdentityIS5_ESt4lessIS5_ESaIS5_EE17_M_insert_unique_IRKS5_NSB_11_Alloc_nodeEEESt17_Rb_tree_iteratorIS5_ESt23_Rb_tree_const_iteratorIS5_EOT_RT0_
   fun:_ZNSt8_Rb_treeINSt7__cxx1112basic_stringIcSt11char_traitsIcESaIcEEES5_St9_IdentityIS5_ESt4lessIS5_ESaIS5_EE16_M_insert_uniqueISt23_Rb_tree_const_iteratorIS5_EEEvT_SF_
   fun:_ZNSt3setINSt7__cxx1112basic_stringIcSt11char_traitsIcESaIcEEESt4lessIS5_ESaIS5_EE6insertISt23_Rb_tree_const_iteratorIS5_EEEvT_SD_
   fun:_ZN5boost15program_options5storeERKNS0_20basic_parsed_optionsIcEERNS0_13variables_mapEb
   fun:_ZN3bzn14simple_options15combine_optionsEv
}
{
   <insert_a_suppression_name_here>
   Memcheck:Leak
   match-leak-kinds: reachable
   fun:malloc
   fun:realloc
   fun:re_compile_internal
   fun:regcomp
   fun:_ZN7testing8internal2RE4InitEPKc
   fun:_ZN7testing8internal2REC1EPKc
   fun:_ZN59chaos_test_DeathTest_test_crash_scheduled_and_executed_Test8TestBodyEv
   fun:_ZN7testing8internal38HandleSehExceptionsInMethodIfSupportedINS_4TestEvEET0_PT_MS4_FS3_vEPKc
   fun:_ZN7testing8internal35HandleExceptionsInMethodIfSupportedINS_4TestEvEET0_PT_MS4_FS3_vEPKc
   fun:_ZN7testing4Test3RunEv
   fun:_ZN7testing8TestInfo3RunEv
   fun:_ZN7testing8TestCase3RunEv
}
{
   <insert_a_suppression_name_here>
   Memcheck:Leak
   match-leak-kinds: reachable
   fun:_Znwm
   fun:_ZN9__gnu_cxx13new_allocatorISt13_Rb_tree_nodeISt4pairIKcmEEE8allocateEmPKv
   fun:_ZNSt16allocator_traitsISaISt13_Rb_tree_nodeISt4pairIKcmEEEE8allocateERS5_m
   fun:_ZNSt8_Rb_treeIcSt4pairIKcmESt10_Select1stIS2_ESt4lessIcESaIS2_EE11_M_get_nodeEv
   fun:_ZNSt8_Rb_treeIcSt4pairIKcmESt10_Select1stIS2_ESt4lessIcESaIS2_EE14_M_create_nodeIJRKS2_EEEPSt13_Rb_tree_nodeIS2_EDpOT_
   fun:_ZNKSt8_Rb_treeIcSt4pairIKcmESt10_Select1stIS2_ESt4lessIcESaIS2_EE11_Alloc_nodeclIRKS2_EEPSt13_Rb_tree_nodeIS2_EOT_
   fun:_ZNSt8_Rb_treeIcSt4pairIKcmESt10_Select1stIS2_ESt4lessIcESaIS2_EE10_M_insert_IRKS2_NS8_11_Alloc_nodeEEESt17_Rb_tree_iteratorIS2_EPSt18_Rb_tree_node_baseSG_OT_RT0_
   fun:_ZNSt8_Rb_treeIcSt4pairIKcmESt10_Select1stIS2_ESt4lessIcESaIS2_EE17_M_insert_unique_IRKS2_NS8_11_Alloc_nodeEEESt17_Rb_tree_iteratorIS2_ESt23_Rb_tree_const_iteratorIS2_EOT_RT0_
   fun:_ZNSt8_Rb_treeIcSt4pairIKcmESt10_Select1stIS2_ESt4lessIcESaIS2_EE16_M_insert_uniqueIPKS2_EEvT_SC_
   fun:_ZNSt3mapIcmSt4lessIcESaISt4pairIKcmEEEC1ESt16initializer_listIS4_ERKS1_RKS5_
   fun:_Z41__static_initialization_and_destruction_0ii
   fun:_GLOBAL__sub_I__ZN59chaos_test_DeathTest_test_crash_scheduled_and_executed_Test10test_info_E
}
{
   <insert_a_suppression_name_here>
   Memcheck:Leak
   match-leak-kinds: reachable
   fun:_Znwm
   fun:_ZN9__gnu_cxx13new_allocatorISt13_Rb_tree_nodeISt4pairIKcmEEE8allocateEmPKv
   fun:_ZNSt16allocator_traitsISaISt13_Rb_tree_nodeISt4pairIKcmEEEE8allocateERS5_m
   fun:_ZNSt8_Rb_treeIcSt4pairIKcmESt10_Select1stIS2_ESt4lessIcESaIS2_EE11_M_get_nodeEv
   fun:_ZNSt8_Rb_treeIcSt4pairIKcmESt10_Select1stIS2_ESt4lessIcESaIS2_EE14_M_create_nodeIJRKS2_EEEPSt13_Rb_tree_nodeIS2_EDpOT_
   fun:_ZNKSt8_Rb_treeIcSt4pairIKcmESt10_Select1stIS2_ESt4lessIcESaIS2_EE11_Alloc_nodeclIRKS2_EEPSt13_Rb_tree_nodeIS2_EOT_
   fun:_ZNSt8_Rb_treeIcSt4pairIKcmESt10_Select1stIS2_ESt4lessIcESaIS2_EE10_M_insert_IRKS2_NS8_11_Alloc_nodeEEESt17_Rb_tree_iteratorIS2_EPSt18_Rb_tree_node_baseSG_OT_RT0_
   fun:_ZNSt8_Rb_treeIcSt4pairIKcmESt10_Select1stIS2_ESt4lessIcESaIS2_EE17_M_insert_unique_IRKS2_NS8_11_Alloc_nodeEEESt17_Rb_tree_iteratorIS2_ESt23_Rb_tree_const_iteratorIS2_EOT_RT0_
   fun:_ZNSt8_Rb_treeIcSt4pairIKcmESt10_Select1stIS2_ESt4lessIcESaIS2_EE16_M_insert_uniqueIPKS2_EEvT_SC_
   fun:_ZNSt3mapIcmSt4lessIcESaISt4pairIKcmEEEC1ESt16initializer_listIS4_ERKS1_RKS5_
   fun:_Z41__static_initialization_and_destruction_0ii
   fun:_GLOBAL__sub_I__ZN3bzn5chaosC2ESt10shared_ptrINS_4asio15io_context_baseEES1_INS_12options_baseEE
}
{
   <insert_a_suppression_name_here>
   Memcheck:Leak
   match-leak-kinds: reachable
   fun:_Znwm
   fun:_ZN9__gnu_cxx13new_allocatorISt13_Rb_tree_nodeISt4pairIKcmEEE8allocateEmPKv
   fun:_ZNSt16allocator_traitsISaISt13_Rb_tree_nodeISt4pairIKcmEEEE8allocateERS5_m
   fun:_ZNSt8_Rb_treeIcSt4pairIKcmESt10_Select1stIS2_ESt4lessIcESaIS2_EE11_M_get_nodeEv
   fun:_ZNSt8_Rb_treeIcSt4pairIKcmESt10_Select1stIS2_ESt4lessIcESaIS2_EE14_M_create_nodeIJRKS2_EEEPSt13_Rb_tree_nodeIS2_EDpOT_
   fun:_ZNKSt8_Rb_treeIcSt4pairIKcmESt10_Select1stIS2_ESt4lessIcESaIS2_EE11_Alloc_nodeclIRKS2_EEPSt13_Rb_tree_nodeIS2_EOT_
   fun:_ZNSt8_Rb_treeIcSt4pairIKcmESt10_Select1stIS2_ESt4lessIcESaIS2_EE10_M_insert_IRKS2_NS8_11_Alloc_nodeEEESt17_Rb_tree_iteratorIS2_EPSt18_Rb_tree_node_baseSG_OT_RT0_
   fun:_ZNSt8_Rb_treeIcSt4pairIKcmESt10_Select1stIS2_ESt4lessIcESaIS2_EE17_M_insert_unique_IRKS2_NS8_11_Alloc_nodeEEESt17_Rb_tree_iteratorIS2_ESt23_Rb_tree_const_iteratorIS2_EOT_RT0_
   fun:_ZNSt8_Rb_treeIcSt4pairIKcmESt10_Select1stIS2_ESt4lessIcESaIS2_EE16_M_insert_uniqueIPKS2_EEvT_SC_
   fun:_ZNSt3mapIcmSt4lessIcESaISt4pairIKcmEEEC1ESt16initializer_listIS4_ERKS1_RKS5_
   fun:_Z41__static_initialization_and_destruction_0ii
   fun:_GLOBAL__sub_I__ZN3bzn7options18parse_command_lineEiPPKc
}
{
   <insert_a_suppression_name_here>
   Memcheck:Leak
   match-leak-kinds: reachable
   fun:_Znwm
   fun:_ZN7testing8internal12UnitTestImpl11GetTestCaseEPKcS3_PFvvES5_
   fun:_ZN7testing8internal12UnitTestImpl11AddTestInfoEPFvvES3_PNS_8TestInfoE
   fun:_ZN7testing8internal23MakeAndRegisterTestInfoEPKcS2_S2_S2_NS0_12CodeLocationEPKvPFvvES7_PNS0_15TestFactoryBaseE
   fun:_Z41__static_initialization_and_destruction_0ii
   fun:_GLOBAL__sub_I__ZN59chaos_test_DeathTest_test_crash_scheduled_and_executed_Test10test_info_E
   fun:__libc_csu_init
   fun:(below main)
}
{
   <insert_a_suppression_name_here>
   Memcheck:Leak
   match-leak-kinds: reachable
   fun:_Znwm
   fun:_ZN7testing4TestC1Ev
   fun:_ZN10chaos_testC1Ev
   fun:_ZN59chaos_test_DeathTest_test_crash_scheduled_and_executed_TestC1Ev
   fun:_ZN7testing8internal15TestFactoryImplI59chaos_test_DeathTest_test_crash_scheduled_and_executed_TestE10CreateTestEv
   fun:_ZN7testing8internal38HandleSehExceptionsInMethodIfSupportedINS0_15TestFactoryBaseEPNS_4TestEEET0_PT_MS6_FS5_vEPKc
   fun:_ZN7testing8internal35HandleExceptionsInMethodIfSupportedINS0_15TestFactoryBaseEPNS_4TestEEET0_PT_MS6_FS5_vEPKc
   fun:_ZN7testing8TestInfo3RunEv
   fun:_ZN7testing8TestCase3RunEv
   fun:_ZN7testing8internal12UnitTestImpl11RunAllTestsEv
   fun:_ZN7testing8internal38HandleSehExceptionsInMethodIfSupportedINS0_12UnitTestImplEbEET0_PT_MS4_FS3_vEPKc
   fun:_ZN7testing8internal35HandleExceptionsInMethodIfSupportedINS0_12UnitTestImplEbEET0_PT_MS4_FS3_vEPKc
}
{
   <insert_a_suppression_name_here>
   Memcheck:Leak
   match-leak-kinds: reachable
   fun:malloc
   fun:regcomp
   fun:_ZN7testing8internal2RE4InitEPKc
   fun:_ZN7testing8internal2REC1EPKc
   fun:_ZN59chaos_test_DeathTest_test_crash_scheduled_and_executed_Test8TestBodyEv
   fun:_ZN7testing8internal38HandleSehExceptionsInMethodIfSupportedINS_4TestEvEET0_PT_MS4_FS3_vEPKc
   fun:_ZN7testing8internal35HandleExceptionsInMethodIfSupportedINS_4TestEvEET0_PT_MS4_FS3_vEPKc
   fun:_ZN7testing4Test3RunEv
   fun:_ZN7testing8TestInfo3RunEv
   fun:_ZN7testing8TestCase3RunEv
   fun:_ZN7testing8internal12UnitTestImpl11RunAllTestsEv
   fun:_ZN7testing8internal38HandleSehExceptionsInMethodIfSupportedINS0_12UnitTestImplEbEET0_PT_MS4_FS3_vEPKc
}
{
   <insert_a_suppression_name_here>
   Memcheck:Leak
   match-leak-kinds: reachable
   fun:_Znwm
   fun:_ZN7testing8internal23MakeAndRegisterTestInfoEPKcS2_S2_S2_NS0_12CodeLocationEPKvPFvvES7_PNS0_15TestFactoryBaseE
   fun:_Z41__static_initialization_and_destruction_0ii
   fun:_GLOBAL__sub_I__ZN59chaos_test_DeathTest_test_crash_scheduled_and_executed_Test10test_info_E
   fun:__libc_csu_init
   fun:(below main)
}
{
   <insert_a_suppression_name_here>
   Memcheck:Leak
   match-leak-kinds: reachable
   fun:_Znwm
   fun:_ZN7testing8internal18FunctionMockerBaseIFSt10unique_ptrIN3bzn4asio17steady_timer_baseESt14default_deleteIS5_EEvEE17AddNewExpectationEPKciRKNSt7__cxx1112basic_stringIcSt11char_traitsIcESaIcEEERKSt5tupleIJEE
   fun:_ZN7testing8internal8MockSpecIFSt10unique_ptrIN3bzn4asio17steady_timer_baseESt14default_deleteIS5_EEvEE18InternalExpectedAtEPKciSC_SC_
   fun:_ZN10chaos_testC1Ev
   fun:_ZN59chaos_test_DeathTest_test_crash_scheduled_and_executed_TestC1Ev
   fun:_ZN7testing8internal15TestFactoryImplI59chaos_test_DeathTest_test_crash_scheduled_and_executed_TestE10CreateTestEv
   fun:_ZN7testing8internal38HandleSehExceptionsInMethodIfSupportedINS0_15TestFactoryBaseEPNS_4TestEEET0_PT_MS6_FS5_vEPKc
   fun:_ZN7testing8internal35HandleExceptionsInMethodIfSupportedINS0_15TestFactoryBaseEPNS_4TestEEET0_PT_MS6_FS5_vEPKc
   fun:_ZN7testing8TestInfo3RunEv
   fun:_ZN7testing8TestCase3RunEv
   fun:_ZN7testing8internal12UnitTestImpl11RunAllTestsEv
   fun:_ZN7testing8internal38HandleSehExceptionsInMethodIfSupportedINS0_12UnitTestImplEbEET0_PT_MS4_FS3_vEPKc
}
{
   <insert_a_suppression_name_here>
   Memcheck:Leak
   match-leak-kinds: reachable
   fun:_Znwm
   fun:_ZN9__gnu_cxx13new_allocatorISt13_Rb_tree_nodeISt4pairIKNSt7__cxx1112basic_stringIcSt11char_traitsIcESaIcEEEN5boost15program_options14variable_valueEEEE8allocateEmPKv
   fun:_ZNSt16allocator_traitsISaISt13_Rb_tree_nodeISt4pairIKNSt7__cxx1112basic_stringIcSt11char_traitsIcESaIcEEEN5boost15program_options14variable_valueEEEEE8allocateERSE_m
   fun:_ZNSt8_Rb_treeINSt7__cxx1112basic_stringIcSt11char_traitsIcESaIcEEESt4pairIKS5_N5boost15program_options14variable_valueEESt10_Select1stISB_ESt4lessIS5_ESaISB_EE11_M_get_nodeEv
   fun:_ZNSt8_Rb_treeINSt7__cxx1112basic_stringIcSt11char_traitsIcESaIcEEESt4pairIKS5_N5boost15program_options14variable_valueEESt10_Select1stISB_ESt4lessIS5_ESaISB_EE14_M_create_nodeIJRKSt21piecewise_construct_tSt5tupleIJRS7_EESM_IJEEEEEPSt13_Rb_tree_nodeISB_EDpOT_
   fun:_ZNSt8_Rb_treeINSt7__cxx1112basic_stringIcSt11char_traitsIcESaIcEEESt4pairIKS5_N5boost15program_options14variable_valueEESt10_Select1stISB_ESt4lessIS5_ESaISB_EE22_M_emplace_hint_uniqueIJRKSt21piecewise_construct_tSt5tupleIJRS7_EESM_IJEEEEESt17_Rb_tree_iteratorISB_ESt23_Rb_tree_const_iteratorISB_EDpOT_
   fun:_ZNSt3mapINSt7__cxx1112basic_stringIcSt11char_traitsIcESaIcEEEN5boost15program_options14variable_valueESt4lessIS5_ESaISt4pairIKS5_S8_EEEixERSC_
   fun:_ZN5boost15program_options5storeERKNS0_20basic_parsed_optionsIcEERNS0_13variables_mapEb
   fun:_ZN3bzn14simple_options15combine_optionsEv
   fun:_ZN3bzn14simple_options3setERKNSt7__cxx1112basic_stringIcSt11char_traitsIcESaIcEEES8_
   fun:_ZN10chaos_testC1Ev
   fun:_ZN59chaos_test_DeathTest_test_crash_scheduled_and_executed_TestC1Ev
}
{
   <insert_a_suppression_name_here>
   Memcheck:Leak
   match-leak-kinds: reachable
   fun:_Znwm
   fun:_ZN7testing8internal18FunctionMockerBaseIFvSt8functionIFvRKN5boost6system10error_codeEEEEE17AddNewExpectationEPKciRKNSt7__cxx1112basic_stringIcSt11char_traitsIcESaIcEEERKSt5tupleIJNS_7MatcherIS9_EEEE
   fun:_ZN7testing8internal8MockSpecIFvSt8functionIFvRKN5boost6system10error_codeEEEEE18InternalExpectedAtEPKciSD_SD_
   fun:_ZN10chaos_testC1Ev
   fun:_ZN59chaos_test_DeathTest_test_crash_scheduled_and_executed_TestC1Ev
   fun:_ZN7testing8internal15TestFactoryImplI59chaos_test_DeathTest_test_crash_scheduled_and_executed_TestE10CreateTestEv
   fun:_ZN7testing8internal38HandleSehExceptionsInMethodIfSupportedINS0_15TestFactoryBaseEPNS_4TestEEET0_PT_MS6_FS5_vEPKc
   fun:_ZN7testing8internal35HandleExceptionsInMethodIfSupportedINS0_15TestFactoryBaseEPNS_4TestEEET0_PT_MS6_FS5_vEPKc
   fun:_ZN7testing8TestInfo3RunEv
   fun:_ZN7testing8TestCase3RunEv
   fun:_ZN7testing8internal12UnitTestImpl11RunAllTestsEv
   fun:_ZN7testing8internal38HandleSehExceptionsInMethodIfSupportedINS0_12UnitTestImplEbEET0_PT_MS4_FS3_vEPKc
}
{
   <insert_a_suppression_name_here>
   Memcheck:Leak
   match-leak-kinds: reachable
   fun:_Znwm
   fun:_ZN5boost6detail8heap_newINS0_26externally_launched_threadEEEPT_v
   fun:_ZN5boost6detail25make_external_thread_dataEv
   fun:_ZN5boost6detail31get_or_make_current_thread_dataEv
   fun:_ZN5boost6detail24add_thread_exit_functionEPNS0_25thread_exit_function_baseE
   fun:_ZN5boost11this_thread14at_thread_exitINS_3_bi6bind_tINS2_11unspecifiedENS_15checked_deleterImEENS2_5list1INS2_5valueIPmEEEEEEEEvT_
   fun:_ZN5boost3log12v2s_mt_posix7sources3aux18get_severity_levelEv
   fun:_ZN5boost3log12v2s_mt_posix7sources3aux14severity_levelINS1_7trivial14severity_levelEE9set_valueES6_
   fun:_ZN5boost3log12v2s_mt_posix7sources21basic_severity_loggerINS2_12basic_loggerIcNS2_18severity_logger_mtINS1_7trivial14severity_levelEEENS2_18multi_thread_modelINS1_3aux14light_rw_mutexEEEEES7_E20open_record_unlockedINS_9parameter3aux15tagged_argumentINS1_8keywords3tag8severityEKS7_EEEENS1_6recordERKT_
   fun:_ZN5boost3log12v2s_mt_posix7sources22basic_composite_loggerIcNS2_18severity_logger_mtINS1_7trivial14severity_levelEEENS2_18multi_thread_modelINS1_3aux14light_rw_mutexEEENS2_8featuresIJNS2_8severityIS6_EEEEEE11open_recordINS_9parameter3aux15tagged_argumentINS1_8keywords3tag8severityEKS6_EEEENS1_6recordERKT_
   fun:_ZN3bzn5chaos17start_crash_timerEv
   fun:_ZZN3bzn5chaos5startEvENKUlvE_clEv
}
{
   <insert_a_suppression_name_here>
   Memcheck:Leak
   match-leak-kinds: reachable
   fun:_Znwm
   fun:_ZNK5boost3any6holderINSt7__cxx1112basic_stringIcSt11char_traitsIcESaIcEEEE5cloneEv
   fun:_ZN5boost3anyC1ERKS0_
   fun:_ZN5boost15program_options14variable_valueC1ERKNS_3anyEb
   fun:_ZN5boost15program_options5storeERKNS0_20basic_parsed_optionsIcEERNS0_13variables_mapEb
   fun:_ZN3bzn14simple_options15combine_optionsEv
   fun:_ZN3bzn14simple_options3setERKNSt7__cxx1112basic_stringIcSt11char_traitsIcESaIcEEES8_
   fun:_ZN10chaos_testC1Ev
   fun:_ZN59chaos_test_DeathTest_test_crash_scheduled_and_executed_TestC1Ev
   fun:_ZN7testing8internal15TestFactoryImplI59chaos_test_DeathTest_test_crash_scheduled_and_executed_TestE10CreateTestEv
   fun:_ZN7testing8internal38HandleSehExceptionsInMethodIfSupportedINS0_15TestFactoryBaseEPNS_4TestEEET0_PT_MS6_FS5_vEPKc
   fun:_ZN7testing8internal35HandleExceptionsInMethodIfSupportedINS0_15TestFactoryBaseEPNS_4TestEEET0_PT_MS6_FS5_vEPKc
}
{
   <insert_a_suppression_name_here>
   Memcheck:Leak
   match-leak-kinds: reachable
   fun:_Znwm
   fun:_ZN9__gnu_cxx13new_allocatorIcE8allocateEmPKv
   fun:_ZNSt16allocator_traitsISaIcEE8allocateERS0_m
   fun:_ZNSt7__cxx1112basic_stringIcSt11char_traitsIcESaIcEE9_M_createERmm
   fun:_ZNSt7__cxx1112basic_stringIcSt11char_traitsIcESaIcEE12_M_constructIPcEEvT_S7_St20forward_iterator_tag
   fun:_ZNSt7__cxx1112basic_stringIcSt11char_traitsIcESaIcEE16_M_construct_auxIPcEEvT_S7_St12__false_type
   fun:_ZNSt7__cxx1112basic_stringIcSt11char_traitsIcESaIcEE12_M_constructIPcEEvT_S7_
   fun:_ZNSt7__cxx1112basic_stringIcSt11char_traitsIcESaIcEEC1ERKS4_
   fun:_ZNSt4pairIKNSt7__cxx1112basic_stringIcSt11char_traitsIcESaIcEEEN5boost15program_options14variable_valueEEC1IJRS6_EJLm0EEJEJEEERSt5tupleIJDpT_EERSD_IJDpT1_EESt12_Index_tupleIJXspT0_EEESM_IJXspT2_EEE
   fun:_ZNSt4pairIKNSt7__cxx1112basic_stringIcSt11char_traitsIcESaIcEEEN5boost15program_options14variable_valueEEC1IJRS6_EJEEESt21piecewise_construct_tSt5tupleIJDpT_EESE_IJDpT0_EE
   fun:_ZN9__gnu_cxx13new_allocatorISt13_Rb_tree_nodeISt4pairIKNSt7__cxx1112basic_stringIcSt11char_traitsIcESaIcEEEN5boost15program_options14variable_valueEEEE9constructISD_JRKSt21piecewise_construct_tSt5tupleIJRS9_EESK_IJEEEEEvPT_DpOT0_
   fun:_ZNSt16allocator_traitsISaISt13_Rb_tree_nodeISt4pairIKNSt7__cxx1112basic_stringIcSt11char_traitsIcESaIcEEEN5boost15program_options14variable_valueEEEEE9constructISC_JRKSt21piecewise_construct_tSt5tupleIJRS8_EESK_IJEEEEEvRSE_PT_DpOT0_
}
{
   <insert_a_suppression_name_here>
   Memcheck:Leak
   match-leak-kinds: reachable
   fun:_Znwm
   fun:_ZN5boost3log12v2s_mt_posix13attribute_setC1Ev
   fun:_ZN5boost3log12v2s_mt_posix4core14implementationC1Ev
   fun:_ZN5boost3log12v2s_mt_posix4coreC1Ev
   fun:_ZN5boost3log12v2s_mt_posix4core14implementation13init_instanceEv
   fun:_ZN5boost3log12v2s_mt_posix3aux14lazy_singletonINS1_4core14implementationENS_10shared_ptrIS4_EEE3getEv
   fun:_ZN5boost3log12v2s_mt_posix4core3getEv
   fun:_ZN5boost3log12v2s_mt_posix7sources12basic_loggerIcNS2_18severity_logger_mtINS1_7trivial14severity_levelEEENS2_18multi_thread_modelINS1_3aux14light_rw_mutexEEEEC1INS_9parameter3aux15tagged_argumentINS1_8keywords3tag8severityEKS6_EEEERKT_
   fun:_ZN5boost3log12v2s_mt_posix7sources21basic_severity_loggerINS2_12basic_loggerIcNS2_18severity_logger_mtINS1_7trivial14severity_levelEEENS2_18multi_thread_modelINS1_3aux14light_rw_mutexEEEEES7_EC1INS_9parameter3aux15tagged_argumentINS1_8keywords3tag8severityEKS7_EEEERKT_
   fun:_ZN5boost3log12v2s_mt_posix7sources22basic_composite_loggerIcNS2_18severity_logger_mtINS1_7trivial14severity_levelEEENS2_18multi_thread_modelINS1_3aux14light_rw_mutexEEENS2_8featuresIJNS2_8severityIS6_EEEEEEC1INS_9parameter3aux15tagged_argumentINS1_8keywords3tag8severityEKS6_EEEERKT_
   fun:_ZN5boost3log12v2s_mt_posix7sources18severity_logger_mtINS1_7trivial14severity_levelEEC1INS_9parameter3aux15tagged_argumentINS1_8keywords3tag8severityEKS5_EEEERKT_NS_11enable_if_cIXsrNS_3mpl3or_INS_10is_base_ofINS9_20tagged_argument_baseESG_EENSM_INS9_14empty_arg_listESG_EEN4mpl_5bool_ILb0EEEST_ST_EE5valueENS1_3aux12sfinae_dummyEE4typeE
   fun:_ZN5boost3log12v2s_mt_posix7trivial6logger16construct_loggerEv
}
{
   <insert_a_suppression_name_here>
   Memcheck:Leak
   match-leak-kinds: reachable
   fun:_Znwm
   fun:_ZN5boost3log12v2s_mt_posix13attribute_setC1Ev
   fun:_ZN5boost3log12v2s_mt_posix7sources12basic_loggerIcNS2_18severity_logger_mtINS1_7trivial14severity_levelEEENS2_18multi_thread_modelINS1_3aux14light_rw_mutexEEEEC1INS_9parameter3aux15tagged_argumentINS1_8keywords3tag8severityEKS6_EEEERKT_
   fun:_ZN5boost3log12v2s_mt_posix7sources21basic_severity_loggerINS2_12basic_loggerIcNS2_18severity_logger_mtINS1_7trivial14severity_levelEEENS2_18multi_thread_modelINS1_3aux14light_rw_mutexEEEEES7_EC1INS_9parameter3aux15tagged_argumentINS1_8keywords3tag8severityEKS7_EEEERKT_
   fun:_ZN5boost3log12v2s_mt_posix7sources22basic_composite_loggerIcNS2_18severity_logger_mtINS1_7trivial14severity_levelEEENS2_18multi_thread_modelINS1_3aux14light_rw_mutexEEENS2_8featuresIJNS2_8severityIS6_EEEEEEC1INS_9parameter3aux15tagged_argumentINS1_8keywords3tag8severityEKS6_EEEERKT_
   fun:_ZN5boost3log12v2s_mt_posix7sources18severity_logger_mtINS1_7trivial14severity_levelEEC1INS_9parameter3aux15tagged_argumentINS1_8keywords3tag8severityEKS5_EEEERKT_NS_11enable_if_cIXsrNS_3mpl3or_INS_10is_base_ofINS9_20tagged_argument_baseESG_EENSM_INS9_14empty_arg_listESG_EEN4mpl_5bool_ILb0EEEST_ST_EE5valueENS1_3aux12sfinae_dummyEE4typeE
   fun:_ZN5boost3log12v2s_mt_posix7trivial6logger16construct_loggerEv
   fun:_ZN5boost3log12v2s_mt_posix7sources3aux16logger_singletonINS1_7trivial6loggerEE16construct_loggerEv
   fun:_ZN5boost3log12v2s_mt_posix7sources3aux14global_storage11get_or_initENS_9typeindex14stl_type_indexEPFNS_10shared_ptrINS3_18logger_holder_baseEEEvE
   fun:_ZN5boost3log12v2s_mt_posix7sources3aux16logger_singletonINS1_7trivial6loggerEE13init_instanceEv
   fun:_ZN5boost3log12v2s_mt_posix3aux14lazy_singletonINS1_7sources3aux16logger_singletonINS1_7trivial6loggerEEENS_10shared_ptrINS5_13logger_holderINS4_18severity_logger_mtINS7_14severity_levelEEEEEEEE3getEv
   fun:_ZN5boost3log12v2s_mt_posix7sources3aux16logger_singletonINS1_7trivial6loggerEE3getEv
}
{
   <insert_a_suppression_name_here>
   Memcheck:Leak
   match-leak-kinds: reachable
   fun:_Znwm
   fun:_ZN5boost3log12v2s_mt_posix13attribute_setC1Ev
   fun:_ZN5boost3log12v2s_mt_posix4core14implementation11thread_dataC1Ev
   fun:_ZN5boost3log12v2s_mt_posix4core14implementation16init_thread_dataEv
   fun:_ZN5boost3log12v2s_mt_posix4core14implementation15get_thread_dataEv
   fun:open_record<const boost::log::v2s_mt_posix::attribute_set&>
   fun:_ZN5boost3log12v2s_mt_posix4core11open_recordERKNS1_13attribute_setE
   fun:_ZN5boost3log12v2s_mt_posix7sources12basic_loggerIcNS2_18severity_logger_mtINS1_7trivial14severity_levelEEENS2_18multi_thread_modelINS1_3aux14light_rw_mutexEEEE20open_record_unlockedINS_9parameter3aux15tagged_argumentINS1_8keywords3tag8severityEKS6_EEEENS1_6recordERKT_
   fun:_ZN5boost3log12v2s_mt_posix7sources21basic_severity_loggerINS2_12basic_loggerIcNS2_18severity_logger_mtINS1_7trivial14severity_levelEEENS2_18multi_thread_modelINS1_3aux14light_rw_mutexEEEEES7_E20open_record_unlockedINS_9parameter3aux15tagged_argumentINS1_8keywords3tag8severityEKS7_EEEENS1_6recordERKT_
   fun:_ZN5boost3log12v2s_mt_posix7sources22basic_composite_loggerIcNS2_18severity_logger_mtINS1_7trivial14severity_levelEEENS2_18multi_thread_modelINS1_3aux14light_rw_mutexEEENS2_8featuresIJNS2_8severityIS6_EEEEEE11open_recordINS_9parameter3aux15tagged_argumentINS1_8keywords3tag8severityEKS6_EEEENS1_6recordERKT_
   fun:_ZN3bzn5chaos17start_crash_timerEv
   fun:_ZZN3bzn5chaos5startEvENKUlvE_clEv
   fun:_ZSt13__invoke_implIvZN3bzn5chaos5startEvEUlvE_JEET_St14__invoke_otherOT0_DpOT1_
}
{
   <insert_a_suppression_name_here>
   Memcheck:Leak
   match-leak-kinds: reachable
   fun:_Znwm
   fun:_ZN9__gnu_cxx13new_allocatorISt13_Rb_tree_nodeISt4pairIKNSt7__cxx1112basic_stringIcSt11char_traitsIcESaIcEEES8_EEE8allocateEmPKv
   fun:_ZNSt16allocator_traitsISaISt13_Rb_tree_nodeISt4pairIKNSt7__cxx1112basic_stringIcSt11char_traitsIcESaIcEEES7_EEEE8allocateERSB_m
   fun:_ZNSt8_Rb_treeINSt7__cxx1112basic_stringIcSt11char_traitsIcESaIcEEESt4pairIKS5_S5_ESt10_Select1stIS8_ESt4lessIS5_ESaIS8_EE11_M_get_nodeEv
   fun:_ZNSt8_Rb_treeINSt7__cxx1112basic_stringIcSt11char_traitsIcESaIcEEESt4pairIKS5_S5_ESt10_Select1stIS8_ESt4lessIS5_ESaIS8_EE14_M_create_nodeIJRKSt21piecewise_construct_tSt5tupleIJRS7_EESJ_IJEEEEEPSt13_Rb_tree_nodeIS8_EDpOT_
   fun:_ZNSt8_Rb_treeINSt7__cxx1112basic_stringIcSt11char_traitsIcESaIcEEESt4pairIKS5_S5_ESt10_Select1stIS8_ESt4lessIS5_ESaIS8_EE22_M_emplace_hint_uniqueIJRKSt21piecewise_construct_tSt5tupleIJRS7_EESJ_IJEEEEESt17_Rb_tree_iteratorIS8_ESt23_Rb_tree_const_iteratorIS8_EDpOT_
   fun:_ZNSt3mapINSt7__cxx1112basic_stringIcSt11char_traitsIcESaIcEEES5_St4lessIS5_ESaISt4pairIKS5_S5_EEEixERS9_
   fun:_ZN5boost15program_options5storeERKNS0_20basic_parsed_optionsIcEERNS0_13variables_mapEb
   fun:_ZN3bzn14simple_options15combine_optionsEv
   fun:_ZN3bzn14simple_options3setERKNSt7__cxx1112basic_stringIcSt11char_traitsIcESaIcEEES8_
   fun:_ZN10chaos_testC1Ev
   fun:_ZN59chaos_test_DeathTest_test_crash_scheduled_and_executed_TestC1Ev
}
{
   <insert_a_suppression_name_here>
   Memcheck:Leak
   match-leak-kinds: reachable
   fun:_Znwm
   fun:_ZSt11make_uniqueIN7testing8NiceMockIN3bzn4asio21Mocksteady_timer_baseEEEJEENSt9_MakeUniqIT_E15__single_objectEDpOT0_
   fun:_ZN10chaos_testC1Ev
   fun:_ZN59chaos_test_DeathTest_test_crash_scheduled_and_executed_TestC1Ev
   fun:_ZN7testing8internal15TestFactoryImplI59chaos_test_DeathTest_test_crash_scheduled_and_executed_TestE10CreateTestEv
   fun:_ZN7testing8internal38HandleSehExceptionsInMethodIfSupportedINS0_15TestFactoryBaseEPNS_4TestEEET0_PT_MS6_FS5_vEPKc
   fun:_ZN7testing8internal35HandleExceptionsInMethodIfSupportedINS0_15TestFactoryBaseEPNS_4TestEEET0_PT_MS6_FS5_vEPKc
   fun:_ZN7testing8TestInfo3RunEv
   fun:_ZN7testing8TestCase3RunEv
   fun:_ZN7testing8internal12UnitTestImpl11RunAllTestsEv
   fun:_ZN7testing8internal38HandleSehExceptionsInMethodIfSupportedINS0_12UnitTestImplEbEET0_PT_MS4_FS3_vEPKc
   fun:_ZN7testing8internal35HandleExceptionsInMethodIfSupportedINS0_12UnitTestImplEbEET0_PT_MS4_FS3_vEPKc
}
{
   <insert_a_suppression_name_here>
   Memcheck:Leak
   match-leak-kinds: reachable
   fun:_Znwm
   fun:_ZN5boost3log12v2s_mt_posix3aux15stream_providerIcE17allocate_compoundERNS1_6recordE
   fun:_ZN5boost3log12v2s_mt_posix3aux11record_pumpINS1_7sources18severity_logger_mtINS1_7trivial14severity_levelEEEEC1ERS8_RNS1_6recordE
   fun:make_record_pump<boost::log::v2s_mt_posix::sources::severity_logger_mt<boost::log::v2s_mt_posix::trivial::severity_level> >
   fun:_ZN3bzn5chaos17start_crash_timerEv
   fun:_ZZN3bzn5chaos5startEvENKUlvE_clEv
   fun:_ZSt13__invoke_implIvZN3bzn5chaos5startEvEUlvE_JEET_St14__invoke_otherOT0_DpOT1_
   fun:_ZSt8__invokeIZN3bzn5chaos5startEvEUlvE_JEENSt15__invoke_resultIT_JDpT0_EE4typeEOS4_DpOS5_
   fun:_ZZSt9call_onceIZN3bzn5chaos5startEvEUlvE_JEEvRSt9once_flagOT_DpOT0_ENKUlvE_clEv
   fun:_ZZSt9call_onceIZN3bzn5chaos5startEvEUlvE_JEEvRSt9once_flagOT_DpOT0_ENKUlvE0_clEv
   fun:_ZZSt9call_onceIZN3bzn5chaos5startEvEUlvE_JEEvRSt9once_flagOT_DpOT0_ENUlvE0_4_FUNEv
   fun:__pthread_once_slow
   fun:_ZL14__gthread_oncePiPFvvE
}
{
   <insert_a_suppression_name_here>
   Memcheck:Leak
   match-leak-kinds: reachable
   fun:_Znwm
   fun:_ZN9__gnu_cxx13new_allocatorIcE8allocateEmPKv
   fun:_ZNSt16allocator_traitsISaIcEE8allocateERS0_m
   fun:_ZNSt7__cxx1112basic_stringIcSt11char_traitsIcESaIcEE9_M_createERmm
   fun:_ZNSt7__cxx1112basic_stringIcSt11char_traitsIcESaIcEE12_M_constructIPcEEvT_S7_St20forward_iterator_tag
   fun:_ZNSt7__cxx1112basic_stringIcSt11char_traitsIcESaIcEE16_M_construct_auxIPcEEvT_S7_St12__false_type
   fun:_ZNSt7__cxx1112basic_stringIcSt11char_traitsIcESaIcEE12_M_constructIPcEEvT_S7_
   fun:_ZNSt7__cxx1112basic_stringIcSt11char_traitsIcESaIcEEC1ERKS4_
   fun:_ZN9__gnu_cxx13new_allocatorINSt7__cxx1112basic_stringIcSt11char_traitsIcESaIcEEEE9constructIS6_JRKS6_EEEvPT_DpOT0_
   fun:_ZNSt16allocator_traitsISaINSt7__cxx1112basic_stringIcSt11char_traitsIcESaIcEEEEE9constructIS5_JRKS5_EEEvRS6_PT_DpOT0_
   fun:_ZNSt6vectorINSt7__cxx1112basic_stringIcSt11char_traitsIcESaIcEEESaIS5_EE17_M_realloc_insertIJRKS5_EEEvN9__gnu_cxx17__normal_iteratorIPS5_S7_EEDpOT_
   fun:_ZNSt6vectorINSt7__cxx1112basic_stringIcSt11char_traitsIcESaIcEEESaIS5_EE9push_backERKS5_
}
{
   <insert_a_suppression_name_here>
   Memcheck:Leak
   match-leak-kinds: reachable
   fun:_Znwm
   fun:_ZN7testing8UnitTestC1Ev
   fun:_ZN7testing8UnitTest11GetInstanceEv
   fun:_ZN7testing8internal15GetUnitTestImplEv
   fun:_ZN7testing8internal23MakeAndRegisterTestInfoEPKcS2_S2_S2_NS0_12CodeLocationEPKvPFvvES7_PNS0_15TestFactoryBaseE
   fun:_Z41__static_initialization_and_destruction_0ii
   fun:_GLOBAL__sub_I__ZN59chaos_test_DeathTest_test_crash_scheduled_and_executed_Test10test_info_E
   fun:__libc_csu_init
   fun:(below main)
}
{
   <insert_a_suppression_name_here>
   Memcheck:Leak
   match-leak-kinds: reachable
   fun:_Znwm
   fun:_ZN9__gnu_cxx13new_allocatorIN5boost3log12v2s_mt_posix14attribute_name10repository4nodeEE8allocateEmPKv
   fun:_ZNSt16allocator_traitsISaIN5boost3log12v2s_mt_posix14attribute_name10repository4nodeEEE8allocateERS6_m
   fun:_ZNSt11_Deque_baseIN5boost3log12v2s_mt_posix14attribute_name10repository4nodeESaIS5_EE16_M_allocate_nodeEv
   fun:_ZNSt11_Deque_baseIN5boost3log12v2s_mt_posix14attribute_name10repository4nodeESaIS5_EE15_M_create_nodesEPPS5_S9_
   fun:_ZNSt11_Deque_baseIN5boost3log12v2s_mt_posix14attribute_name10repository4nodeESaIS5_EE17_M_initialize_mapEm
   fun:_ZNSt11_Deque_baseIN5boost3log12v2s_mt_posix14attribute_name10repository4nodeESaIS5_EEC1Ev
   fun:_ZNSt5dequeIN5boost3log12v2s_mt_posix14attribute_name10repository4nodeESaIS5_EEC1Ev
   fun:_ZN5boost3log12v2s_mt_posix14attribute_name10repositoryC1Ev
   fun:_ZN5boost11make_sharedINS_3log12v2s_mt_posix14attribute_name10repositoryEJEEENS_6detail15sp_if_not_arrayIT_E4typeEDpOT0_
   fun:_ZN5boost3log12v2s_mt_posix14attribute_name10repository13init_instanceEv
   fun:_ZN5boost3log12v2s_mt_posix3aux14lazy_singletonINS1_14attribute_name10repositoryENS_10shared_ptrIS5_EEE3getEv
}
{
   <insert_a_suppression_name_here>
   Memcheck:Leak
   match-leak-kinds: reachable
   fun:_Znwm
   fun:_ZN9__gnu_cxx13new_allocatorISt23_Sp_counted_ptr_inplaceIN3bzn7optionsESaIS3_ELNS_12_Lock_policyE2EEE8allocateEmPKv
   fun:_ZNSt16allocator_traitsISaISt23_Sp_counted_ptr_inplaceIN3bzn7optionsESaIS2_ELN9__gnu_cxx12_Lock_policyE2EEEE8allocateERS7_m
   fun:_ZSt18__allocate_guardedISaISt23_Sp_counted_ptr_inplaceIN3bzn7optionsESaIS2_ELN9__gnu_cxx12_Lock_policyE2EEEESt15__allocated_ptrIT_ERS9_
   fun:_ZNSt14__shared_countILN9__gnu_cxx12_Lock_policyE2EEC1IN3bzn7optionsESaIS5_EJEEESt19_Sp_make_shared_tagPT_RKT0_DpOT1_
   fun:_ZNSt12__shared_ptrIN3bzn7optionsELN9__gnu_cxx12_Lock_policyE2EEC1ISaIS1_EJEEESt19_Sp_make_shared_tagRKT_DpOT0_
   fun:_ZNSt10shared_ptrIN3bzn7optionsEEC1ISaIS1_EJEEESt19_Sp_make_shared_tagRKT_DpOT0_
   fun:_ZSt15allocate_sharedIN3bzn7optionsESaIS1_EJEESt10shared_ptrIT_ERKT0_DpOT1_
   fun:_ZSt11make_sharedIN3bzn7optionsEJEESt10shared_ptrIT_EDpOT0_
   fun:_ZN10chaos_testC1Ev
   fun:_ZN59chaos_test_DeathTest_test_crash_scheduled_and_executed_TestC1Ev
   fun:_ZN7testing8internal15TestFactoryImplI59chaos_test_DeathTest_test_crash_scheduled_and_executed_TestE10CreateTestEv
}
{
   <insert_a_suppression_name_here>
   Memcheck:Leak
   match-leak-kinds: reachable
   fun:_Znwm
   fun:_ZN9__gnu_cxx13new_allocatorISt23_Sp_counted_ptr_inplaceIN7testing8NiceMockIN3bzn4asio19Mockio_context_baseEEESaIS7_ELNS_12_Lock_policyE2EEE8allocateEmPKv
   fun:_ZNSt16allocator_traitsISaISt23_Sp_counted_ptr_inplaceIN7testing8NiceMockIN3bzn4asio19Mockio_context_baseEEESaIS6_ELN9__gnu_cxx12_Lock_policyE2EEEE8allocateERSB_m
   fun:_ZSt18__allocate_guardedISaISt23_Sp_counted_ptr_inplaceIN7testing8NiceMockIN3bzn4asio19Mockio_context_baseEEESaIS6_ELN9__gnu_cxx12_Lock_policyE2EEEESt15__allocated_ptrIT_ERSD_
   fun:_ZNSt14__shared_countILN9__gnu_cxx12_Lock_policyE2EEC1IN7testing8NiceMockIN3bzn4asio19Mockio_context_baseEEESaIS9_EJEEESt19_Sp_make_shared_tagPT_RKT0_DpOT1_
   fun:_ZNSt12__shared_ptrIN7testing8NiceMockIN3bzn4asio19Mockio_context_baseEEELN9__gnu_cxx12_Lock_policyE2EEC1ISaIS5_EJEEESt19_Sp_make_shared_tagRKT_DpOT0_
   fun:_ZNSt10shared_ptrIN7testing8NiceMockIN3bzn4asio19Mockio_context_baseEEEEC1ISaIS5_EJEEESt19_Sp_make_shared_tagRKT_DpOT0_
   fun:_ZSt15allocate_sharedIN7testing8NiceMockIN3bzn4asio19Mockio_context_baseEEESaIS5_EJEESt10shared_ptrIT_ERKT0_DpOT1_
   fun:_ZSt11make_sharedIN7testing8NiceMockIN3bzn4asio19Mockio_context_baseEEEJEESt10shared_ptrIT_EDpOT0_
   fun:_ZN10chaos_testC1Ev
   fun:_ZN59chaos_test_DeathTest_test_crash_scheduled_and_executed_TestC1Ev
   fun:_ZN7testing8internal15TestFactoryImplI59chaos_test_DeathTest_test_crash_scheduled_and_executed_TestE10CreateTestEv
}
{
   <insert_a_suppression_name_here>
   Memcheck:Leak
   match-leak-kinds: reachable
   fun:_Znwm
   fun:_ZN9__gnu_cxx13new_allocatorIN5boost10shared_ptrINS1_15program_options18option_descriptionEEEE8allocateEmPKv
   fun:_ZNSt16allocator_traitsISaIN5boost10shared_ptrINS0_15program_options18option_descriptionEEEEE8allocateERS5_m
   fun:_ZNSt12_Vector_baseIN5boost10shared_ptrINS0_15program_options18option_descriptionEEESaIS4_EE11_M_allocateEm
   fun:_ZNSt6vectorIN5boost10shared_ptrINS0_15program_options18option_descriptionEEESaIS4_EE17_M_realloc_insertIJRKS4_EEEvN9__gnu_cxx17__normal_iteratorIPS4_S6_EEDpOT_
   fun:_ZNSt6vectorIN5boost10shared_ptrINS0_15program_options18option_descriptionEEESaIS4_EE9push_backERKS4_
   fun:_ZN5boost15program_options19options_description3addENS_10shared_ptrINS0_18option_descriptionEEE
   fun:_ZN5boost15program_options19options_description3addERKS1_
   fun:_ZN3bzn14simple_options13build_optionsEv
   fun:_ZN3bzn14simple_optionsC1Ev
   fun:_ZN3bzn7optionsC1Ev
   fun:_ZN9__gnu_cxx13new_allocatorIN3bzn7optionsEE9constructIS2_JEEEvPT_DpOT0_
}
{
   <insert_a_suppression_name_here>
   Memcheck:Leak
   match-leak-kinds: reachable
   fun:calloc
   fun:__new_exitfn
   fun:__internal_atexit
   fun:__cxa_atexit
   fun:_Z41__static_initialization_and_destruction_0ii
   fun:_GLOBAL__sub_I__ZN59chaos_test_DeathTest_test_crash_scheduled_and_executed_Test10test_info_E
   fun:__libc_csu_init
   fun:(below main)
}
{
   <insert_a_suppression_name_here>
   Memcheck:Leak
   match-leak-kinds: reachable
   fun:calloc
   fun:__new_exitfn
   fun:__internal_atexit
   fun:__cxa_atexit
   fun:_Z41__static_initialization_and_destruction_0ii
   fun:_GLOBAL__sub_I__ZN3bzn5chaosC2ESt10shared_ptrINS_4asio15io_context_baseEES1_INS_12options_baseEE
   fun:__libc_csu_init
   fun:(below main)
}
{
   <insert_a_suppression_name_here>
   Memcheck:Leak
   match-leak-kinds: reachable
   fun:calloc
   fun:__new_exitfn
   fun:__internal_atexit
   fun:__cxa_atexit
   fun:_Z41__static_initialization_and_destruction_0ii
   fun:_GLOBAL__sub_I__ZN3bzn7options18parse_command_lineEiPPKc
   fun:__libc_csu_init
   fun:(below main)
}
{
   <insert_a_suppression_name_here>
   Memcheck:Leak
   match-leak-kinds: reachable
   fun:calloc
   fun:__new_exitfn
   fun:__internal_atexit
   fun:__cxa_atexit
   fun:_Z41__static_initialization_and_destruction_0ii
   fun:_GLOBAL__sub_I__ZN3bzn14simple_optionsC2Ev
   fun:__libc_csu_init
   fun:(below main)
}
{
   <insert_a_suppression_name_here>
   Memcheck:Leak
   match-leak-kinds: reachable
   fun:calloc
   fun:__new_exitfn
   fun:__internal_atexit
   fun:__cxa_atexit
   fun:_Z41__static_initialization_and_destruction_0ii
   fun:_GLOBAL__sub_I__ZN7testing8internal17kStackTraceMarkerE
   fun:__libc_csu_init
   fun:(below main)
}
{
   <insert_a_suppression_name_here>
   Memcheck:Leak
   match-leak-kinds: reachable
   fun:_Znwm
   fun:_ZN9__gnu_cxx13new_allocatorISt23_Sp_counted_ptr_inplaceIN3bzn5chaosESaIS3_ELNS_12_Lock_policyE2EEE8allocateEmPKv
   fun:_ZNSt16allocator_traitsISaISt23_Sp_counted_ptr_inplaceIN3bzn5chaosESaIS2_ELN9__gnu_cxx12_Lock_policyE2EEEE8allocateERS7_m
   fun:_ZSt18__allocate_guardedISaISt23_Sp_counted_ptr_inplaceIN3bzn5chaosESaIS2_ELN9__gnu_cxx12_Lock_policyE2EEEESt15__allocated_ptrIT_ERS9_
   fun:_ZNSt14__shared_countILN9__gnu_cxx12_Lock_policyE2EEC1IN3bzn5chaosESaIS5_EJRSt10shared_ptrINS4_4asio19Mockio_context_baseEERS7_INS4_7optionsEEEEESt19_Sp_make_shared_tagPT_RKT0_DpOT1_
   fun:_ZNSt12__shared_ptrIN3bzn5chaosELN9__gnu_cxx12_Lock_policyE2EEC1ISaIS1_EJRSt10shared_ptrINS0_4asio19Mockio_context_baseEERS7_INS0_7optionsEEEEESt19_Sp_make_shared_tagRKT_DpOT0_
   fun:_ZNSt10shared_ptrIN3bzn5chaosEEC1ISaIS1_EJRS_INS0_4asio19Mockio_context_baseEERS_INS0_7optionsEEEEESt19_Sp_make_shared_tagRKT_DpOT0_
   fun:_ZSt15allocate_sharedIN3bzn5chaosESaIS1_EJRSt10shared_ptrINS0_4asio19Mockio_context_baseEERS3_INS0_7optionsEEEES3_IT_ERKT0_DpOT1_
   fun:_ZSt11make_sharedIN3bzn5chaosEJRSt10shared_ptrINS0_4asio19Mockio_context_baseEERS2_INS0_7optionsEEEES2_IT_EDpOT0_
   fun:_ZN10chaos_test11build_chaosEv
   fun:_ZN59chaos_test_DeathTest_test_crash_scheduled_and_executed_Test8TestBodyEv
   fun:_ZN7testing8internal38HandleSehExceptionsInMethodIfSupportedINS_4TestEvEET0_PT_MS4_FS3_vEPKc
}
{
   <insert_a_suppression_name_here>
   Memcheck:Leak
   match-leak-kinds: reachable
   fun:_Znwm
   fun:_ZN5boost3log12v2s_mt_posix7sources3aux18get_severity_levelEv
   fun:_ZN5boost3log12v2s_mt_posix7sources3aux14severity_levelINS1_7trivial14severity_levelEE9set_valueES6_
   fun:_ZN5boost3log12v2s_mt_posix7sources21basic_severity_loggerINS2_12basic_loggerIcNS2_18severity_logger_mtINS1_7trivial14severity_levelEEENS2_18multi_thread_modelINS1_3aux14light_rw_mutexEEEEES7_E20open_record_unlockedINS_9parameter3aux15tagged_argumentINS1_8keywords3tag8severityEKS7_EEEENS1_6recordERKT_
   fun:_ZN5boost3log12v2s_mt_posix7sources22basic_composite_loggerIcNS2_18severity_logger_mtINS1_7trivial14severity_levelEEENS2_18multi_thread_modelINS1_3aux14light_rw_mutexEEENS2_8featuresIJNS2_8severityIS6_EEEEEE11open_recordINS_9parameter3aux15tagged_argumentINS1_8keywords3tag8severityEKS6_EEEENS1_6recordERKT_
   fun:_ZN3bzn4crud14handle_requestERKNSt7__cxx1112basic_stringIcSt11char_traitsIcESaIcEEERK12database_msgSt10shared_ptrINS_12session_baseEE
   fun:_ZN48crud_test_that_create_sends_proper_response_Test8TestBodyEv
   fun:_ZN7testing8internal38HandleSehExceptionsInMethodIfSupportedINS_4TestEvEET0_PT_MS4_FS3_vEPKc
   fun:_ZN7testing8internal35HandleExceptionsInMethodIfSupportedINS_4TestEvEET0_PT_MS4_FS3_vEPKc
   fun:_ZN7testing4Test3RunEv
   fun:_ZN7testing8TestInfo3RunEv
   fun:_ZN7testing8TestCase3RunEv
}
{
   <insert_a_suppression_name_here>
   Memcheck:Leak
   match-leak-kinds: reachable
   fun:_Znwm
   fun:_ZN5boost3log12v2s_mt_posix3aux11this_thread6get_idEv
   fun:_ZN5boost3log12v2s_mt_posix4core14implementation11thread_data15get_random_seedEv
   fun:_ZN5boost3log12v2s_mt_posix4core14implementation11thread_dataC1Ev
   fun:_ZN5boost3log12v2s_mt_posix4core14implementation16init_thread_dataEv
   fun:_ZN5boost3log12v2s_mt_posix4core14implementation15get_thread_dataEv
   fun:open_record<const boost::log::v2s_mt_posix::attribute_set&>
   fun:_ZN5boost3log12v2s_mt_posix4core11open_recordERKNS1_13attribute_setE
   fun:_ZN5boost3log12v2s_mt_posix7sources12basic_loggerIcNS2_18severity_logger_mtINS1_7trivial14severity_levelEEENS2_18multi_thread_modelINS1_3aux14light_rw_mutexEEEE20open_record_unlockedINS_9parameter3aux15tagged_argumentINS1_8keywords3tag8severityEKS6_EEEENS1_6recordERKT_
   fun:_ZN5boost3log12v2s_mt_posix7sources21basic_severity_loggerINS2_12basic_loggerIcNS2_18severity_logger_mtINS1_7trivial14severity_levelEEENS2_18multi_thread_modelINS1_3aux14light_rw_mutexEEEEES7_E20open_record_unlockedINS_9parameter3aux15tagged_argumentINS1_8keywords3tag8severityEKS7_EEEENS1_6recordERKT_
   fun:_ZN5boost3log12v2s_mt_posix7sources22basic_composite_loggerIcNS2_18severity_logger_mtINS1_7trivial14severity_levelEEENS2_18multi_thread_modelINS1_3aux14light_rw_mutexEEENS2_8featuresIJNS2_8severityIS6_EEEEEE11open_recordINS_9parameter3aux15tagged_argumentINS1_8keywords3tag8severityEKS6_EEEENS1_6recordERKT_
   fun:_ZN3bzn4crud14handle_requestERKNSt7__cxx1112basic_stringIcSt11char_traitsIcESaIcEEERK12database_msgSt10shared_ptrINS_12session_baseEE
   fun:_ZN48crud_test_that_create_sends_proper_response_Test8TestBodyEv
}
{
   <insert_a_suppression_name_here>
   Memcheck:Leak
   match-leak-kinds: reachable
   fun:_Znwm
   obj:/usr/lib/x86_64-linux-gnu/libprotobuf.so.17.0.0
   obj:/usr/lib/x86_64-linux-gnu/libprotobuf.so.17.0.0
   fun:_ZN6google8protobuf14MessageFactory29InternalRegisterGeneratedFileEPKcPFvRKNSt7__cxx1112basic_stringIcSt11char_traitsIcESaIcEEEE
   fun:__pthread_once_slow
   obj:/usr/lib/x86_64-linux-gnu/libprotobuf.so.17.0.0
   fun:call_init
   fun:_dl_init
   obj:/lib/x86_64-linux-gnu/ld-2.27.so
}
{
   <insert_a_suppression_name_here>
   Memcheck:Leak
   match-leak-kinds: reachable
   fun:_Znwm
   fun:_ZN5boost6detail8heap_newINS0_25thread_exit_callback_nodeERPNS0_25thread_exit_function_baseERPS2_EEPT_OT0_OT1_
   fun:_ZN5boost6detail24add_thread_exit_functionEPNS0_25thread_exit_function_baseE
   fun:_ZN5boost11this_thread14at_thread_exitINS_3_bi6bind_tINS2_11unspecifiedENS_15checked_deleterImEENS2_5list1INS2_5valueIPmEEEEEEEEvT_
   fun:_ZN5boost3log12v2s_mt_posix7sources3aux18get_severity_levelEv
   fun:_ZN5boost3log12v2s_mt_posix7sources3aux14severity_levelINS1_7trivial14severity_levelEE9set_valueES6_
   fun:_ZN5boost3log12v2s_mt_posix7sources21basic_severity_loggerINS2_12basic_loggerIcNS2_18severity_logger_mtINS1_7trivial14severity_levelEEENS2_18multi_thread_modelINS1_3aux14light_rw_mutexEEEEES7_E20open_record_unlockedINS_9parameter3aux15tagged_argumentINS1_8keywords3tag8severityEKS7_EEEENS1_6recordERKT_
   fun:_ZN5boost3log12v2s_mt_posix7sources22basic_composite_loggerIcNS2_18severity_logger_mtINS1_7trivial14severity_levelEEENS2_18multi_thread_modelINS1_3aux14light_rw_mutexEEENS2_8featuresIJNS2_8severityIS6_EEEEEE11open_recordINS_9parameter3aux15tagged_argumentINS1_8keywords3tag8severityEKS6_EEEENS1_6recordERKT_
   fun:_ZN3bzn4crud14handle_requestERKNSt7__cxx1112basic_stringIcSt11char_traitsIcESaIcEEERK12database_msgSt10shared_ptrINS_12session_baseEE
   fun:_ZN48crud_test_that_create_sends_proper_response_Test8TestBodyEv
   fun:_ZN7testing8internal38HandleSehExceptionsInMethodIfSupportedINS_4TestEvEET0_PT_MS4_FS3_vEPKc
   fun:_ZN7testing8internal35HandleExceptionsInMethodIfSupportedINS_4TestEvEET0_PT_MS4_FS3_vEPKc
}
{
   <insert_a_suppression_name_here>
   Memcheck:Leak
   match-leak-kinds: reachable
   fun:_Znwm
   fun:_ZN9__gnu_cxx13new_allocatorIcE8allocateEmPKv
   fun:_ZNSt16allocator_traitsISaIcEE8allocateERS0_m
   fun:_ZNSt7__cxx1112basic_stringIcSt11char_traitsIcESaIcEE9_M_createERmm
   obj:/usr/lib/x86_64-linux-gnu/libprotobuf.so.17.0.0
   obj:/usr/lib/x86_64-linux-gnu/libprotobuf.so.17.0.0
   fun:_ZN6google8protobuf24SimpleDescriptorDatabase15DescriptorIndexISt4pairIPKviEE9AddSymbolERKNSt7__cxx1112basic_stringIcSt11char_traitsIcESaIcEEES6_
   fun:_ZN6google8protobuf24SimpleDescriptorDatabase15DescriptorIndexISt4pairIPKviEE7AddFileERKNS0_19FileDescriptorProtoES6_
   fun:_ZN6google8protobuf25EncodedDescriptorDatabase3AddEPKvi
   fun:_ZN6google8protobuf14DescriptorPool24InternalAddGeneratedFileEPKvi
   fun:_ZN40protobuf_google_2fprotobuf_2fany_2eproto18AddDescriptorsImplEv
   fun:__pthread_once_slow
}
{
   <insert_a_suppression_name_here>
   Memcheck:Leak
   match-leak-kinds: reachable
   fun:_Znwm
   fun:_ZN9__gnu_cxx13new_allocatorIcE8allocateEmPKv
   fun:_ZNSt16allocator_traitsISaIcEE8allocateERS0_m
   fun:_ZNSt7__cxx1112basic_stringIcSt11char_traitsIcESaIcEE9_M_createERmm
   obj:/usr/lib/x86_64-linux-gnu/libprotobuf.so.17.0.0
   obj:/usr/lib/x86_64-linux-gnu/libprotobuf.so.17.0.0
   fun:_ZN6google8protobuf24SimpleDescriptorDatabase15DescriptorIndexISt4pairIPKviEE9AddSymbolERKNSt7__cxx1112basic_stringIcSt11char_traitsIcESaIcEEES6_
   fun:_ZN6google8protobuf24SimpleDescriptorDatabase15DescriptorIndexISt4pairIPKviEE7AddFileERKNS0_19FileDescriptorProtoES6_
   fun:_ZN6google8protobuf25EncodedDescriptorDatabase3AddEPKvi
   fun:_ZN6google8protobuf14DescriptorPool24InternalAddGeneratedFileEPKvi
   fun:_ZN21protobuf_pbft_2eproto18AddDescriptorsImplEv
   fun:_ZSt13__invoke_implIvRFvvEJEET_St14__invoke_otherOT0_DpOT1_
}
{
   <insert_a_suppression_name_here>
   Memcheck:Leak
   match-leak-kinds: reachable
   fun:_Znwm
   fun:_ZN9__gnu_cxx13new_allocatorIcE8allocateEmPKv
   fun:_ZNSt16allocator_traitsISaIcEE8allocateERS0_m
   fun:_ZNSt7__cxx1112basic_stringIcSt11char_traitsIcESaIcEE9_M_createERmm
   obj:/usr/lib/x86_64-linux-gnu/libprotobuf.so.17.0.0
   obj:/usr/lib/x86_64-linux-gnu/libprotobuf.so.17.0.0
   fun:_ZN6google8protobuf24SimpleDescriptorDatabase15DescriptorIndexISt4pairIPKviEE9AddSymbolERKNSt7__cxx1112basic_stringIcSt11char_traitsIcESaIcEEES6_
   fun:_ZN6google8protobuf24SimpleDescriptorDatabase15DescriptorIndexISt4pairIPKviEE7AddFileERKNS0_19FileDescriptorProtoES6_
   fun:_ZN6google8protobuf25EncodedDescriptorDatabase3AddEPKvi
   fun:_ZN6google8protobuf14DescriptorPool24InternalAddGeneratedFileEPKvi
   fun:_ZN42protobuf_google_2fprotobuf_2fempty_2eproto18AddDescriptorsImplEv
   fun:__pthread_once_slow
}
{
   <insert_a_suppression_name_here>
   Memcheck:Leak
   match-leak-kinds: reachable
   fun:_Znwm
   fun:_ZN9__gnu_cxx13new_allocatorIcE8allocateEmPKv
   fun:_ZNSt16allocator_traitsISaIcEE8allocateERS0_m
   fun:_ZNSt7__cxx1112basic_stringIcSt11char_traitsIcESaIcEE9_M_createERmm
   obj:/usr/lib/x86_64-linux-gnu/libprotobuf.so.17.0.0
   obj:/usr/lib/x86_64-linux-gnu/libprotobuf.so.17.0.0
   fun:_ZN6google8protobuf24SimpleDescriptorDatabase15DescriptorIndexISt4pairIPKviEE9AddSymbolERKNSt7__cxx1112basic_stringIcSt11char_traitsIcESaIcEEES6_
   fun:_ZN6google8protobuf24SimpleDescriptorDatabase15DescriptorIndexISt4pairIPKviEE7AddFileERKNS0_19FileDescriptorProtoES6_
   fun:_ZN6google8protobuf25EncodedDescriptorDatabase3AddEPKvi
   fun:_ZN6google8protobuf14DescriptorPool24InternalAddGeneratedFileEPKvi
   fun:_ZN41protobuf_google_2fprotobuf_2ftype_2eproto18AddDescriptorsImplEv
   fun:__pthread_once_slow
}
{
   <insert_a_suppression_name_here>
   Memcheck:Leak
   match-leak-kinds: reachable
   fun:_Znwm
   fun:_ZN5boost6detail8heap_newINS0_20thread_exit_functionINS_3_bi6bind_tINS3_11unspecifiedENS_15checked_deleterImEENS3_5list1INS3_5valueIPmEEEEEEEERSD_EEPT_OT0_
   fun:_ZN5boost11this_thread14at_thread_exitINS_3_bi6bind_tINS2_11unspecifiedENS_15checked_deleterImEENS2_5list1INS2_5valueIPmEEEEEEEEvT_
   fun:_ZN5boost3log12v2s_mt_posix7sources3aux18get_severity_levelEv
   fun:_ZN5boost3log12v2s_mt_posix7sources3aux14severity_levelINS1_7trivial14severity_levelEE9set_valueES6_
   fun:_ZN5boost3log12v2s_mt_posix7sources21basic_severity_loggerINS2_12basic_loggerIcNS2_18severity_logger_mtINS1_7trivial14severity_levelEEENS2_18multi_thread_modelINS1_3aux14light_rw_mutexEEEEES7_E20open_record_unlockedINS_9parameter3aux15tagged_argumentINS1_8keywords3tag8severityEKS7_EEEENS1_6recordERKT_
   fun:_ZN5boost3log12v2s_mt_posix7sources22basic_composite_loggerIcNS2_18severity_logger_mtINS1_7trivial14severity_levelEEENS2_18multi_thread_modelINS1_3aux14light_rw_mutexEEENS2_8featuresIJNS2_8severityIS6_EEEEEE11open_recordINS_9parameter3aux15tagged_argumentINS1_8keywords3tag8severityEKS6_EEEENS1_6recordERKT_
   fun:_ZN3bzn4crud14handle_requestERKNSt7__cxx1112basic_stringIcSt11char_traitsIcESaIcEEERK12database_msgSt10shared_ptrINS_12session_baseEE
   fun:_ZN48crud_test_that_create_sends_proper_response_Test8TestBodyEv
   fun:_ZN7testing8internal38HandleSehExceptionsInMethodIfSupportedINS_4TestEvEET0_PT_MS4_FS3_vEPKc
   fun:_ZN7testing8internal35HandleExceptionsInMethodIfSupportedINS_4TestEvEET0_PT_MS4_FS3_vEPKc
   fun:_ZN7testing4Test3RunEv
}
{
   <insert_a_suppression_name_here>
   Memcheck:Leak
   match-leak-kinds: reachable
   fun:_Znwm
   fun:_ZN5boost6detail12shared_countC1INS0_16thread_data_baseEEEPT_
   fun:_ZN5boost6detail20sp_pointer_constructINS0_16thread_data_baseES2_EEvPNS_10shared_ptrIT_EEPT0_RNS0_12shared_countE
   fun:_ZN5boost10shared_ptrINS_6detail16thread_data_baseEEC1IS2_EEPT_
   fun:_ZN5boost10shared_ptrINS_6detail16thread_data_baseEE5resetIS2_EEvPT_
   fun:_ZN5boost6detail25make_external_thread_dataEv
   fun:_ZN5boost6detail31get_or_make_current_thread_dataEv
   fun:_ZN5boost6detail24add_thread_exit_functionEPNS0_25thread_exit_function_baseE
   fun:_ZN5boost11this_thread14at_thread_exitINS_3_bi6bind_tINS2_11unspecifiedENS_15checked_deleterImEENS2_5list1INS2_5valueIPmEEEEEEEEvT_
   fun:_ZN5boost3log12v2s_mt_posix7sources3aux18get_severity_levelEv
   fun:_ZN5boost3log12v2s_mt_posix7sources3aux14severity_levelINS1_7trivial14severity_levelEE9set_valueES6_
   fun:_ZN5boost3log12v2s_mt_posix7sources21basic_severity_loggerINS2_12basic_loggerIcNS2_18severity_logger_mtINS1_7trivial14severity_levelEEENS2_18multi_thread_modelINS1_3aux14light_rw_mutexEEEEES7_E20open_record_unlockedINS_9parameter3aux15tagged_argumentINS1_8keywords3tag8severityEKS7_EEEENS1_6recordERKT_
}
{
   <insert_a_suppression_name_here>
   Memcheck:Leak
   match-leak-kinds: reachable
   fun:_Znwm
   fun:_ZN9__gnu_cxx13new_allocatorIcE8allocateEmPKv
   fun:_ZNSt16allocator_traitsISaIcEE8allocateERS0_m
   fun:_ZNSt7__cxx1112basic_stringIcSt11char_traitsIcESaIcEE9_M_createERmm
   obj:/usr/lib/x86_64-linux-gnu/libprotobuf.so.17.0.0
   obj:/usr/lib/x86_64-linux-gnu/libprotobuf.so.17.0.0
   fun:_ZN6google8protobuf24SimpleDescriptorDatabase15DescriptorIndexISt4pairIPKviEE9AddSymbolERKNSt7__cxx1112basic_stringIcSt11char_traitsIcESaIcEEES6_
   fun:_ZN6google8protobuf24SimpleDescriptorDatabase15DescriptorIndexISt4pairIPKviEE7AddFileERKNS0_19FileDescriptorProtoES6_
   fun:_ZN6google8protobuf25EncodedDescriptorDatabase3AddEPKvi
   fun:_ZN6google8protobuf14DescriptorPool24InternalAddGeneratedFileEPKvi
   fun:_ZN45protobuf_google_2fprotobuf_2fduration_2eproto18AddDescriptorsImplEv
   fun:__pthread_once_slow
}
{
   <insert_a_suppression_name_here>
   Memcheck:Leak
   match-leak-kinds: reachable
   fun:_Znwm
   fun:_ZN9__gnu_cxx13new_allocatorIcE8allocateEmPKv
   fun:_ZNSt16allocator_traitsISaIcEE8allocateERS0_m
   fun:_ZNSt7__cxx1112basic_stringIcSt11char_traitsIcESaIcEE9_M_createERmm
   obj:/usr/lib/x86_64-linux-gnu/libprotobuf.so.17.0.0
   fun:_ZN6google8protobuf18InsertIfNotPresentISt3mapINSt7__cxx1112basic_stringIcSt11char_traitsIcESaIcEEESt4pairIPKviESt4lessIS8_ESaIS9_IKS8_SC_EEEEEbPT_RKNSJ_10value_type10first_typeERKNSL_11second_typeE
   fun:_ZN6google8protobuf24SimpleDescriptorDatabase15DescriptorIndexISt4pairIPKviEE7AddFileERKNS0_19FileDescriptorProtoES6_
   fun:_ZN6google8protobuf25EncodedDescriptorDatabase3AddEPKvi
   fun:_ZN6google8protobuf14DescriptorPool24InternalAddGeneratedFileEPKvi
   fun:_ZN40protobuf_google_2fprotobuf_2fany_2eproto18AddDescriptorsImplEv
   fun:__pthread_once_slow
   obj:/usr/lib/x86_64-linux-gnu/libprotobuf.so.17.0.0
}
{
   <insert_a_suppression_name_here>
   Memcheck:Leak
   match-leak-kinds: reachable
   fun:_Znwm
   fun:_ZN9__gnu_cxx13new_allocatorIcE8allocateEmPKv
   fun:_ZNSt16allocator_traitsISaIcEE8allocateERS0_m
   fun:_ZNSt7__cxx1112basic_stringIcSt11char_traitsIcESaIcEE9_M_createERmm
   obj:/usr/lib/x86_64-linux-gnu/libprotobuf.so.17.0.0
   fun:_ZN6google8protobuf18InsertIfNotPresentISt3mapINSt7__cxx1112basic_stringIcSt11char_traitsIcESaIcEEESt4pairIPKviESt4lessIS8_ESaIS9_IKS8_SC_EEEEEbPT_RKNSJ_10value_type10first_typeERKNSL_11second_typeE
   fun:_ZN6google8protobuf24SimpleDescriptorDatabase15DescriptorIndexISt4pairIPKviEE7AddFileERKNS0_19FileDescriptorProtoES6_
   fun:_ZN6google8protobuf25EncodedDescriptorDatabase3AddEPKvi
   fun:_ZN6google8protobuf14DescriptorPool24InternalAddGeneratedFileEPKvi
   fun:_ZN40protobuf_google_2fprotobuf_2fapi_2eproto18AddDescriptorsImplEv
   fun:__pthread_once_slow
   obj:/usr/lib/x86_64-linux-gnu/libprotobuf.so.17.0.0
}
{
   <insert_a_suppression_name_here>
   Memcheck:Leak
   match-leak-kinds: reachable
   fun:_Znwm
   fun:_ZN9__gnu_cxx13new_allocatorIcE8allocateEmPKv
   fun:_ZNSt16allocator_traitsISaIcEE8allocateERS0_m
   fun:_ZNSt7__cxx1112basic_stringIcSt11char_traitsIcESaIcEE9_M_createERmm
   obj:/usr/lib/x86_64-linux-gnu/libprotobuf.so.17.0.0
   obj:/usr/lib/x86_64-linux-gnu/libprotobuf.so.17.0.0
   fun:_ZN6google8protobuf24SimpleDescriptorDatabase15DescriptorIndexISt4pairIPKviEE9AddSymbolERKNSt7__cxx1112basic_stringIcSt11char_traitsIcESaIcEEES6_
   fun:_ZN6google8protobuf24SimpleDescriptorDatabase15DescriptorIndexISt4pairIPKviEE7AddFileERKNS0_19FileDescriptorProtoES6_
   fun:_ZN6google8protobuf25EncodedDescriptorDatabase3AddEPKvi
   fun:_ZN6google8protobuf14DescriptorPool24InternalAddGeneratedFileEPKvi
   fun:_ZN49protobuf_google_2fprotobuf_2ffield_5fmask_2eproto18AddDescriptorsImplEv
   fun:__pthread_once_slow
}
{
   <insert_a_suppression_name_here>
   Memcheck:Leak
   match-leak-kinds: reachable
   fun:_Znwm
   fun:_ZN9__gnu_cxx13new_allocatorIcE8allocateEmPKv
   fun:_ZNSt16allocator_traitsISaIcEE8allocateERS0_m
   fun:_ZNSt7__cxx1112basic_stringIcSt11char_traitsIcESaIcEE9_M_createERmm
   obj:/usr/lib/x86_64-linux-gnu/libprotobuf.so.17.0.0
   obj:/usr/lib/x86_64-linux-gnu/libprotobuf.so.17.0.0
   fun:_ZN6google8protobuf24SimpleDescriptorDatabase15DescriptorIndexISt4pairIPKviEE9AddSymbolERKNSt7__cxx1112basic_stringIcSt11char_traitsIcESaIcEEES6_
   fun:_ZN6google8protobuf24SimpleDescriptorDatabase15DescriptorIndexISt4pairIPKviEE7AddFileERKNS0_19FileDescriptorProtoES6_
   fun:_ZN6google8protobuf25EncodedDescriptorDatabase3AddEPKvi
   fun:_ZN6google8protobuf14DescriptorPool24InternalAddGeneratedFileEPKvi
   fun:_ZN43protobuf_google_2fprotobuf_2fstruct_2eproto18AddDescriptorsImplEv
   fun:__pthread_once_slow
}
{
   <insert_a_suppression_name_here>
   Memcheck:Leak
   match-leak-kinds: reachable
   fun:_Znwm
   fun:_ZN9__gnu_cxx13new_allocatorIcE8allocateEmPKv
   fun:_ZNSt16allocator_traitsISaIcEE8allocateERS0_m
   fun:_ZNSt7__cxx1112basic_stringIcSt11char_traitsIcESaIcEE9_M_createERmm
   obj:/usr/lib/x86_64-linux-gnu/libprotobuf.so.17.0.0
   obj:/usr/lib/x86_64-linux-gnu/libprotobuf.so.17.0.0
   fun:_ZN6google8protobuf24SimpleDescriptorDatabase15DescriptorIndexISt4pairIPKviEE9AddSymbolERKNSt7__cxx1112basic_stringIcSt11char_traitsIcESaIcEEES6_
   fun:_ZN6google8protobuf24SimpleDescriptorDatabase15DescriptorIndexISt4pairIPKviEE7AddFileERKNS0_19FileDescriptorProtoES6_
   fun:_ZN6google8protobuf25EncodedDescriptorDatabase3AddEPKvi
   fun:_ZN6google8protobuf14DescriptorPool24InternalAddGeneratedFileEPKvi
   fun:_ZN46protobuf_google_2fprotobuf_2ftimestamp_2eproto18AddDescriptorsImplEv
   fun:__pthread_once_slow
}
{
   <insert_a_suppression_name_here>
   Memcheck:Leak
   match-leak-kinds: reachable
   fun:_Znwm
   fun:_ZN9__gnu_cxx13new_allocatorIcE8allocateEmPKv
   fun:_ZNSt16allocator_traitsISaIcEE8allocateERS0_m
   fun:_ZNSt7__cxx1112basic_stringIcSt11char_traitsIcESaIcEE9_M_createERmm
   obj:/usr/lib/x86_64-linux-gnu/libprotobuf.so.17.0.0
   fun:_ZN6google8protobuf18InsertIfNotPresentISt3mapINSt7__cxx1112basic_stringIcSt11char_traitsIcESaIcEEESt4pairIPKviESt4lessIS8_ESaIS9_IKS8_SC_EEEEEbPT_RKNSJ_10value_type10first_typeERKNSL_11second_typeE
   fun:_ZN6google8protobuf24SimpleDescriptorDatabase15DescriptorIndexISt4pairIPKviEE7AddFileERKNS0_19FileDescriptorProtoES6_
   fun:_ZN6google8protobuf25EncodedDescriptorDatabase3AddEPKvi
   fun:_ZN6google8protobuf14DescriptorPool24InternalAddGeneratedFileEPKvi
   fun:_ZN41protobuf_google_2fprotobuf_2ftype_2eproto18AddDescriptorsImplEv
   fun:__pthread_once_slow
   obj:/usr/lib/x86_64-linux-gnu/libprotobuf.so.17.0.0
}
{
   <insert_a_suppression_name_here>
   Memcheck:Leak
   match-leak-kinds: reachable
   fun:_Znwm
   fun:_ZN9__gnu_cxx13new_allocatorIcE8allocateEmPKv
   fun:_ZNSt16allocator_traitsISaIcEE8allocateERS0_m
   fun:_ZNSt7__cxx1112basic_stringIcSt11char_traitsIcESaIcEE9_M_createERmm
   obj:/usr/lib/x86_64-linux-gnu/libprotobuf.so.17.0.0
   fun:_ZN6google8protobuf18InsertIfNotPresentISt3mapINSt7__cxx1112basic_stringIcSt11char_traitsIcESaIcEEESt4pairIPKviESt4lessIS8_ESaIS9_IKS8_SC_EEEEEbPT_RKNSJ_10value_type10first_typeERKNSL_11second_typeE
   fun:_ZN6google8protobuf24SimpleDescriptorDatabase15DescriptorIndexISt4pairIPKviEE7AddFileERKNS0_19FileDescriptorProtoES6_
   fun:_ZN6google8protobuf25EncodedDescriptorDatabase3AddEPKvi
   fun:_ZN6google8protobuf14DescriptorPool24InternalAddGeneratedFileEPKvi
   fun:_ZN42protobuf_google_2fprotobuf_2fempty_2eproto18AddDescriptorsImplEv
   fun:__pthread_once_slow
   obj:/usr/lib/x86_64-linux-gnu/libprotobuf.so.17.0.0
}
{
   <insert_a_suppression_name_here>
   Memcheck:Leak
   match-leak-kinds: reachable
   fun:_Znwm
   fun:_ZN9__gnu_cxx13new_allocatorIcE8allocateEmPKv
   fun:_ZNSt16allocator_traitsISaIcEE8allocateERS0_m
   fun:_ZNSt7__cxx1112basic_stringIcSt11char_traitsIcESaIcEE9_M_createERmm
   obj:/usr/lib/x86_64-linux-gnu/libprotobuf.so.17.0.0
   fun:_ZN6google8protobuf18InsertIfNotPresentISt3mapINSt7__cxx1112basic_stringIcSt11char_traitsIcESaIcEEESt4pairIPKviESt4lessIS8_ESaIS9_IKS8_SC_EEEEEbPT_RKNSJ_10value_type10first_typeERKNSL_11second_typeE
   fun:_ZN6google8protobuf24SimpleDescriptorDatabase15DescriptorIndexISt4pairIPKviEE7AddFileERKNS0_19FileDescriptorProtoES6_
   fun:_ZN6google8protobuf25EncodedDescriptorDatabase3AddEPKvi
   fun:_ZN6google8protobuf14DescriptorPool24InternalAddGeneratedFileEPKvi
   fun:_ZN43protobuf_google_2fprotobuf_2fstruct_2eproto18AddDescriptorsImplEv
   fun:__pthread_once_slow
   obj:/usr/lib/x86_64-linux-gnu/libprotobuf.so.17.0.0
}
{
   <insert_a_suppression_name_here>
   Memcheck:Leak
   match-leak-kinds: reachable
   fun:_Znwm
   fun:_ZN9__gnu_cxx13new_allocatorIcE8allocateEmPKv
   fun:_ZNSt16allocator_traitsISaIcEE8allocateERS0_m
   fun:_ZNSt7__cxx1112basic_stringIcSt11char_traitsIcESaIcEE9_M_createERmm
   obj:/usr/lib/x86_64-linux-gnu/libprotobuf.so.17.0.0
   obj:/usr/lib/x86_64-linux-gnu/libprotobuf.so.17.0.0
   fun:_ZN6google8protobuf24SimpleDescriptorDatabase15DescriptorIndexISt4pairIPKviEE9AddSymbolERKNSt7__cxx1112basic_stringIcSt11char_traitsIcESaIcEEES6_
   fun:_ZN6google8protobuf24SimpleDescriptorDatabase15DescriptorIndexISt4pairIPKviEE7AddFileERKNS0_19FileDescriptorProtoES6_
   fun:_ZN6google8protobuf25EncodedDescriptorDatabase3AddEPKvi
   fun:_ZN6google8protobuf14DescriptorPool24InternalAddGeneratedFileEPKvi
   fun:_ZN53protobuf_google_2fprotobuf_2fsource_5fcontext_2eproto18AddDescriptorsImplEv
   fun:__pthread_once_slow
}
{
   <insert_a_suppression_name_here>
   Memcheck:Leak
   match-leak-kinds: reachable
   fun:_Znwm
   fun:_ZN9__gnu_cxx13new_allocatorIcE8allocateEmPKv
   fun:_ZNSt16allocator_traitsISaIcEE8allocateERS0_m
   fun:_ZNSt7__cxx1112basic_stringIcSt11char_traitsIcESaIcEE9_M_createERmm
   obj:/usr/lib/x86_64-linux-gnu/libprotobuf.so.17.0.0
   fun:_ZN6google8protobuf18InsertIfNotPresentISt3mapINSt7__cxx1112basic_stringIcSt11char_traitsIcESaIcEEESt4pairIPKviESt4lessIS8_ESaIS9_IKS8_SC_EEEEEbPT_RKNSJ_10value_type10first_typeERKNSL_11second_typeE
   fun:_ZN6google8protobuf24SimpleDescriptorDatabase15DescriptorIndexISt4pairIPKviEE7AddFileERKNS0_19FileDescriptorProtoES6_
   fun:_ZN6google8protobuf25EncodedDescriptorDatabase3AddEPKvi
   fun:_ZN6google8protobuf14DescriptorPool24InternalAddGeneratedFileEPKvi
   fun:_ZN45protobuf_google_2fprotobuf_2fduration_2eproto18AddDescriptorsImplEv
   fun:__pthread_once_slow
   obj:/usr/lib/x86_64-linux-gnu/libprotobuf.so.17.0.0
}
{
   <insert_a_suppression_name_here>
   Memcheck:Leak
   match-leak-kinds: reachable
   fun:_Znwm
   fun:_ZN9__gnu_cxx13new_allocatorIcE8allocateEmPKv
   fun:_ZNSt16allocator_traitsISaIcEE8allocateERS0_m
   fun:_ZNSt7__cxx1112basic_stringIcSt11char_traitsIcESaIcEE9_M_createERmm
   obj:/usr/lib/x86_64-linux-gnu/libprotobuf.so.17.0.0
   fun:_ZN6google8protobuf18InsertIfNotPresentISt3mapINSt7__cxx1112basic_stringIcSt11char_traitsIcESaIcEEESt4pairIPKviESt4lessIS8_ESaIS9_IKS8_SC_EEEEEbPT_RKNSJ_10value_type10first_typeERKNSL_11second_typeE
   fun:_ZN6google8protobuf24SimpleDescriptorDatabase15DescriptorIndexISt4pairIPKviEE7AddFileERKNS0_19FileDescriptorProtoES6_
   fun:_ZN6google8protobuf25EncodedDescriptorDatabase3AddEPKvi
   fun:_ZN6google8protobuf14DescriptorPool24InternalAddGeneratedFileEPKvi
   fun:_ZN45protobuf_google_2fprotobuf_2fwrappers_2eproto18AddDescriptorsImplEv
   fun:__pthread_once_slow
   obj:/usr/lib/x86_64-linux-gnu/libprotobuf.so.17.0.0
}
{
   <insert_a_suppression_name_here>
   Memcheck:Leak
   match-leak-kinds: reachable
   fun:_Znwm
   fun:_ZN6google8protobuf14MessageFactory29InternalRegisterGeneratedFileEPKcPFvRKNSt7__cxx1112basic_stringIcSt11char_traitsIcESaIcEEEE
   fun:_ZN40protobuf_google_2fprotobuf_2fapi_2eproto18AddDescriptorsImplEv
   fun:__pthread_once_slow
   obj:/usr/lib/x86_64-linux-gnu/libprotobuf.so.17.0.0
   fun:call_init
   fun:_dl_init
   obj:/lib/x86_64-linux-gnu/ld-2.27.so
}
{
   <insert_a_suppression_name_here>
   Memcheck:Leak
   match-leak-kinds: reachable
   fun:_Znwm
   fun:_ZN6google8protobuf14MessageFactory29InternalRegisterGeneratedFileEPKcPFvRKNSt7__cxx1112basic_stringIcSt11char_traitsIcESaIcEEEE
   fun:__pthread_once_slow
   obj:/usr/lib/x86_64-linux-gnu/libprotobuf.so.17.0.0
   fun:_ZN40protobuf_google_2fprotobuf_2fapi_2eproto18AddDescriptorsImplEv
   fun:__pthread_once_slow
   obj:/usr/lib/x86_64-linux-gnu/libprotobuf.so.17.0.0
   fun:call_init
   fun:_dl_init
   obj:/lib/x86_64-linux-gnu/ld-2.27.so
}
{
   <insert_a_suppression_name_here>
   Memcheck:Leak
   match-leak-kinds: reachable
   fun:_Znwm
   fun:_ZN6google8protobuf14MessageFactory29InternalRegisterGeneratedFileEPKcPFvRKNSt7__cxx1112basic_stringIcSt11char_traitsIcESaIcEEEE
   fun:_ZN41protobuf_google_2fprotobuf_2ftype_2eproto18AddDescriptorsImplEv
   fun:__pthread_once_slow
   obj:/usr/lib/x86_64-linux-gnu/libprotobuf.so.17.0.0
   fun:__pthread_once_slow
   obj:/usr/lib/x86_64-linux-gnu/libprotobuf.so.17.0.0
   fun:call_init
   fun:_dl_init
   obj:/lib/x86_64-linux-gnu/ld-2.27.so
}
{
   <insert_a_suppression_name_here>
   Memcheck:Leak
   match-leak-kinds: reachable
   fun:_Znwm
   fun:_ZN9__gnu_cxx13new_allocatorIcE8allocateEmPKv
   fun:_ZNSt16allocator_traitsISaIcEE8allocateERS0_m
   fun:_ZNSt7__cxx1112basic_stringIcSt11char_traitsIcESaIcEE9_M_createERmm
   obj:/usr/lib/x86_64-linux-gnu/libprotobuf.so.17.0.0
   fun:_ZN6google8protobuf18InsertIfNotPresentISt3mapINSt7__cxx1112basic_stringIcSt11char_traitsIcESaIcEEESt4pairIPKviESt4lessIS8_ESaIS9_IKS8_SC_EEEEEbPT_RKNSJ_10value_type10first_typeERKNSL_11second_typeE
   fun:_ZN6google8protobuf24SimpleDescriptorDatabase15DescriptorIndexISt4pairIPKviEE7AddFileERKNS0_19FileDescriptorProtoES6_
   fun:_ZN6google8protobuf25EncodedDescriptorDatabase3AddEPKvi
   fun:_ZN6google8protobuf14DescriptorPool24InternalAddGeneratedFileEPKvi
   fun:_ZN46protobuf_google_2fprotobuf_2ftimestamp_2eproto18AddDescriptorsImplEv
   fun:__pthread_once_slow
   obj:/usr/lib/x86_64-linux-gnu/libprotobuf.so.17.0.0
}
{
   <insert_a_suppression_name_here>
   Memcheck:Leak
   match-leak-kinds: reachable
   fun:_Znwm
   fun:_ZN6google8protobuf14MessageFactory29InternalRegisterGeneratedFileEPKcPFvRKNSt7__cxx1112basic_stringIcSt11char_traitsIcESaIcEEEE
   fun:_ZN25protobuf_bluzelle_2eproto18AddDescriptorsImplEv
   fun:_ZSt13__invoke_implIvRFvvEJEET_St14__invoke_otherOT0_DpOT1_
   fun:_ZSt8__invokeIRFvvEJEENSt15__invoke_resultIT_JDpT0_EE4typeEOS3_DpOS4_
   fun:_ZZSt9call_onceIRFvvEJEEvRSt9once_flagOT_DpOT0_ENKUlvE_clEv
   fun:_ZZSt9call_onceIRFvvEJEEvRSt9once_flagOT_DpOT0_ENKUlvE0_clEv
   fun:_ZZSt9call_onceIRFvvEJEEvRSt9once_flagOT_DpOT0_ENUlvE0_4_FUNEv
   fun:__pthread_once_slow
   fun:_ZL14__gthread_oncePiPFvvE
   fun:_ZSt9call_onceIRFvvEJEEvRSt9once_flagOT_DpOT0_
   fun:_ZN6google8protobuf8internal9call_onceIJRSt9once_flagRFvvEEEEvDpOT_
}
{
   <insert_a_suppression_name_here>
   Memcheck:Leak
   match-leak-kinds: reachable
   fun:_Znwm
   fun:_ZN6google8protobuf14MessageFactory29InternalRegisterGeneratedFileEPKcPFvRKNSt7__cxx1112basic_stringIcSt11char_traitsIcESaIcEEEE
   fun:_ZN25protobuf_database_2eproto18AddDescriptorsImplEv
   fun:_ZSt13__invoke_implIvRFvvEJEET_St14__invoke_otherOT0_DpOT1_
   fun:_ZSt8__invokeIRFvvEJEENSt15__invoke_resultIT_JDpT0_EE4typeEOS3_DpOS4_
   fun:_ZZSt9call_onceIRFvvEJEEvRSt9once_flagOT_DpOT0_ENKUlvE_clEv
   fun:_ZZSt9call_onceIRFvvEJEEvRSt9once_flagOT_DpOT0_ENKUlvE0_clEv
   fun:_ZZSt9call_onceIRFvvEJEEvRSt9once_flagOT_DpOT0_ENUlvE0_4_FUNEv
   fun:__pthread_once_slow
   fun:_ZL14__gthread_oncePiPFvvE
   fun:_ZSt9call_onceIRFvvEJEEvRSt9once_flagOT_DpOT0_
   fun:_ZN6google8protobuf8internal9call_onceIJRSt9once_flagRFvvEEEEvDpOT_
}
{
   <insert_a_suppression_name_here>
   Memcheck:Leak
   match-leak-kinds: reachable
   fun:_Znwm
   fun:_ZN6google8protobuf14MessageFactory29InternalRegisterGeneratedFileEPKcPFvRKNSt7__cxx1112basic_stringIcSt11char_traitsIcESaIcEEEE
   fun:_ZN21protobuf_pbft_2eproto18AddDescriptorsImplEv
   fun:_ZSt13__invoke_implIvRFvvEJEET_St14__invoke_otherOT0_DpOT1_
   fun:_ZSt8__invokeIRFvvEJEENSt15__invoke_resultIT_JDpT0_EE4typeEOS3_DpOS4_
   fun:_ZZSt9call_onceIRFvvEJEEvRSt9once_flagOT_DpOT0_ENKUlvE_clEv
   fun:_ZZSt9call_onceIRFvvEJEEvRSt9once_flagOT_DpOT0_ENKUlvE0_clEv
   fun:_ZZSt9call_onceIRFvvEJEEvRSt9once_flagOT_DpOT0_ENUlvE0_4_FUNEv
   fun:__pthread_once_slow
   fun:_ZL14__gthread_oncePiPFvvE
   fun:_ZSt9call_onceIRFvvEJEEvRSt9once_flagOT_DpOT0_
   fun:_ZN6google8protobuf8internal9call_onceIJRSt9once_flagRFvvEEEEvDpOT_
}
{
   <insert_a_suppression_name_here>
   Memcheck:Leak
   match-leak-kinds: reachable
   fun:_Znwm
   fun:_ZN6google8protobuf14MessageFactory29InternalRegisterGeneratedFileEPKcPFvRKNSt7__cxx1112basic_stringIcSt11char_traitsIcESaIcEEEE
   fun:_ZN22protobuf_audit_2eproto18AddDescriptorsImplEv
   fun:_ZSt13__invoke_implIvRFvvEJEET_St14__invoke_otherOT0_DpOT1_
   fun:_ZSt8__invokeIRFvvEJEENSt15__invoke_resultIT_JDpT0_EE4typeEOS3_DpOS4_
   fun:_ZZSt9call_onceIRFvvEJEEvRSt9once_flagOT_DpOT0_ENKUlvE_clEv
   fun:_ZZSt9call_onceIRFvvEJEEvRSt9once_flagOT_DpOT0_ENKUlvE0_clEv
   fun:_ZZSt9call_onceIRFvvEJEEvRSt9once_flagOT_DpOT0_ENUlvE0_4_FUNEv
   fun:__pthread_once_slow
   fun:_ZL14__gthread_oncePiPFvvE
   fun:_ZSt9call_onceIRFvvEJEEvRSt9once_flagOT_DpOT0_
   fun:_ZN6google8protobuf8internal9call_onceIJRSt9once_flagRFvvEEEEvDpOT_
}
{
   <insert_a_suppression_name_here>
   Memcheck:Leak
   match-leak-kinds: definite
   fun:_Znwm
   fun:_ZN6google8protobuf8internal14ArenaStringPtr10SetNoArenaEPKNSt7__cxx1112basic_stringIcSt11char_traitsIcESaIcEEEOS8_
   fun:_ZN15database_create7set_keyEPKc
   fun:_ZN46crud_test_that_read_sends_proper_response_Test8TestBodyEv
   fun:_ZN7testing8internal38HandleSehExceptionsInMethodIfSupportedINS_4TestEvEET0_PT_MS4_FS3_vEPKc
   fun:_ZN7testing8internal35HandleExceptionsInMethodIfSupportedINS_4TestEvEET0_PT_MS4_FS3_vEPKc
   fun:_ZN7testing4Test3RunEv
   fun:_ZN7testing8TestInfo3RunEv
   fun:_ZN7testing8TestCase3RunEv
   fun:_ZN7testing8internal12UnitTestImpl11RunAllTestsEv
   fun:_ZN7testing8internal38HandleSehExceptionsInMethodIfSupportedINS0_12UnitTestImplEbEET0_PT_MS4_FS3_vEPKc
   fun:_ZN7testing8internal35HandleExceptionsInMethodIfSupportedINS0_12UnitTestImplEbEET0_PT_MS4_FS3_vEPKc
}
{
   <insert_a_suppression_name_here>
   Memcheck:Leak
   match-leak-kinds: definite
   fun:_Znwm
   fun:_ZN6google8protobuf8internal14ArenaStringPtr10SetNoArenaEPKNSt7__cxx1112basic_stringIcSt11char_traitsIcESaIcEEEOS8_
   fun:_ZN15database_create9set_valueEPKc
   fun:_ZN46crud_test_that_read_sends_proper_response_Test8TestBodyEv
   fun:_ZN7testing8internal38HandleSehExceptionsInMethodIfSupportedINS_4TestEvEET0_PT_MS4_FS3_vEPKc
   fun:_ZN7testing8internal35HandleExceptionsInMethodIfSupportedINS_4TestEvEET0_PT_MS4_FS3_vEPKc
   fun:_ZN7testing4Test3RunEv
   fun:_ZN7testing8TestInfo3RunEv
   fun:_ZN7testing8TestCase3RunEv
   fun:_ZN7testing8internal12UnitTestImpl11RunAllTestsEv
   fun:_ZN7testing8internal38HandleSehExceptionsInMethodIfSupportedINS0_12UnitTestImplEbEET0_PT_MS4_FS3_vEPKc
   fun:_ZN7testing8internal35HandleExceptionsInMethodIfSupportedINS0_12UnitTestImplEbEET0_PT_MS4_FS3_vEPKc
}
{
   <insert_a_suppression_name_here>
   Memcheck:Leak
   match-leak-kinds: definite
   fun:_Znwm
   fun:_ZN6google8protobuf8internal14ArenaStringPtr10SetNoArenaEPKNSt7__cxx1112basic_stringIcSt11char_traitsIcESaIcEEEOS8_
   fun:_ZN15database_create7set_keyEPKc
   fun:_ZN63crud_test_that_point_of_contact_read_sends_proper_response_Test8TestBodyEv
   fun:_ZN7testing8internal38HandleSehExceptionsInMethodIfSupportedINS_4TestEvEET0_PT_MS4_FS3_vEPKc
   fun:_ZN7testing8internal35HandleExceptionsInMethodIfSupportedINS_4TestEvEET0_PT_MS4_FS3_vEPKc
   fun:_ZN7testing4Test3RunEv
   fun:_ZN7testing8TestInfo3RunEv
   fun:_ZN7testing8TestCase3RunEv
   fun:_ZN7testing8internal12UnitTestImpl11RunAllTestsEv
   fun:_ZN7testing8internal38HandleSehExceptionsInMethodIfSupportedINS0_12UnitTestImplEbEET0_PT_MS4_FS3_vEPKc
   fun:_ZN7testing8internal35HandleExceptionsInMethodIfSupportedINS0_12UnitTestImplEbEET0_PT_MS4_FS3_vEPKc
}
{
   <insert_a_suppression_name_here>
   Memcheck:Leak
   match-leak-kinds: definite
   fun:_Znwm
   fun:_ZN6google8protobuf8internal14ArenaStringPtr10SetNoArenaEPKNSt7__cxx1112basic_stringIcSt11char_traitsIcESaIcEEEOS8_
   fun:_ZN15database_create9set_valueEPKc
   fun:_ZN63crud_test_that_point_of_contact_read_sends_proper_response_Test8TestBodyEv
   fun:_ZN7testing8internal38HandleSehExceptionsInMethodIfSupportedINS_4TestEvEET0_PT_MS4_FS3_vEPKc
   fun:_ZN7testing8internal35HandleExceptionsInMethodIfSupportedINS_4TestEvEET0_PT_MS4_FS3_vEPKc
   fun:_ZN7testing4Test3RunEv
   fun:_ZN7testing8TestInfo3RunEv
   fun:_ZN7testing8TestCase3RunEv
   fun:_ZN7testing8internal12UnitTestImpl11RunAllTestsEv
   fun:_ZN7testing8internal38HandleSehExceptionsInMethodIfSupportedINS0_12UnitTestImplEbEET0_PT_MS4_FS3_vEPKc
   fun:_ZN7testing8internal35HandleExceptionsInMethodIfSupportedINS0_12UnitTestImplEbEET0_PT_MS4_FS3_vEPKc
}
{
   <insert_a_suppression_name_here>
   Memcheck:Leak
   match-leak-kinds: definite
   fun:_Znwm
   fun:_ZN6google8protobuf8internal14ArenaStringPtr10SetNoArenaEPKNSt7__cxx1112basic_stringIcSt11char_traitsIcESaIcEEEOS8_
   fun:_ZN15database_create7set_keyEPKc
   fun:_ZN48crud_test_that_update_sends_proper_response_Test8TestBodyEv
   fun:_ZN7testing8internal38HandleSehExceptionsInMethodIfSupportedINS_4TestEvEET0_PT_MS4_FS3_vEPKc
   fun:_ZN7testing8internal35HandleExceptionsInMethodIfSupportedINS_4TestEvEET0_PT_MS4_FS3_vEPKc
   fun:_ZN7testing4Test3RunEv
   fun:_ZN7testing8TestInfo3RunEv
   fun:_ZN7testing8TestCase3RunEv
   fun:_ZN7testing8internal12UnitTestImpl11RunAllTestsEv
   fun:_ZN7testing8internal38HandleSehExceptionsInMethodIfSupportedINS0_12UnitTestImplEbEET0_PT_MS4_FS3_vEPKc
   fun:_ZN7testing8internal35HandleExceptionsInMethodIfSupportedINS0_12UnitTestImplEbEET0_PT_MS4_FS3_vEPKc
}
{
   <insert_a_suppression_name_here>
   Memcheck:Leak
   match-leak-kinds: definite
   fun:_Znwm
   fun:_ZN6google8protobuf8internal14ArenaStringPtr10SetNoArenaEPKNSt7__cxx1112basic_stringIcSt11char_traitsIcESaIcEEEOS8_
   fun:_ZN15database_create9set_valueEPKc
   fun:_ZN48crud_test_that_update_sends_proper_response_Test8TestBodyEv
   fun:_ZN7testing8internal38HandleSehExceptionsInMethodIfSupportedINS_4TestEvEET0_PT_MS4_FS3_vEPKc
   fun:_ZN7testing8internal35HandleExceptionsInMethodIfSupportedINS_4TestEvEET0_PT_MS4_FS3_vEPKc
   fun:_ZN7testing4Test3RunEv
   fun:_ZN7testing8TestInfo3RunEv
   fun:_ZN7testing8TestCase3RunEv
   fun:_ZN7testing8internal12UnitTestImpl11RunAllTestsEv
   fun:_ZN7testing8internal38HandleSehExceptionsInMethodIfSupportedINS0_12UnitTestImplEbEET0_PT_MS4_FS3_vEPKc
   fun:_ZN7testing8internal35HandleExceptionsInMethodIfSupportedINS0_12UnitTestImplEbEET0_PT_MS4_FS3_vEPKc
}
{
   <insert_a_suppression_name_here>
   Memcheck:Leak
   match-leak-kinds: definite
   fun:_Znwm
   fun:_ZN6google8protobuf8internal14ArenaStringPtr10SetNoArenaEPKNSt7__cxx1112basic_stringIcSt11char_traitsIcESaIcEEEOS8_
   fun:_ZN15database_update7set_keyEPKc
   fun:_ZN48crud_test_that_update_sends_proper_response_Test8TestBodyEv
   fun:_ZN7testing8internal38HandleSehExceptionsInMethodIfSupportedINS_4TestEvEET0_PT_MS4_FS3_vEPKc
   fun:_ZN7testing8internal35HandleExceptionsInMethodIfSupportedINS_4TestEvEET0_PT_MS4_FS3_vEPKc
   fun:_ZN7testing4Test3RunEv
   fun:_ZN7testing8TestInfo3RunEv
   fun:_ZN7testing8TestCase3RunEv
   fun:_ZN7testing8internal12UnitTestImpl11RunAllTestsEv
   fun:_ZN7testing8internal38HandleSehExceptionsInMethodIfSupportedINS0_12UnitTestImplEbEET0_PT_MS4_FS3_vEPKc
   fun:_ZN7testing8internal35HandleExceptionsInMethodIfSupportedINS0_12UnitTestImplEbEET0_PT_MS4_FS3_vEPKc
}
{
   <insert_a_suppression_name_here>
   Memcheck:Leak
   match-leak-kinds: definite
   fun:_Znwm
   fun:_ZN6google8protobuf8internal14ArenaStringPtr10SetNoArenaEPKNSt7__cxx1112basic_stringIcSt11char_traitsIcESaIcEEEOS8_
   fun:_ZN15database_update9set_valueEPKc
   fun:_ZN48crud_test_that_update_sends_proper_response_Test8TestBodyEv
   fun:_ZN7testing8internal38HandleSehExceptionsInMethodIfSupportedINS_4TestEvEET0_PT_MS4_FS3_vEPKc
   fun:_ZN7testing8internal35HandleExceptionsInMethodIfSupportedINS_4TestEvEET0_PT_MS4_FS3_vEPKc
   fun:_ZN7testing4Test3RunEv
   fun:_ZN7testing8TestInfo3RunEv
   fun:_ZN7testing8TestCase3RunEv
   fun:_ZN7testing8internal12UnitTestImpl11RunAllTestsEv
   fun:_ZN7testing8internal38HandleSehExceptionsInMethodIfSupportedINS0_12UnitTestImplEbEET0_PT_MS4_FS3_vEPKc
   fun:_ZN7testing8internal35HandleExceptionsInMethodIfSupportedINS0_12UnitTestImplEbEET0_PT_MS4_FS3_vEPKc
}
{
   <insert_a_suppression_name_here>
   Memcheck:Leak
   match-leak-kinds: definite
   fun:_Znwm
   fun:_ZN6google8protobuf8internal14ArenaStringPtr10SetNoArenaEPKNSt7__cxx1112basic_stringIcSt11char_traitsIcESaIcEEEOS8_
   fun:_ZN15database_create7set_keyEPKc
   fun:_ZN65crud_test_that_point_of_contact_update_sends_proper_response_Test8TestBodyEv
   fun:_ZN7testing8internal38HandleSehExceptionsInMethodIfSupportedINS_4TestEvEET0_PT_MS4_FS3_vEPKc
   fun:_ZN7testing8internal35HandleExceptionsInMethodIfSupportedINS_4TestEvEET0_PT_MS4_FS3_vEPKc
   fun:_ZN7testing4Test3RunEv
   fun:_ZN7testing8TestInfo3RunEv
   fun:_ZN7testing8TestCase3RunEv
   fun:_ZN7testing8internal12UnitTestImpl11RunAllTestsEv
   fun:_ZN7testing8internal38HandleSehExceptionsInMethodIfSupportedINS0_12UnitTestImplEbEET0_PT_MS4_FS3_vEPKc
   fun:_ZN7testing8internal35HandleExceptionsInMethodIfSupportedINS0_12UnitTestImplEbEET0_PT_MS4_FS3_vEPKc
}
{
   <insert_a_suppression_name_here>
   Memcheck:Leak
   match-leak-kinds: definite
   fun:_Znwm
   fun:_ZN6google8protobuf8internal14ArenaStringPtr10SetNoArenaEPKNSt7__cxx1112basic_stringIcSt11char_traitsIcESaIcEEEOS8_
   fun:_ZN15database_create9set_valueEPKc
   fun:_ZN65crud_test_that_point_of_contact_update_sends_proper_response_Test8TestBodyEv
   fun:_ZN7testing8internal38HandleSehExceptionsInMethodIfSupportedINS_4TestEvEET0_PT_MS4_FS3_vEPKc
   fun:_ZN7testing8internal35HandleExceptionsInMethodIfSupportedINS_4TestEvEET0_PT_MS4_FS3_vEPKc
   fun:_ZN7testing4Test3RunEv
   fun:_ZN7testing8TestInfo3RunEv
   fun:_ZN7testing8TestCase3RunEv
   fun:_ZN7testing8internal12UnitTestImpl11RunAllTestsEv
   fun:_ZN7testing8internal38HandleSehExceptionsInMethodIfSupportedINS0_12UnitTestImplEbEET0_PT_MS4_FS3_vEPKc
   fun:_ZN7testing8internal35HandleExceptionsInMethodIfSupportedINS0_12UnitTestImplEbEET0_PT_MS4_FS3_vEPKc
}
{
   <insert_a_suppression_name_here>
   Memcheck:Leak
   match-leak-kinds: definite
   fun:_Znwm
   fun:_ZN6google8protobuf8internal14ArenaStringPtr10SetNoArenaEPKNSt7__cxx1112basic_stringIcSt11char_traitsIcESaIcEEEOS8_
   fun:_ZN15database_update7set_keyEPKc
   fun:_ZN65crud_test_that_point_of_contact_update_sends_proper_response_Test8TestBodyEv
   fun:_ZN7testing8internal38HandleSehExceptionsInMethodIfSupportedINS_4TestEvEET0_PT_MS4_FS3_vEPKc
   fun:_ZN7testing8internal35HandleExceptionsInMethodIfSupportedINS_4TestEvEET0_PT_MS4_FS3_vEPKc
   fun:_ZN7testing4Test3RunEv
   fun:_ZN7testing8TestInfo3RunEv
   fun:_ZN7testing8TestCase3RunEv
   fun:_ZN7testing8internal12UnitTestImpl11RunAllTestsEv
   fun:_ZN7testing8internal38HandleSehExceptionsInMethodIfSupportedINS0_12UnitTestImplEbEET0_PT_MS4_FS3_vEPKc
   fun:_ZN7testing8internal35HandleExceptionsInMethodIfSupportedINS0_12UnitTestImplEbEET0_PT_MS4_FS3_vEPKc
}
{
   <insert_a_suppression_name_here>
   Memcheck:Leak
   match-leak-kinds: definite
   fun:_Znwm
   fun:_ZN6google8protobuf8internal14ArenaStringPtr10SetNoArenaEPKNSt7__cxx1112basic_stringIcSt11char_traitsIcESaIcEEEOS8_
   fun:_ZN15database_update9set_valueEPKc
   fun:_ZN65crud_test_that_point_of_contact_update_sends_proper_response_Test8TestBodyEv
   fun:_ZN7testing8internal38HandleSehExceptionsInMethodIfSupportedINS_4TestEvEET0_PT_MS4_FS3_vEPKc
   fun:_ZN7testing8internal35HandleExceptionsInMethodIfSupportedINS_4TestEvEET0_PT_MS4_FS3_vEPKc
   fun:_ZN7testing4Test3RunEv
   fun:_ZN7testing8TestInfo3RunEv
   fun:_ZN7testing8TestCase3RunEv
   fun:_ZN7testing8internal12UnitTestImpl11RunAllTestsEv
   fun:_ZN7testing8internal38HandleSehExceptionsInMethodIfSupportedINS0_12UnitTestImplEbEET0_PT_MS4_FS3_vEPKc
   fun:_ZN7testing8internal35HandleExceptionsInMethodIfSupportedINS0_12UnitTestImplEbEET0_PT_MS4_FS3_vEPKc
}
{
   <insert_a_suppression_name_here>
   Memcheck:Leak
   match-leak-kinds: definite
   fun:_Znwm
   fun:_ZN6google8protobuf8internal14ArenaStringPtr10SetNoArenaEPKNSt7__cxx1112basic_stringIcSt11char_traitsIcESaIcEEEOS8_
   fun:_ZN15database_create7set_keyEPKc
   fun:_ZN48crud_test_that_delete_sends_proper_response_Test8TestBodyEv
   fun:_ZN7testing8internal38HandleSehExceptionsInMethodIfSupportedINS_4TestEvEET0_PT_MS4_FS3_vEPKc
   fun:_ZN7testing8internal35HandleExceptionsInMethodIfSupportedINS_4TestEvEET0_PT_MS4_FS3_vEPKc
   fun:_ZN7testing4Test3RunEv
   fun:_ZN7testing8TestInfo3RunEv
   fun:_ZN7testing8TestCase3RunEv
   fun:_ZN7testing8internal12UnitTestImpl11RunAllTestsEv
   fun:_ZN7testing8internal38HandleSehExceptionsInMethodIfSupportedINS0_12UnitTestImplEbEET0_PT_MS4_FS3_vEPKc
   fun:_ZN7testing8internal35HandleExceptionsInMethodIfSupportedINS0_12UnitTestImplEbEET0_PT_MS4_FS3_vEPKc
}
{
   <insert_a_suppression_name_here>
   Memcheck:Leak
   match-leak-kinds: definite
   fun:_Znwm
   fun:_ZN6google8protobuf8internal14ArenaStringPtr10SetNoArenaEPKNSt7__cxx1112basic_stringIcSt11char_traitsIcESaIcEEEOS8_
   fun:_ZN15database_create9set_valueEPKc
   fun:_ZN48crud_test_that_delete_sends_proper_response_Test8TestBodyEv
   fun:_ZN7testing8internal38HandleSehExceptionsInMethodIfSupportedINS_4TestEvEET0_PT_MS4_FS3_vEPKc
   fun:_ZN7testing8internal35HandleExceptionsInMethodIfSupportedINS_4TestEvEET0_PT_MS4_FS3_vEPKc
   fun:_ZN7testing4Test3RunEv
   fun:_ZN7testing8TestInfo3RunEv
   fun:_ZN7testing8TestCase3RunEv
   fun:_ZN7testing8internal12UnitTestImpl11RunAllTestsEv
   fun:_ZN7testing8internal38HandleSehExceptionsInMethodIfSupportedINS0_12UnitTestImplEbEET0_PT_MS4_FS3_vEPKc
   fun:_ZN7testing8internal35HandleExceptionsInMethodIfSupportedINS0_12UnitTestImplEbEET0_PT_MS4_FS3_vEPKc
}
{
   <insert_a_suppression_name_here>
   Memcheck:Leak
   match-leak-kinds: definite
   fun:_Znwm
   fun:_ZN6google8protobuf8internal14ArenaStringPtr10SetNoArenaEPKNSt7__cxx1112basic_stringIcSt11char_traitsIcESaIcEEEOS8_
   fun:_ZN15database_create7set_keyEPKc
   fun:_ZN65crud_test_that_point_of_contact_delete_sends_proper_response_Test8TestBodyEv
   fun:_ZN7testing8internal38HandleSehExceptionsInMethodIfSupportedINS_4TestEvEET0_PT_MS4_FS3_vEPKc
   fun:_ZN7testing8internal35HandleExceptionsInMethodIfSupportedINS_4TestEvEET0_PT_MS4_FS3_vEPKc
   fun:_ZN7testing4Test3RunEv
   fun:_ZN7testing8TestInfo3RunEv
   fun:_ZN7testing8TestCase3RunEv
   fun:_ZN7testing8internal12UnitTestImpl11RunAllTestsEv
   fun:_ZN7testing8internal38HandleSehExceptionsInMethodIfSupportedINS0_12UnitTestImplEbEET0_PT_MS4_FS3_vEPKc
   fun:_ZN7testing8internal35HandleExceptionsInMethodIfSupportedINS0_12UnitTestImplEbEET0_PT_MS4_FS3_vEPKc
}
{
   <insert_a_suppression_name_here>
   Memcheck:Leak
   match-leak-kinds: definite
   fun:_Znwm
   fun:_ZN6google8protobuf8internal14ArenaStringPtr10SetNoArenaEPKNSt7__cxx1112basic_stringIcSt11char_traitsIcESaIcEEEOS8_
   fun:_ZN15database_create9set_valueEPKc
   fun:_ZN65crud_test_that_point_of_contact_delete_sends_proper_response_Test8TestBodyEv
   fun:_ZN7testing8internal38HandleSehExceptionsInMethodIfSupportedINS_4TestEvEET0_PT_MS4_FS3_vEPKc
   fun:_ZN7testing8internal35HandleExceptionsInMethodIfSupportedINS_4TestEvEET0_PT_MS4_FS3_vEPKc
   fun:_ZN7testing4Test3RunEv
   fun:_ZN7testing8TestInfo3RunEv
   fun:_ZN7testing8TestCase3RunEv
   fun:_ZN7testing8internal12UnitTestImpl11RunAllTestsEv
   fun:_ZN7testing8internal38HandleSehExceptionsInMethodIfSupportedINS0_12UnitTestImplEbEET0_PT_MS4_FS3_vEPKc
   fun:_ZN7testing8internal35HandleExceptionsInMethodIfSupportedINS0_12UnitTestImplEbEET0_PT_MS4_FS3_vEPKc
}
{
   <insert_a_suppression_name_here>
   Memcheck:Leak
   match-leak-kinds: definite
   fun:_Znwm
   fun:_ZN6google8protobuf8internal14ArenaStringPtr10SetNoArenaEPKNSt7__cxx1112basic_stringIcSt11char_traitsIcESaIcEEEOS8_
   fun:_ZN15database_create7set_keyEPKc
   fun:_ZN45crud_test_that_has_sends_proper_response_Test8TestBodyEv
   fun:_ZN7testing8internal38HandleSehExceptionsInMethodIfSupportedINS_4TestEvEET0_PT_MS4_FS3_vEPKc
   fun:_ZN7testing8internal35HandleExceptionsInMethodIfSupportedINS_4TestEvEET0_PT_MS4_FS3_vEPKc
   fun:_ZN7testing4Test3RunEv
   fun:_ZN7testing8TestInfo3RunEv
   fun:_ZN7testing8TestCase3RunEv
   fun:_ZN7testing8internal12UnitTestImpl11RunAllTestsEv
   fun:_ZN7testing8internal38HandleSehExceptionsInMethodIfSupportedINS0_12UnitTestImplEbEET0_PT_MS4_FS3_vEPKc
   fun:_ZN7testing8internal35HandleExceptionsInMethodIfSupportedINS0_12UnitTestImplEbEET0_PT_MS4_FS3_vEPKc
}
{
   <insert_a_suppression_name_here>
   Memcheck:Leak
   match-leak-kinds: definite
   fun:_Znwm
   fun:_ZN6google8protobuf8internal14ArenaStringPtr10SetNoArenaEPKNSt7__cxx1112basic_stringIcSt11char_traitsIcESaIcEEEOS8_
   fun:_ZN15database_create9set_valueEPKc
   fun:_ZN45crud_test_that_has_sends_proper_response_Test8TestBodyEv
   fun:_ZN7testing8internal38HandleSehExceptionsInMethodIfSupportedINS_4TestEvEET0_PT_MS4_FS3_vEPKc
   fun:_ZN7testing8internal35HandleExceptionsInMethodIfSupportedINS_4TestEvEET0_PT_MS4_FS3_vEPKc
   fun:_ZN7testing4Test3RunEv
   fun:_ZN7testing8TestInfo3RunEv
   fun:_ZN7testing8TestCase3RunEv
   fun:_ZN7testing8internal12UnitTestImpl11RunAllTestsEv
   fun:_ZN7testing8internal38HandleSehExceptionsInMethodIfSupportedINS0_12UnitTestImplEbEET0_PT_MS4_FS3_vEPKc
   fun:_ZN7testing8internal35HandleExceptionsInMethodIfSupportedINS0_12UnitTestImplEbEET0_PT_MS4_FS3_vEPKc
}
{
   <insert_a_suppression_name_here>
   Memcheck:Leak
   match-leak-kinds: definite
   fun:_Znwm
   fun:_ZN6google8protobuf8internal14ArenaStringPtr10SetNoArenaEPKNSt7__cxx1112basic_stringIcSt11char_traitsIcESaIcEEEOS8_
   fun:_ZN15database_create7set_keyEPKc
   fun:_ZN62crud_test_that_point_of_contact_has_sends_proper_response_Test8TestBodyEv
   fun:_ZN7testing8internal38HandleSehExceptionsInMethodIfSupportedINS_4TestEvEET0_PT_MS4_FS3_vEPKc
   fun:_ZN7testing8internal35HandleExceptionsInMethodIfSupportedINS_4TestEvEET0_PT_MS4_FS3_vEPKc
   fun:_ZN7testing4Test3RunEv
   fun:_ZN7testing8TestInfo3RunEv
   fun:_ZN7testing8TestCase3RunEv
   fun:_ZN7testing8internal12UnitTestImpl11RunAllTestsEv
   fun:_ZN7testing8internal38HandleSehExceptionsInMethodIfSupportedINS0_12UnitTestImplEbEET0_PT_MS4_FS3_vEPKc
   fun:_ZN7testing8internal35HandleExceptionsInMethodIfSupportedINS0_12UnitTestImplEbEET0_PT_MS4_FS3_vEPKc
}
{
   <insert_a_suppression_name_here>
   Memcheck:Leak
   match-leak-kinds: definite
   fun:_Znwm
   fun:_ZN6google8protobuf8internal14ArenaStringPtr10SetNoArenaEPKNSt7__cxx1112basic_stringIcSt11char_traitsIcESaIcEEEOS8_
   fun:_ZN15database_create9set_valueEPKc
   fun:_ZN62crud_test_that_point_of_contact_has_sends_proper_response_Test8TestBodyEv
   fun:_ZN7testing8internal38HandleSehExceptionsInMethodIfSupportedINS_4TestEvEET0_PT_MS4_FS3_vEPKc
   fun:_ZN7testing8internal35HandleExceptionsInMethodIfSupportedINS_4TestEvEET0_PT_MS4_FS3_vEPKc
   fun:_ZN7testing4Test3RunEv
   fun:_ZN7testing8TestInfo3RunEv
   fun:_ZN7testing8TestCase3RunEv
   fun:_ZN7testing8internal12UnitTestImpl11RunAllTestsEv
   fun:_ZN7testing8internal38HandleSehExceptionsInMethodIfSupportedINS0_12UnitTestImplEbEET0_PT_MS4_FS3_vEPKc
   fun:_ZN7testing8internal35HandleExceptionsInMethodIfSupportedINS0_12UnitTestImplEbEET0_PT_MS4_FS3_vEPKc
}
{
   <insert_a_suppression_name_here>
   Memcheck:Leak
   match-leak-kinds: definite
   fun:_Znwm
   fun:_ZN6google8protobuf8internal14ArenaStringPtr10SetNoArenaEPKNSt7__cxx1112basic_stringIcSt11char_traitsIcESaIcEEEOS8_
   fun:_ZN15database_create7set_keyEPKc
   fun:_ZN46crud_test_that_keys_sends_proper_response_Test8TestBodyEv
   fun:_ZN7testing8internal38HandleSehExceptionsInMethodIfSupportedINS_4TestEvEET0_PT_MS4_FS3_vEPKc
   fun:_ZN7testing8internal35HandleExceptionsInMethodIfSupportedINS_4TestEvEET0_PT_MS4_FS3_vEPKc
   fun:_ZN7testing4Test3RunEv
   fun:_ZN7testing8TestInfo3RunEv
   fun:_ZN7testing8TestCase3RunEv
   fun:_ZN7testing8internal12UnitTestImpl11RunAllTestsEv
   fun:_ZN7testing8internal38HandleSehExceptionsInMethodIfSupportedINS0_12UnitTestImplEbEET0_PT_MS4_FS3_vEPKc
   fun:_ZN7testing8internal35HandleExceptionsInMethodIfSupportedINS0_12UnitTestImplEbEET0_PT_MS4_FS3_vEPKc
}
{
   <insert_a_suppression_name_here>
   Memcheck:Leak
   match-leak-kinds: definite
   fun:_Znwm
   fun:_ZN6google8protobuf8internal14ArenaStringPtr10SetNoArenaEPKNSt7__cxx1112basic_stringIcSt11char_traitsIcESaIcEEEOS8_
   fun:_ZN15database_create9set_valueEPKc
   fun:_ZN46crud_test_that_keys_sends_proper_response_Test8TestBodyEv
   fun:_ZN7testing8internal38HandleSehExceptionsInMethodIfSupportedINS_4TestEvEET0_PT_MS4_FS3_vEPKc
   fun:_ZN7testing8internal35HandleExceptionsInMethodIfSupportedINS_4TestEvEET0_PT_MS4_FS3_vEPKc
   fun:_ZN7testing4Test3RunEv
   fun:_ZN7testing8TestInfo3RunEv
   fun:_ZN7testing8TestCase3RunEv
   fun:_ZN7testing8internal12UnitTestImpl11RunAllTestsEv
   fun:_ZN7testing8internal38HandleSehExceptionsInMethodIfSupportedINS0_12UnitTestImplEbEET0_PT_MS4_FS3_vEPKc
   fun:_ZN7testing8internal35HandleExceptionsInMethodIfSupportedINS0_12UnitTestImplEbEET0_PT_MS4_FS3_vEPKc
}
{
   <insert_a_suppression_name_here>
   Memcheck:Leak
   match-leak-kinds: definite
   fun:_Znwm
   fun:_ZN6google8protobuf8internal14ArenaStringPtr10SetNoArenaEPKNSt7__cxx1112basic_stringIcSt11char_traitsIcESaIcEEEOS8_
   fun:_ZN15database_create7set_keyEPKc
   fun:_ZN63crud_test_that_point_of_contact_keys_sends_proper_response_Test8TestBodyEv
   fun:_ZN7testing8internal38HandleSehExceptionsInMethodIfSupportedINS_4TestEvEET0_PT_MS4_FS3_vEPKc
   fun:_ZN7testing8internal35HandleExceptionsInMethodIfSupportedINS_4TestEvEET0_PT_MS4_FS3_vEPKc
   fun:_ZN7testing4Test3RunEv
   fun:_ZN7testing8TestInfo3RunEv
   fun:_ZN7testing8TestCase3RunEv
   fun:_ZN7testing8internal12UnitTestImpl11RunAllTestsEv
   fun:_ZN7testing8internal38HandleSehExceptionsInMethodIfSupportedINS0_12UnitTestImplEbEET0_PT_MS4_FS3_vEPKc
   fun:_ZN7testing8internal35HandleExceptionsInMethodIfSupportedINS0_12UnitTestImplEbEET0_PT_MS4_FS3_vEPKc
}
{
   <insert_a_suppression_name_here>
   Memcheck:Leak
   match-leak-kinds: definite
   fun:_Znwm
   fun:_ZN6google8protobuf8internal14ArenaStringPtr10SetNoArenaEPKNSt7__cxx1112basic_stringIcSt11char_traitsIcESaIcEEEOS8_
   fun:_ZN15database_create9set_valueEPKc
   fun:_ZN63crud_test_that_point_of_contact_keys_sends_proper_response_Test8TestBodyEv
   fun:_ZN7testing8internal38HandleSehExceptionsInMethodIfSupportedINS_4TestEvEET0_PT_MS4_FS3_vEPKc
   fun:_ZN7testing8internal35HandleExceptionsInMethodIfSupportedINS_4TestEvEET0_PT_MS4_FS3_vEPKc
   fun:_ZN7testing4Test3RunEv
   fun:_ZN7testing8TestInfo3RunEv
   fun:_ZN7testing8TestCase3RunEv
   fun:_ZN7testing8internal12UnitTestImpl11RunAllTestsEv
   fun:_ZN7testing8internal38HandleSehExceptionsInMethodIfSupportedINS0_12UnitTestImplEbEET0_PT_MS4_FS3_vEPKc
   fun:_ZN7testing8internal35HandleExceptionsInMethodIfSupportedINS0_12UnitTestImplEbEET0_PT_MS4_FS3_vEPKc
}
{
   <insert_a_suppression_name_here>
   Memcheck:Leak
   match-leak-kinds: definite
   fun:_Znwm
   fun:_ZN6google8protobuf8internal14ArenaStringPtr10SetNoArenaEPKNSt7__cxx1112basic_stringIcSt11char_traitsIcESaIcEEEOS8_
   fun:_ZN15database_create7set_keyEPKc
   fun:_ZN46crud_test_that_size_sends_proper_response_Test8TestBodyEv
   fun:_ZN7testing8internal38HandleSehExceptionsInMethodIfSupportedINS_4TestEvEET0_PT_MS4_FS3_vEPKc
   fun:_ZN7testing8internal35HandleExceptionsInMethodIfSupportedINS_4TestEvEET0_PT_MS4_FS3_vEPKc
   fun:_ZN7testing4Test3RunEv
   fun:_ZN7testing8TestInfo3RunEv
   fun:_ZN7testing8TestCase3RunEv
   fun:_ZN7testing8internal12UnitTestImpl11RunAllTestsEv
   fun:_ZN7testing8internal38HandleSehExceptionsInMethodIfSupportedINS0_12UnitTestImplEbEET0_PT_MS4_FS3_vEPKc
   fun:_ZN7testing8internal35HandleExceptionsInMethodIfSupportedINS0_12UnitTestImplEbEET0_PT_MS4_FS3_vEPKc
}
{
   <insert_a_suppression_name_here>
   Memcheck:Leak
   match-leak-kinds: definite
   fun:_Znwm
   fun:_ZN6google8protobuf8internal14ArenaStringPtr10SetNoArenaEPKNSt7__cxx1112basic_stringIcSt11char_traitsIcESaIcEEEOS8_
   fun:_ZN15database_create9set_valueEPKc
   fun:_ZN46crud_test_that_size_sends_proper_response_Test8TestBodyEv
   fun:_ZN7testing8internal38HandleSehExceptionsInMethodIfSupportedINS_4TestEvEET0_PT_MS4_FS3_vEPKc
   fun:_ZN7testing8internal35HandleExceptionsInMethodIfSupportedINS_4TestEvEET0_PT_MS4_FS3_vEPKc
   fun:_ZN7testing4Test3RunEv
   fun:_ZN7testing8TestInfo3RunEv
   fun:_ZN7testing8TestCase3RunEv
   fun:_ZN7testing8internal12UnitTestImpl11RunAllTestsEv
   fun:_ZN7testing8internal38HandleSehExceptionsInMethodIfSupportedINS0_12UnitTestImplEbEET0_PT_MS4_FS3_vEPKc
   fun:_ZN7testing8internal35HandleExceptionsInMethodIfSupportedINS0_12UnitTestImplEbEET0_PT_MS4_FS3_vEPKc
}
{
   <insert_a_suppression_name_here>
   Memcheck:Leak
   match-leak-kinds: definite
   fun:_Znwm
   fun:_ZN6google8protobuf8internal14ArenaStringPtr10SetNoArenaEPKNSt7__cxx1112basic_stringIcSt11char_traitsIcESaIcEEEOS8_
   fun:_ZN15database_create7set_keyEPKc
   fun:_ZN63crud_test_that_point_of_contact_size_sends_proper_response_Test8TestBodyEv
   fun:_ZN7testing8internal38HandleSehExceptionsInMethodIfSupportedINS_4TestEvEET0_PT_MS4_FS3_vEPKc
   fun:_ZN7testing8internal35HandleExceptionsInMethodIfSupportedINS_4TestEvEET0_PT_MS4_FS3_vEPKc
   fun:_ZN7testing4Test3RunEv
   fun:_ZN7testing8TestInfo3RunEv
   fun:_ZN7testing8TestCase3RunEv
   fun:_ZN7testing8internal12UnitTestImpl11RunAllTestsEv
   fun:_ZN7testing8internal38HandleSehExceptionsInMethodIfSupportedINS0_12UnitTestImplEbEET0_PT_MS4_FS3_vEPKc
   fun:_ZN7testing8internal35HandleExceptionsInMethodIfSupportedINS0_12UnitTestImplEbEET0_PT_MS4_FS3_vEPKc
}
{
   <insert_a_suppression_name_here>
   Memcheck:Leak
   match-leak-kinds: definite
   fun:_Znwm
   fun:_ZN6google8protobuf8internal14ArenaStringPtr10SetNoArenaEPKNSt7__cxx1112basic_stringIcSt11char_traitsIcESaIcEEEOS8_
   fun:_ZN15database_create9set_valueEPKc
   fun:_ZN63crud_test_that_point_of_contact_size_sends_proper_response_Test8TestBodyEv
   fun:_ZN7testing8internal38HandleSehExceptionsInMethodIfSupportedINS_4TestEvEET0_PT_MS4_FS3_vEPKc
   fun:_ZN7testing8internal35HandleExceptionsInMethodIfSupportedINS_4TestEvEET0_PT_MS4_FS3_vEPKc
   fun:_ZN7testing4Test3RunEv
   fun:_ZN7testing8TestInfo3RunEv
   fun:_ZN7testing8TestCase3RunEv
   fun:_ZN7testing8internal12UnitTestImpl11RunAllTestsEv
   fun:_ZN7testing8internal38HandleSehExceptionsInMethodIfSupportedINS0_12UnitTestImplEbEET0_PT_MS4_FS3_vEPKc
   fun:_ZN7testing8internal35HandleExceptionsInMethodIfSupportedINS0_12UnitTestImplEbEET0_PT_MS4_FS3_vEPKc
}
{
   <insert_a_suppression_name_here>
   Memcheck:Leak
   match-leak-kinds: reachable
   fun:_Znwm
   fun:_ZN9__gnu_cxx13new_allocatorIcE8allocateEmPKv
   fun:_ZNSt16allocator_traitsISaIcEE8allocateERS0_m
   fun:_ZNSt7__cxx1112basic_stringIcSt11char_traitsIcESaIcEE9_M_createERmm
   obj:/usr/lib/x86_64-linux-gnu/libprotobuf.so.17.0.0
   fun:_ZN6google8protobuf18InsertIfNotPresentISt3mapINSt7__cxx1112basic_stringIcSt11char_traitsIcESaIcEEESt4pairIPKviESt4lessIS8_ESaIS9_IKS8_SC_EEEEEbPT_RKNSJ_10value_type10first_typeERKNSL_11second_typeE
   fun:_ZN6google8protobuf24SimpleDescriptorDatabase15DescriptorIndexISt4pairIPKviEE7AddFileERKNS0_19FileDescriptorProtoES6_
   fun:_ZN6google8protobuf25EncodedDescriptorDatabase3AddEPKvi
   fun:_ZN6google8protobuf14DescriptorPool24InternalAddGeneratedFileEPKvi
   fun:_ZN47protobuf_google_2fprotobuf_2fdescriptor_2eproto18AddDescriptorsImplEv
   fun:__pthread_once_slow
   obj:/usr/lib/x86_64-linux-gnu/libprotobuf.so.17.0.0
}
{
   <insert_a_suppression_name_here>
   Memcheck:Leak
   match-leak-kinds: reachable
   fun:_Znwm
   fun:_ZN9__gnu_cxx13new_allocatorIcE8allocateEmPKv
   fun:_ZNSt16allocator_traitsISaIcEE8allocateERS0_m
   fun:_ZNSt7__cxx1112basic_stringIcSt11char_traitsIcESaIcEE9_M_createERmm
   obj:/usr/lib/x86_64-linux-gnu/libprotobuf.so.17.0.0
   fun:_ZN6google8protobuf18InsertIfNotPresentISt3mapINSt7__cxx1112basic_stringIcSt11char_traitsIcESaIcEEESt4pairIPKviESt4lessIS8_ESaIS9_IKS8_SC_EEEEEbPT_RKNSJ_10value_type10first_typeERKNSL_11second_typeE
   fun:_ZN6google8protobuf24SimpleDescriptorDatabase15DescriptorIndexISt4pairIPKviEE7AddFileERKNS0_19FileDescriptorProtoES6_
   fun:_ZN6google8protobuf25EncodedDescriptorDatabase3AddEPKvi
   fun:_ZN6google8protobuf14DescriptorPool24InternalAddGeneratedFileEPKvi
   fun:_ZN49protobuf_google_2fprotobuf_2ffield_5fmask_2eproto18AddDescriptorsImplEv
   fun:__pthread_once_slow
   obj:/usr/lib/x86_64-linux-gnu/libprotobuf.so.17.0.0
}
{
   <insert_a_suppression_name_here>
   Memcheck:Leak
   match-leak-kinds: reachable
   fun:_Znwm
   fun:_ZN9__gnu_cxx13new_allocatorIcE8allocateEmPKv
   fun:_ZNSt16allocator_traitsISaIcEE8allocateERS0_m
   fun:_ZNSt7__cxx1112basic_stringIcSt11char_traitsIcESaIcEE9_M_createERmm
   obj:/usr/lib/x86_64-linux-gnu/libprotobuf.so.17.0.0
   fun:_ZN6google8protobuf18InsertIfNotPresentISt3mapINSt7__cxx1112basic_stringIcSt11char_traitsIcESaIcEEESt4pairIPKviESt4lessIS8_ESaIS9_IKS8_SC_EEEEEbPT_RKNSJ_10value_type10first_typeERKNSL_11second_typeE
   fun:_ZN6google8protobuf24SimpleDescriptorDatabase15DescriptorIndexISt4pairIPKviEE7AddFileERKNS0_19FileDescriptorProtoES6_
   fun:_ZN6google8protobuf25EncodedDescriptorDatabase3AddEPKvi
   fun:_ZN6google8protobuf14DescriptorPool24InternalAddGeneratedFileEPKvi
   fun:_ZN53protobuf_google_2fprotobuf_2fsource_5fcontext_2eproto18AddDescriptorsImplEv
   fun:__pthread_once_slow
   obj:/usr/lib/x86_64-linux-gnu/libprotobuf.so.17.0.0
}
{
   <insert_a_suppression_name_here>
   Memcheck:Leak
   match-leak-kinds: reachable
   fun:_Znwm
   fun:_ZN9__gnu_cxx13new_allocatorIcE8allocateEmPKv
   fun:_ZNSt16allocator_traitsISaIcEE8allocateERS0_m
   fun:_ZNSt7__cxx1112basic_stringIcSt11char_traitsIcESaIcEE9_M_createERmm
   obj:/usr/lib/x86_64-linux-gnu/libprotobuf.so.17.0.0
   obj:/usr/lib/x86_64-linux-gnu/libprotobuf.so.17.0.0
   fun:_ZN6google8protobuf24SimpleDescriptorDatabase15DescriptorIndexISt4pairIPKviEE9AddSymbolERKNSt7__cxx1112basic_stringIcSt11char_traitsIcESaIcEEES6_
   fun:_ZN6google8protobuf24SimpleDescriptorDatabase15DescriptorIndexISt4pairIPKviEE7AddFileERKNS0_19FileDescriptorProtoES6_
   fun:_ZN6google8protobuf25EncodedDescriptorDatabase3AddEPKvi
   fun:_ZN6google8protobuf14DescriptorPool24InternalAddGeneratedFileEPKvi
   fun:_ZN22protobuf_audit_2eproto18AddDescriptorsImplEv
   fun:_ZSt13__invoke_implIvRFvvEJEET_St14__invoke_otherOT0_DpOT1_
}
{
   <insert_a_suppression_name_here>
   Memcheck:Leak
   match-leak-kinds: reachable
   fun:_Znwm
   fun:_ZN6google8protobuf6StructC1Ev
   obj:/usr/lib/x86_64-linux-gnu/libprotobuf.so.17.0.0
   obj:/usr/lib/x86_64-linux-gnu/libprotobuf.so.17.0.0
   fun:_ZN6google8protobuf8internal11InitSCCImplEPNS1_11SCCInfoBaseE
   fun:_ZN43protobuf_google_2fprotobuf_2fstruct_2eproto18AddDescriptorsImplEv
   fun:__pthread_once_slow
   obj:/usr/lib/x86_64-linux-gnu/libprotobuf.so.17.0.0
   fun:call_init
   fun:_dl_init
   obj:/lib/x86_64-linux-gnu/ld-2.27.so
}
{
   <insert_a_suppression_name_here>
   Memcheck:Leak
   match-leak-kinds: reachable
   fun:_Znwm
   fun:_ZN6google8protobuf8internal13OnShutdownRunEPFvPKvES3_
   fun:_ZN6google8protobuf8internal20InitProtobufDefaultsEv
   fun:_ZN6google8protobuf8internal11InitSCCImplEPNS1_11SCCInfoBaseE
   fun:_ZN40protobuf_google_2fprotobuf_2fany_2eproto18AddDescriptorsImplEv
   fun:__pthread_once_slow
   obj:/usr/lib/x86_64-linux-gnu/libprotobuf.so.17.0.0
   fun:call_init
   fun:_dl_init
   obj:/lib/x86_64-linux-gnu/ld-2.27.so
}
{
   <insert_a_suppression_name_here>
   Memcheck:Leak
   match-leak-kinds: reachable
   fun:_Znwm
   fun:_ZN9__gnu_cxx13new_allocatorIcE8allocateEmPKv
   fun:_ZNSt16allocator_traitsISaIcEE8allocateERS0_m
   fun:_ZNSt7__cxx1112basic_stringIcSt11char_traitsIcESaIcEE9_M_createERmm
   obj:/usr/lib/x86_64-linux-gnu/libprotobuf.so.17.0.0
   obj:/usr/lib/x86_64-linux-gnu/libprotobuf.so.17.0.0
   fun:_ZN6google8protobuf24SimpleDescriptorDatabase15DescriptorIndexISt4pairIPKviEE9AddSymbolERKNSt7__cxx1112basic_stringIcSt11char_traitsIcESaIcEEES6_
   fun:_ZN6google8protobuf24SimpleDescriptorDatabase15DescriptorIndexISt4pairIPKviEE7AddFileERKNS0_19FileDescriptorProtoES6_
   fun:_ZN6google8protobuf25EncodedDescriptorDatabase3AddEPKvi
   fun:_ZN6google8protobuf14DescriptorPool24InternalAddGeneratedFileEPKvi
   fun:_ZN40protobuf_google_2fprotobuf_2fapi_2eproto18AddDescriptorsImplEv
   fun:__pthread_once_slow
}
{
   <insert_a_suppression_name_here>
   Memcheck:Leak
   match-leak-kinds: reachable
   fun:_Znwm
   fun:_ZN6google8protobuf18InsertIfNotPresentISt3mapINSt7__cxx1112basic_stringIcSt11char_traitsIcESaIcEEESt4pairIPKviESt4lessIS8_ESaIS9_IKS8_SC_EEEEEbPT_RKNSJ_10value_type10first_typeERKNSL_11second_typeE
   fun:_ZN6google8protobuf24SimpleDescriptorDatabase15DescriptorIndexISt4pairIPKviEE7AddFileERKNS0_19FileDescriptorProtoES6_
   fun:_ZN6google8protobuf25EncodedDescriptorDatabase3AddEPKvi
   fun:_ZN6google8protobuf14DescriptorPool24InternalAddGeneratedFileEPKvi
   fun:_ZN40protobuf_google_2fprotobuf_2fany_2eproto18AddDescriptorsImplEv
   fun:__pthread_once_slow
   obj:/usr/lib/x86_64-linux-gnu/libprotobuf.so.17.0.0
   fun:call_init
   fun:_dl_init
   obj:/lib/x86_64-linux-gnu/ld-2.27.so
}
{
   <insert_a_suppression_name_here>
   Memcheck:Leak
   match-leak-kinds: reachable
   fun:_Znwm
   obj:/usr/lib/x86_64-linux-gnu/libprotobuf.so.17.0.0
   fun:_ZN6google8protobuf24SimpleDescriptorDatabase15DescriptorIndexISt4pairIPKviEE9AddSymbolERKNSt7__cxx1112basic_stringIcSt11char_traitsIcESaIcEEES6_
   fun:_ZN6google8protobuf24SimpleDescriptorDatabase15DescriptorIndexISt4pairIPKviEE7AddFileERKNS0_19FileDescriptorProtoES6_
   fun:_ZN6google8protobuf25EncodedDescriptorDatabase3AddEPKvi
   fun:_ZN6google8protobuf14DescriptorPool24InternalAddGeneratedFileEPKvi
   fun:_ZN40protobuf_google_2fprotobuf_2fany_2eproto18AddDescriptorsImplEv
   fun:__pthread_once_slow
   obj:/usr/lib/x86_64-linux-gnu/libprotobuf.so.17.0.0
   fun:call_init
   fun:_dl_init
   obj:/lib/x86_64-linux-gnu/ld-2.27.so
}
{
   <insert_a_suppression_name_here>
   Memcheck:Leak
   match-leak-kinds: reachable
   fun:_Znwm
   fun:_ZN6google8protobuf18InsertIfNotPresentISt3mapINSt7__cxx1112basic_stringIcSt11char_traitsIcESaIcEEESt4pairIPKviESt4lessIS8_ESaIS9_IKS8_SC_EEEEEbPT_RKNSJ_10value_type10first_typeERKNSL_11second_typeE
   fun:_ZN6google8protobuf24SimpleDescriptorDatabase15DescriptorIndexISt4pairIPKviEE7AddFileERKNS0_19FileDescriptorProtoES6_
   fun:_ZN6google8protobuf25EncodedDescriptorDatabase3AddEPKvi
   fun:_ZN6google8protobuf14DescriptorPool24InternalAddGeneratedFileEPKvi
   fun:_ZN40protobuf_google_2fprotobuf_2fapi_2eproto18AddDescriptorsImplEv
   fun:__pthread_once_slow
   obj:/usr/lib/x86_64-linux-gnu/libprotobuf.so.17.0.0
   fun:call_init
   fun:_dl_init
   obj:/lib/x86_64-linux-gnu/ld-2.27.so
}
{
   <insert_a_suppression_name_here>
   Memcheck:Leak
   match-leak-kinds: reachable
   fun:_Znwm
   fun:_ZN6google8protobuf18InsertIfNotPresentISt3mapINSt7__cxx1112basic_stringIcSt11char_traitsIcESaIcEEESt4pairIPKviESt4lessIS8_ESaIS9_IKS8_SC_EEEEEbPT_RKNSJ_10value_type10first_typeERKNSL_11second_typeE
   fun:_ZN6google8protobuf24SimpleDescriptorDatabase15DescriptorIndexISt4pairIPKviEE7AddFileERKNS0_19FileDescriptorProtoES6_
   fun:_ZN6google8protobuf25EncodedDescriptorDatabase3AddEPKvi
   fun:_ZN6google8protobuf14DescriptorPool24InternalAddGeneratedFileEPKvi
   fun:_ZN53protobuf_google_2fprotobuf_2fsource_5fcontext_2eproto18AddDescriptorsImplEv
   fun:__pthread_once_slow
   obj:/usr/lib/x86_64-linux-gnu/libprotobuf.so.17.0.0
   fun:_ZN40protobuf_google_2fprotobuf_2fapi_2eproto18AddDescriptorsImplEv
   fun:__pthread_once_slow
   obj:/usr/lib/x86_64-linux-gnu/libprotobuf.so.17.0.0
   fun:call_init
   fun:_dl_init
}
{
   <insert_a_suppression_name_here>
   Memcheck:Leak
   match-leak-kinds: reachable
   fun:_Znwm
   obj:/usr/lib/x86_64-linux-gnu/libprotobuf.so.17.0.0
   fun:_ZN6google8protobuf24SimpleDescriptorDatabase15DescriptorIndexISt4pairIPKviEE9AddSymbolERKNSt7__cxx1112basic_stringIcSt11char_traitsIcESaIcEEES6_
   fun:_ZN6google8protobuf24SimpleDescriptorDatabase15DescriptorIndexISt4pairIPKviEE7AddFileERKNS0_19FileDescriptorProtoES6_
   fun:_ZN6google8protobuf25EncodedDescriptorDatabase3AddEPKvi
   fun:_ZN6google8protobuf14DescriptorPool24InternalAddGeneratedFileEPKvi
   fun:_ZN53protobuf_google_2fprotobuf_2fsource_5fcontext_2eproto18AddDescriptorsImplEv
   fun:__pthread_once_slow
   obj:/usr/lib/x86_64-linux-gnu/libprotobuf.so.17.0.0
   fun:_ZN40protobuf_google_2fprotobuf_2fapi_2eproto18AddDescriptorsImplEv
   fun:__pthread_once_slow
   obj:/usr/lib/x86_64-linux-gnu/libprotobuf.so.17.0.0
}
{
   <insert_a_suppression_name_here>
   Memcheck:Leak
   match-leak-kinds: reachable
   fun:_Znwm
   fun:_ZN6google8protobuf18InsertIfNotPresentISt3mapINSt7__cxx1112basic_stringIcSt11char_traitsIcESaIcEEESt4pairIPKviESt4lessIS8_ESaIS9_IKS8_SC_EEEEEbPT_RKNSJ_10value_type10first_typeERKNSL_11second_typeE
   fun:_ZN6google8protobuf24SimpleDescriptorDatabase15DescriptorIndexISt4pairIPKviEE7AddFileERKNS0_19FileDescriptorProtoES6_
   fun:_ZN6google8protobuf25EncodedDescriptorDatabase3AddEPKvi
   fun:_ZN6google8protobuf14DescriptorPool24InternalAddGeneratedFileEPKvi
   fun:_ZN41protobuf_google_2fprotobuf_2ftype_2eproto18AddDescriptorsImplEv
   fun:__pthread_once_slow
   obj:/usr/lib/x86_64-linux-gnu/libprotobuf.so.17.0.0
   fun:__pthread_once_slow
   obj:/usr/lib/x86_64-linux-gnu/libprotobuf.so.17.0.0
   fun:call_init
   fun:_dl_init
   obj:/lib/x86_64-linux-gnu/ld-2.27.so
}
{
   <insert_a_suppression_name_here>
   Memcheck:Leak
   match-leak-kinds: reachable
   fun:_Znwm
   obj:/usr/lib/x86_64-linux-gnu/libprotobuf.so.17.0.0
   fun:_ZN6google8protobuf24SimpleDescriptorDatabase15DescriptorIndexISt4pairIPKviEE9AddSymbolERKNSt7__cxx1112basic_stringIcSt11char_traitsIcESaIcEEES6_
   fun:_ZN6google8protobuf24SimpleDescriptorDatabase15DescriptorIndexISt4pairIPKviEE7AddFileERKNS0_19FileDescriptorProtoES6_
   fun:_ZN6google8protobuf25EncodedDescriptorDatabase3AddEPKvi
   fun:_ZN6google8protobuf14DescriptorPool24InternalAddGeneratedFileEPKvi
   fun:_ZN41protobuf_google_2fprotobuf_2ftype_2eproto18AddDescriptorsImplEv
   fun:__pthread_once_slow
   obj:/usr/lib/x86_64-linux-gnu/libprotobuf.so.17.0.0
   fun:__pthread_once_slow
   obj:/usr/lib/x86_64-linux-gnu/libprotobuf.so.17.0.0
   fun:call_init
   fun:_dl_init
}
{
   <insert_a_suppression_name_here>
   Memcheck:Leak
   match-leak-kinds: reachable
   fun:_Znwm
   fun:_ZN6google8protobuf18InsertIfNotPresentISt3mapINSt7__cxx1112basic_stringIcSt11char_traitsIcESaIcEEESt4pairIPKviESt4lessIS8_ESaIS9_IKS8_SC_EEEEEbPT_RKNSJ_10value_type10first_typeERKNSL_11second_typeE
   fun:_ZN6google8protobuf24SimpleDescriptorDatabase15DescriptorIndexISt4pairIPKviEE7AddFileERKNS0_19FileDescriptorProtoES6_
   fun:_ZN6google8protobuf25EncodedDescriptorDatabase3AddEPKvi
   fun:_ZN6google8protobuf14DescriptorPool24InternalAddGeneratedFileEPKvi
   fun:_ZN47protobuf_google_2fprotobuf_2fdescriptor_2eproto18AddDescriptorsImplEv
   fun:__pthread_once_slow
   obj:/usr/lib/x86_64-linux-gnu/libprotobuf.so.17.0.0
   fun:call_init
   fun:_dl_init
   obj:/lib/x86_64-linux-gnu/ld-2.27.so
}
{
   <insert_a_suppression_name_here>
   Memcheck:Leak
   match-leak-kinds: reachable
   fun:_Znwm
   fun:_ZN6google8protobuf18InsertIfNotPresentISt3mapINSt7__cxx1112basic_stringIcSt11char_traitsIcESaIcEEESt4pairIPKviESt4lessIS8_ESaIS9_IKS8_SC_EEEEEbPT_RKNSJ_10value_type10first_typeERKNSL_11second_typeE
   fun:_ZN6google8protobuf24SimpleDescriptorDatabase15DescriptorIndexISt4pairIPKviEE7AddFileERKNS0_19FileDescriptorProtoES6_
   fun:_ZN6google8protobuf25EncodedDescriptorDatabase3AddEPKvi
   fun:_ZN6google8protobuf14DescriptorPool24InternalAddGeneratedFileEPKvi
   fun:_ZN45protobuf_google_2fprotobuf_2fduration_2eproto18AddDescriptorsImplEv
   fun:__pthread_once_slow
   obj:/usr/lib/x86_64-linux-gnu/libprotobuf.so.17.0.0
   fun:call_init
   fun:_dl_init
   obj:/lib/x86_64-linux-gnu/ld-2.27.so
}
{
   <insert_a_suppression_name_here>
   Memcheck:Leak
   match-leak-kinds: reachable
   fun:_Znwm
   obj:/usr/lib/x86_64-linux-gnu/libprotobuf.so.17.0.0
   fun:_ZN6google8protobuf24SimpleDescriptorDatabase15DescriptorIndexISt4pairIPKviEE9AddSymbolERKNSt7__cxx1112basic_stringIcSt11char_traitsIcESaIcEEES6_
   fun:_ZN6google8protobuf24SimpleDescriptorDatabase15DescriptorIndexISt4pairIPKviEE7AddFileERKNS0_19FileDescriptorProtoES6_
   fun:_ZN6google8protobuf25EncodedDescriptorDatabase3AddEPKvi
   fun:_ZN6google8protobuf14DescriptorPool24InternalAddGeneratedFileEPKvi
   fun:_ZN45protobuf_google_2fprotobuf_2fduration_2eproto18AddDescriptorsImplEv
   fun:__pthread_once_slow
   obj:/usr/lib/x86_64-linux-gnu/libprotobuf.so.17.0.0
   fun:call_init
   fun:_dl_init
   obj:/lib/x86_64-linux-gnu/ld-2.27.so
}
{
   <insert_a_suppression_name_here>
   Memcheck:Leak
   match-leak-kinds: reachable
   fun:_Znwm
   fun:_ZN6google8protobuf18InsertIfNotPresentISt3mapINSt7__cxx1112basic_stringIcSt11char_traitsIcESaIcEEESt4pairIPKviESt4lessIS8_ESaIS9_IKS8_SC_EEEEEbPT_RKNSJ_10value_type10first_typeERKNSL_11second_typeE
   fun:_ZN6google8protobuf24SimpleDescriptorDatabase15DescriptorIndexISt4pairIPKviEE7AddFileERKNS0_19FileDescriptorProtoES6_
   fun:_ZN6google8protobuf25EncodedDescriptorDatabase3AddEPKvi
   fun:_ZN6google8protobuf14DescriptorPool24InternalAddGeneratedFileEPKvi
   fun:_ZN42protobuf_google_2fprotobuf_2fempty_2eproto18AddDescriptorsImplEv
   fun:__pthread_once_slow
   obj:/usr/lib/x86_64-linux-gnu/libprotobuf.so.17.0.0
   fun:call_init
   fun:_dl_init
   obj:/lib/x86_64-linux-gnu/ld-2.27.so
}
{
   <insert_a_suppression_name_here>
   Memcheck:Leak
   match-leak-kinds: reachable
   fun:_Znwm
   obj:/usr/lib/x86_64-linux-gnu/libprotobuf.so.17.0.0
   fun:_ZN6google8protobuf24SimpleDescriptorDatabase15DescriptorIndexISt4pairIPKviEE9AddSymbolERKNSt7__cxx1112basic_stringIcSt11char_traitsIcESaIcEEES6_
   fun:_ZN6google8protobuf24SimpleDescriptorDatabase15DescriptorIndexISt4pairIPKviEE7AddFileERKNS0_19FileDescriptorProtoES6_
   fun:_ZN6google8protobuf25EncodedDescriptorDatabase3AddEPKvi
   fun:_ZN6google8protobuf14DescriptorPool24InternalAddGeneratedFileEPKvi
   fun:_ZN42protobuf_google_2fprotobuf_2fempty_2eproto18AddDescriptorsImplEv
   fun:__pthread_once_slow
   obj:/usr/lib/x86_64-linux-gnu/libprotobuf.so.17.0.0
   fun:call_init
   fun:_dl_init
   obj:/lib/x86_64-linux-gnu/ld-2.27.so
}
{
   <insert_a_suppression_name_here>
   Memcheck:Leak
   match-leak-kinds: reachable
   fun:_Znwm
   fun:_ZN6google8protobuf18InsertIfNotPresentISt3mapINSt7__cxx1112basic_stringIcSt11char_traitsIcESaIcEEESt4pairIPKviESt4lessIS8_ESaIS9_IKS8_SC_EEEEEbPT_RKNSJ_10value_type10first_typeERKNSL_11second_typeE
   fun:_ZN6google8protobuf24SimpleDescriptorDatabase15DescriptorIndexISt4pairIPKviEE7AddFileERKNS0_19FileDescriptorProtoES6_
   fun:_ZN6google8protobuf25EncodedDescriptorDatabase3AddEPKvi
   fun:_ZN6google8protobuf14DescriptorPool24InternalAddGeneratedFileEPKvi
   fun:_ZN49protobuf_google_2fprotobuf_2ffield_5fmask_2eproto18AddDescriptorsImplEv
   fun:__pthread_once_slow
   obj:/usr/lib/x86_64-linux-gnu/libprotobuf.so.17.0.0
   fun:call_init
   fun:_dl_init
   obj:/lib/x86_64-linux-gnu/ld-2.27.so
}
{
   <insert_a_suppression_name_here>
   Memcheck:Leak
   match-leak-kinds: reachable
   fun:_Znwm
   obj:/usr/lib/x86_64-linux-gnu/libprotobuf.so.17.0.0
   fun:_ZN6google8protobuf24SimpleDescriptorDatabase15DescriptorIndexISt4pairIPKviEE9AddSymbolERKNSt7__cxx1112basic_stringIcSt11char_traitsIcESaIcEEES6_
   fun:_ZN6google8protobuf24SimpleDescriptorDatabase15DescriptorIndexISt4pairIPKviEE7AddFileERKNS0_19FileDescriptorProtoES6_
   fun:_ZN6google8protobuf25EncodedDescriptorDatabase3AddEPKvi
   fun:_ZN6google8protobuf14DescriptorPool24InternalAddGeneratedFileEPKvi
   fun:_ZN49protobuf_google_2fprotobuf_2ffield_5fmask_2eproto18AddDescriptorsImplEv
   fun:__pthread_once_slow
   obj:/usr/lib/x86_64-linux-gnu/libprotobuf.so.17.0.0
   fun:call_init
   fun:_dl_init
   obj:/lib/x86_64-linux-gnu/ld-2.27.so
}
{
   <insert_a_suppression_name_here>
   Memcheck:Leak
   match-leak-kinds: reachable
   fun:_Znwm
   fun:_ZN6google8protobuf18InsertIfNotPresentISt3mapINSt7__cxx1112basic_stringIcSt11char_traitsIcESaIcEEESt4pairIPKviESt4lessIS8_ESaIS9_IKS8_SC_EEEEEbPT_RKNSJ_10value_type10first_typeERKNSL_11second_typeE
   fun:_ZN6google8protobuf24SimpleDescriptorDatabase15DescriptorIndexISt4pairIPKviEE7AddFileERKNS0_19FileDescriptorProtoES6_
   fun:_ZN6google8protobuf25EncodedDescriptorDatabase3AddEPKvi
   fun:_ZN6google8protobuf14DescriptorPool24InternalAddGeneratedFileEPKvi
   fun:_ZN43protobuf_google_2fprotobuf_2fstruct_2eproto18AddDescriptorsImplEv
   fun:__pthread_once_slow
   obj:/usr/lib/x86_64-linux-gnu/libprotobuf.so.17.0.0
   fun:call_init
   fun:_dl_init
   obj:/lib/x86_64-linux-gnu/ld-2.27.so
}
{
   <insert_a_suppression_name_here>
   Memcheck:Leak
   match-leak-kinds: reachable
   fun:_Znwm
   obj:/usr/lib/x86_64-linux-gnu/libprotobuf.so.17.0.0
   fun:_ZN6google8protobuf24SimpleDescriptorDatabase15DescriptorIndexISt4pairIPKviEE9AddSymbolERKNSt7__cxx1112basic_stringIcSt11char_traitsIcESaIcEEES6_
   fun:_ZN6google8protobuf24SimpleDescriptorDatabase15DescriptorIndexISt4pairIPKviEE7AddFileERKNS0_19FileDescriptorProtoES6_
   fun:_ZN6google8protobuf25EncodedDescriptorDatabase3AddEPKvi
   fun:_ZN6google8protobuf14DescriptorPool24InternalAddGeneratedFileEPKvi
   fun:_ZN43protobuf_google_2fprotobuf_2fstruct_2eproto18AddDescriptorsImplEv
   fun:__pthread_once_slow
   obj:/usr/lib/x86_64-linux-gnu/libprotobuf.so.17.0.0
   fun:call_init
   fun:_dl_init
   obj:/lib/x86_64-linux-gnu/ld-2.27.so
}
{
   <insert_a_suppression_name_here>
   Memcheck:Leak
   match-leak-kinds: reachable
   fun:_Znwm
   fun:_ZN6google8protobuf18InsertIfNotPresentISt3mapINSt7__cxx1112basic_stringIcSt11char_traitsIcESaIcEEESt4pairIPKviESt4lessIS8_ESaIS9_IKS8_SC_EEEEEbPT_RKNSJ_10value_type10first_typeERKNSL_11second_typeE
   fun:_ZN6google8protobuf24SimpleDescriptorDatabase15DescriptorIndexISt4pairIPKviEE7AddFileERKNS0_19FileDescriptorProtoES6_
   fun:_ZN6google8protobuf25EncodedDescriptorDatabase3AddEPKvi
   fun:_ZN6google8protobuf14DescriptorPool24InternalAddGeneratedFileEPKvi
   fun:_ZN46protobuf_google_2fprotobuf_2ftimestamp_2eproto18AddDescriptorsImplEv
   fun:__pthread_once_slow
   obj:/usr/lib/x86_64-linux-gnu/libprotobuf.so.17.0.0
   fun:call_init
   fun:_dl_init
   obj:/lib/x86_64-linux-gnu/ld-2.27.so
}
{
   <insert_a_suppression_name_here>
   Memcheck:Leak
   match-leak-kinds: reachable
   fun:_Znwm
   obj:/usr/lib/x86_64-linux-gnu/libprotobuf.so.17.0.0
   fun:_ZN6google8protobuf24SimpleDescriptorDatabase15DescriptorIndexISt4pairIPKviEE9AddSymbolERKNSt7__cxx1112basic_stringIcSt11char_traitsIcESaIcEEES6_
   fun:_ZN6google8protobuf24SimpleDescriptorDatabase15DescriptorIndexISt4pairIPKviEE7AddFileERKNS0_19FileDescriptorProtoES6_
   fun:_ZN6google8protobuf25EncodedDescriptorDatabase3AddEPKvi
   fun:_ZN6google8protobuf14DescriptorPool24InternalAddGeneratedFileEPKvi
   fun:_ZN46protobuf_google_2fprotobuf_2ftimestamp_2eproto18AddDescriptorsImplEv
   fun:__pthread_once_slow
   obj:/usr/lib/x86_64-linux-gnu/libprotobuf.so.17.0.0
   fun:call_init
   fun:_dl_init
   obj:/lib/x86_64-linux-gnu/ld-2.27.so
}
{
   <insert_a_suppression_name_here>
   Memcheck:Leak
   match-leak-kinds: reachable
   fun:_Znwm
   fun:_ZN6google8protobuf18InsertIfNotPresentISt3mapINSt7__cxx1112basic_stringIcSt11char_traitsIcESaIcEEESt4pairIPKviESt4lessIS8_ESaIS9_IKS8_SC_EEEEEbPT_RKNSJ_10value_type10first_typeERKNSL_11second_typeE
   fun:_ZN6google8protobuf24SimpleDescriptorDatabase15DescriptorIndexISt4pairIPKviEE7AddFileERKNS0_19FileDescriptorProtoES6_
   fun:_ZN6google8protobuf25EncodedDescriptorDatabase3AddEPKvi
   fun:_ZN6google8protobuf14DescriptorPool24InternalAddGeneratedFileEPKvi
   fun:_ZN45protobuf_google_2fprotobuf_2fwrappers_2eproto18AddDescriptorsImplEv
   fun:__pthread_once_slow
   obj:/usr/lib/x86_64-linux-gnu/libprotobuf.so.17.0.0
   fun:call_init
   fun:_dl_init
   obj:/lib/x86_64-linux-gnu/ld-2.27.so
}
{
   <insert_a_suppression_name_here>
   Memcheck:Leak
   match-leak-kinds: reachable
   fun:_Znwm
   fun:_ZN6google8protobuf18InsertIfNotPresentISt3mapINSt7__cxx1112basic_stringIcSt11char_traitsIcESaIcEEESt4pairIPKviESt4lessIS8_ESaIS9_IKS8_SC_EEEEEbPT_RKNSJ_10value_type10first_typeERKNSL_11second_typeE
   fun:_ZN6google8protobuf24SimpleDescriptorDatabase15DescriptorIndexISt4pairIPKviEE7AddFileERKNS0_19FileDescriptorProtoES6_
   fun:_ZN6google8protobuf25EncodedDescriptorDatabase3AddEPKvi
   fun:_ZN6google8protobuf14DescriptorPool24InternalAddGeneratedFileEPKvi
   fun:_ZN25protobuf_bluzelle_2eproto18AddDescriptorsImplEv
   fun:_ZSt13__invoke_implIvRFvvEJEET_St14__invoke_otherOT0_DpOT1_
   fun:_ZSt8__invokeIRFvvEJEENSt15__invoke_resultIT_JDpT0_EE4typeEOS3_DpOS4_
   fun:_ZZSt9call_onceIRFvvEJEEvRSt9once_flagOT_DpOT0_ENKUlvE_clEv
   fun:_ZZSt9call_onceIRFvvEJEEvRSt9once_flagOT_DpOT0_ENKUlvE0_clEv
   fun:_ZZSt9call_onceIRFvvEJEEvRSt9once_flagOT_DpOT0_ENUlvE0_4_FUNEv
   fun:__pthread_once_slow
}
{
   <insert_a_suppression_name_here>
   Memcheck:Leak
   match-leak-kinds: reachable
   fun:_Znwm
   obj:/usr/lib/x86_64-linux-gnu/libprotobuf.so.17.0.0
   fun:_ZN6google8protobuf24SimpleDescriptorDatabase15DescriptorIndexISt4pairIPKviEE9AddSymbolERKNSt7__cxx1112basic_stringIcSt11char_traitsIcESaIcEEES6_
   fun:_ZN6google8protobuf24SimpleDescriptorDatabase15DescriptorIndexISt4pairIPKviEE7AddFileERKNS0_19FileDescriptorProtoES6_
   fun:_ZN6google8protobuf25EncodedDescriptorDatabase3AddEPKvi
   fun:_ZN6google8protobuf14DescriptorPool24InternalAddGeneratedFileEPKvi
   fun:_ZN25protobuf_bluzelle_2eproto18AddDescriptorsImplEv
   fun:_ZSt13__invoke_implIvRFvvEJEET_St14__invoke_otherOT0_DpOT1_
   fun:_ZSt8__invokeIRFvvEJEENSt15__invoke_resultIT_JDpT0_EE4typeEOS3_DpOS4_
   fun:_ZZSt9call_onceIRFvvEJEEvRSt9once_flagOT_DpOT0_ENKUlvE_clEv
   fun:_ZZSt9call_onceIRFvvEJEEvRSt9once_flagOT_DpOT0_ENKUlvE0_clEv
   fun:_ZZSt9call_onceIRFvvEJEEvRSt9once_flagOT_DpOT0_ENUlvE0_4_FUNEv
}
{
   <insert_a_suppression_name_here>
   Memcheck:Leak
   match-leak-kinds: reachable
   fun:_Znwm
   fun:_ZN6google8protobuf18InsertIfNotPresentISt3mapINSt7__cxx1112basic_stringIcSt11char_traitsIcESaIcEEESt4pairIPKviESt4lessIS8_ESaIS9_IKS8_SC_EEEEEbPT_RKNSJ_10value_type10first_typeERKNSL_11second_typeE
   fun:_ZN6google8protobuf24SimpleDescriptorDatabase15DescriptorIndexISt4pairIPKviEE7AddFileERKNS0_19FileDescriptorProtoES6_
   fun:_ZN6google8protobuf25EncodedDescriptorDatabase3AddEPKvi
   fun:_ZN6google8protobuf14DescriptorPool24InternalAddGeneratedFileEPKvi
   fun:_ZN25protobuf_database_2eproto18AddDescriptorsImplEv
   fun:_ZSt13__invoke_implIvRFvvEJEET_St14__invoke_otherOT0_DpOT1_
   fun:_ZSt8__invokeIRFvvEJEENSt15__invoke_resultIT_JDpT0_EE4typeEOS3_DpOS4_
   fun:_ZZSt9call_onceIRFvvEJEEvRSt9once_flagOT_DpOT0_ENKUlvE_clEv
   fun:_ZZSt9call_onceIRFvvEJEEvRSt9once_flagOT_DpOT0_ENKUlvE0_clEv
   fun:_ZZSt9call_onceIRFvvEJEEvRSt9once_flagOT_DpOT0_ENUlvE0_4_FUNEv
   fun:__pthread_once_slow
}
{
   <insert_a_suppression_name_here>
   Memcheck:Leak
   match-leak-kinds: reachable
   fun:_Znwm
   fun:_ZN6google8protobuf18InsertIfNotPresentISt3mapINSt7__cxx1112basic_stringIcSt11char_traitsIcESaIcEEESt4pairIPKviESt4lessIS8_ESaIS9_IKS8_SC_EEEEEbPT_RKNSJ_10value_type10first_typeERKNSL_11second_typeE
   fun:_ZN6google8protobuf24SimpleDescriptorDatabase15DescriptorIndexISt4pairIPKviEE7AddFileERKNS0_19FileDescriptorProtoES6_
   fun:_ZN6google8protobuf25EncodedDescriptorDatabase3AddEPKvi
   fun:_ZN6google8protobuf14DescriptorPool24InternalAddGeneratedFileEPKvi
   fun:_ZN21protobuf_pbft_2eproto18AddDescriptorsImplEv
   fun:_ZSt13__invoke_implIvRFvvEJEET_St14__invoke_otherOT0_DpOT1_
   fun:_ZSt8__invokeIRFvvEJEENSt15__invoke_resultIT_JDpT0_EE4typeEOS3_DpOS4_
   fun:_ZZSt9call_onceIRFvvEJEEvRSt9once_flagOT_DpOT0_ENKUlvE_clEv
   fun:_ZZSt9call_onceIRFvvEJEEvRSt9once_flagOT_DpOT0_ENKUlvE0_clEv
   fun:_ZZSt9call_onceIRFvvEJEEvRSt9once_flagOT_DpOT0_ENUlvE0_4_FUNEv
   fun:__pthread_once_slow
}
{
   <insert_a_suppression_name_here>
   Memcheck:Leak
   match-leak-kinds: reachable
   fun:_Znwm
   fun:_ZN6google8protobuf18InsertIfNotPresentISt3mapINSt7__cxx1112basic_stringIcSt11char_traitsIcESaIcEEESt4pairIPKviESt4lessIS8_ESaIS9_IKS8_SC_EEEEEbPT_RKNSJ_10value_type10first_typeERKNSL_11second_typeE
   fun:_ZN6google8protobuf24SimpleDescriptorDatabase15DescriptorIndexISt4pairIPKviEE7AddFileERKNS0_19FileDescriptorProtoES6_
   fun:_ZN6google8protobuf25EncodedDescriptorDatabase3AddEPKvi
   fun:_ZN6google8protobuf14DescriptorPool24InternalAddGeneratedFileEPKvi
   fun:_ZN22protobuf_audit_2eproto18AddDescriptorsImplEv
   fun:_ZSt13__invoke_implIvRFvvEJEET_St14__invoke_otherOT0_DpOT1_
   fun:_ZSt8__invokeIRFvvEJEENSt15__invoke_resultIT_JDpT0_EE4typeEOS3_DpOS4_
   fun:_ZZSt9call_onceIRFvvEJEEvRSt9once_flagOT_DpOT0_ENKUlvE_clEv
   fun:_ZZSt9call_onceIRFvvEJEEvRSt9once_flagOT_DpOT0_ENKUlvE0_clEv
   fun:_ZZSt9call_onceIRFvvEJEEvRSt9once_flagOT_DpOT0_ENUlvE0_4_FUNEv
   fun:__pthread_once_slow
}
{
   <insert_a_suppression_name_here>
   Memcheck:Leak
   match-leak-kinds: reachable
   fun:_Znwm
   obj:/usr/lib/x86_64-linux-gnu/libprotobuf.so.17.0.0
   fun:_ZN6google8protobuf14MessageFactory29InternalRegisterGeneratedFileEPKcPFvRKNSt7__cxx1112basic_stringIcSt11char_traitsIcESaIcEEEE
   fun:__pthread_once_slow
   obj:/usr/lib/x86_64-linux-gnu/libprotobuf.so.17.0.0
   fun:call_init
   fun:_dl_init
   obj:/lib/x86_64-linux-gnu/ld-2.27.so
}
{
   <insert_a_suppression_name_here>
   Memcheck:Leak
   match-leak-kinds: reachable
   fun:_Znwm
   obj:/usr/lib/x86_64-linux-gnu/libprotobuf.so.17.0.0
   fun:_ZN6google8protobuf24SimpleDescriptorDatabase15DescriptorIndexISt4pairIPKviEE9AddSymbolERKNSt7__cxx1112basic_stringIcSt11char_traitsIcESaIcEEES6_
   fun:_ZN6google8protobuf24SimpleDescriptorDatabase15DescriptorIndexISt4pairIPKviEE7AddFileERKNS0_19FileDescriptorProtoES6_
   fun:_ZN6google8protobuf25EncodedDescriptorDatabase3AddEPKvi
   fun:_ZN6google8protobuf14DescriptorPool24InternalAddGeneratedFileEPKvi
   fun:_ZN21protobuf_pbft_2eproto18AddDescriptorsImplEv
   fun:_ZSt13__invoke_implIvRFvvEJEET_St14__invoke_otherOT0_DpOT1_
   fun:_ZSt8__invokeIRFvvEJEENSt15__invoke_resultIT_JDpT0_EE4typeEOS3_DpOS4_
   fun:_ZZSt9call_onceIRFvvEJEEvRSt9once_flagOT_DpOT0_ENKUlvE_clEv
   fun:_ZZSt9call_onceIRFvvEJEEvRSt9once_flagOT_DpOT0_ENKUlvE0_clEv
   fun:_ZZSt9call_onceIRFvvEJEEvRSt9once_flagOT_DpOT0_ENUlvE0_4_FUNEv
}
{
   <insert_a_suppression_name_here>
   Memcheck:Leak
   match-leak-kinds: reachable
   fun:_Znwm
   obj:/usr/lib/x86_64-linux-gnu/libprotobuf.so.17.0.0
   fun:_ZN6google8protobuf14DescriptorPool24InternalAddGeneratedFileEPKvi
   fun:_ZN40protobuf_google_2fprotobuf_2fany_2eproto18AddDescriptorsImplEv
   fun:__pthread_once_slow
   obj:/usr/lib/x86_64-linux-gnu/libprotobuf.so.17.0.0
   fun:call_init
   fun:_dl_init
   obj:/lib/x86_64-linux-gnu/ld-2.27.so
}
{
   <insert_a_suppression_name_here>
   Memcheck:Leak
   match-leak-kinds: reachable
   fun:_Znwm
   obj:/usr/lib/x86_64-linux-gnu/libprotobuf.so.17.0.0
   fun:_ZNSt10_HashtableIPKcSt4pairIKS1_PFvRKNSt7__cxx1112basic_stringIcSt11char_traitsIcESaIcEEEEESaISE_ENSt8__detail10_Select1stEN6google8protobuf5streqENSJ_4hashIS1_EENSG_18_Mod_range_hashingENSG_20_Default_ranged_hashENSG_20_Prime_rehash_policyENSG_17_Hashtable_traitsILb1ELb0ELb1EEEE9_M_rehashEmRKm
   fun:_ZN6google8protobuf14MessageFactory29InternalRegisterGeneratedFileEPKcPFvRKNSt7__cxx1112basic_stringIcSt11char_traitsIcESaIcEEEE
   fun:__pthread_once_slow
   obj:/usr/lib/x86_64-linux-gnu/libprotobuf.so.17.0.0
   fun:call_init
   fun:_dl_init
   obj:/lib/x86_64-linux-gnu/ld-2.27.so
}
{
   <insert_a_suppression_name_here>
   Memcheck:Leak
   match-leak-kinds: reachable
   fun:_Znwm
   obj:/usr/lib/x86_64-linux-gnu/libprotobuf.so.17.0.0
   fun:_ZN6google8protobuf24SimpleDescriptorDatabase15DescriptorIndexISt4pairIPKviEE9AddSymbolERKNSt7__cxx1112basic_stringIcSt11char_traitsIcESaIcEEES6_
   fun:_ZN6google8protobuf24SimpleDescriptorDatabase15DescriptorIndexISt4pairIPKviEE7AddFileERKNS0_19FileDescriptorProtoES6_
   fun:_ZN6google8protobuf25EncodedDescriptorDatabase3AddEPKvi
   fun:_ZN6google8protobuf14DescriptorPool24InternalAddGeneratedFileEPKvi
   fun:_ZN40protobuf_google_2fprotobuf_2fapi_2eproto18AddDescriptorsImplEv
   fun:__pthread_once_slow
   obj:/usr/lib/x86_64-linux-gnu/libprotobuf.so.17.0.0
   fun:call_init
   fun:_dl_init
   obj:/lib/x86_64-linux-gnu/ld-2.27.so
}
{
   <insert_a_suppression_name_here>
   Memcheck:Leak
   match-leak-kinds: reachable
   fun:_Znwm
   fun:_ZN9__gnu_cxx13new_allocatorIcE8allocateEmPKv
   fun:_ZNSt16allocator_traitsISaIcEE8allocateERS0_m
   fun:_ZNSt7__cxx1112basic_stringIcSt11char_traitsIcESaIcEE9_M_createERmm
   obj:/usr/lib/x86_64-linux-gnu/libprotobuf.so.17.0.0
   obj:/usr/lib/x86_64-linux-gnu/libprotobuf.so.17.0.0
   fun:_ZN6google8protobuf24SimpleDescriptorDatabase15DescriptorIndexISt4pairIPKviEE9AddSymbolERKNSt7__cxx1112basic_stringIcSt11char_traitsIcESaIcEEES6_
   fun:_ZN6google8protobuf24SimpleDescriptorDatabase15DescriptorIndexISt4pairIPKviEE7AddFileERKNS0_19FileDescriptorProtoES6_
   fun:_ZN6google8protobuf25EncodedDescriptorDatabase3AddEPKvi
   fun:_ZN6google8protobuf14DescriptorPool24InternalAddGeneratedFileEPKvi
   fun:_ZN45protobuf_google_2fprotobuf_2fwrappers_2eproto18AddDescriptorsImplEv
   fun:__pthread_once_slow
}
{
   <insert_a_suppression_name_here>
   Memcheck:Leak
   match-leak-kinds: reachable
   fun:_Znwm
   fun:_ZN6google8protobuf14MessageFactory29InternalRegisterGeneratedFileEPKcPFvRKNSt7__cxx1112basic_stringIcSt11char_traitsIcESaIcEEEE
   fun:__pthread_once_slow
   obj:/usr/lib/x86_64-linux-gnu/libprotobuf.so.17.0.0
   fun:call_init
   fun:_dl_init
   obj:/lib/x86_64-linux-gnu/ld-2.27.so
}
{
   <insert_a_suppression_name_here>
   Memcheck:Leak
   match-leak-kinds: reachable
   fun:_Znwm
   fun:_ZN5boost6detail8heap_newINS0_26externally_launched_threadEEEPT_v
   fun:_ZN5boost6detail25make_external_thread_dataEv
   fun:_ZN5boost6detail31get_or_make_current_thread_dataEv
   fun:_ZN5boost6detail24add_thread_exit_functionEPNS0_25thread_exit_function_baseE
   fun:_ZN5boost11this_thread14at_thread_exitINS_3_bi6bind_tINS2_11unspecifiedENS_15checked_deleterImEENS2_5list1INS2_5valueIPmEEEEEEEEvT_
   fun:_ZN5boost3log12v2s_mt_posix7sources3aux18get_severity_levelEv
   fun:_ZN5boost3log12v2s_mt_posix7sources3aux14severity_levelINS1_7trivial14severity_levelEE9set_valueES6_
   fun:_ZN5boost3log12v2s_mt_posix7sources21basic_severity_loggerINS2_12basic_loggerIcNS2_18severity_logger_mtINS1_7trivial14severity_levelEEENS2_18multi_thread_modelINS1_3aux14light_rw_mutexEEEEES7_E20open_record_unlockedINS_9parameter3aux15tagged_argumentINS1_8keywords3tag8severityEKS7_EEEENS1_6recordERKT_
   fun:_ZN5boost3log12v2s_mt_posix7sources22basic_composite_loggerIcNS2_18severity_logger_mtINS1_7trivial14severity_levelEEENS2_18multi_thread_modelINS1_3aux14light_rw_mutexEEENS2_8featuresIJNS2_8severityIS6_EEEEEE11open_recordINS_9parameter3aux15tagged_argumentINS1_8keywords3tag8severityEKS6_EEEENS1_6recordERKT_
   fun:_ZN3bzn4crud14handle_requestERKNSt7__cxx1112basic_stringIcSt11char_traitsIcESaIcEEERK12database_msgSt10shared_ptrINS_12session_baseEE
   fun:_ZN48crud_test_that_create_sends_proper_response_Test8TestBodyEv
}
{
   <insert_a_suppression_name_here>
   Memcheck:Leak
   match-leak-kinds: reachable
   fun:_Znwm
   fun:_ZN9__gnu_cxx13new_allocatorIcE8allocateEmPKv
   fun:_ZNSt16allocator_traitsISaIcEE8allocateERS0_m
   fun:_ZNSt7__cxx1112basic_stringIcSt11char_traitsIcESaIcEE9_M_createERmm
   obj:/usr/lib/x86_64-linux-gnu/libprotobuf.so.17.0.0
   obj:/usr/lib/x86_64-linux-gnu/libprotobuf.so.17.0.0
   fun:_ZN6google8protobuf24SimpleDescriptorDatabase15DescriptorIndexISt4pairIPKviEE9AddSymbolERKNSt7__cxx1112basic_stringIcSt11char_traitsIcESaIcEEES6_
   fun:_ZN6google8protobuf24SimpleDescriptorDatabase15DescriptorIndexISt4pairIPKviEE7AddFileERKNS0_19FileDescriptorProtoES6_
   fun:_ZN6google8protobuf25EncodedDescriptorDatabase3AddEPKvi
   fun:_ZN6google8protobuf14DescriptorPool24InternalAddGeneratedFileEPKvi
   fun:_ZN25protobuf_database_2eproto18AddDescriptorsImplEv
   fun:_ZSt13__invoke_implIvRFvvEJEET_St14__invoke_otherOT0_DpOT1_
}
{
   <insert_a_suppression_name_here>
   Memcheck:Leak
   match-leak-kinds: reachable
   fun:_Znwm
   obj:/usr/lib/x86_64-linux-gnu/libprotobuf.so.17.0.0
   fun:_ZN6google8protobuf24SimpleDescriptorDatabase15DescriptorIndexISt4pairIPKviEE9AddSymbolERKNSt7__cxx1112basic_stringIcSt11char_traitsIcESaIcEEES6_
   fun:_ZN6google8protobuf24SimpleDescriptorDatabase15DescriptorIndexISt4pairIPKviEE7AddFileERKNS0_19FileDescriptorProtoES6_
   fun:_ZN6google8protobuf25EncodedDescriptorDatabase3AddEPKvi
   fun:_ZN6google8protobuf14DescriptorPool24InternalAddGeneratedFileEPKvi
   fun:_ZN22protobuf_audit_2eproto18AddDescriptorsImplEv
   fun:_ZSt13__invoke_implIvRFvvEJEET_St14__invoke_otherOT0_DpOT1_
   fun:_ZSt8__invokeIRFvvEJEENSt15__invoke_resultIT_JDpT0_EE4typeEOS3_DpOS4_
   fun:_ZZSt9call_onceIRFvvEJEEvRSt9once_flagOT_DpOT0_ENKUlvE_clEv
   fun:_ZZSt9call_onceIRFvvEJEEvRSt9once_flagOT_DpOT0_ENKUlvE0_clEv
   fun:_ZZSt9call_onceIRFvvEJEEvRSt9once_flagOT_DpOT0_ENUlvE0_4_FUNEv
}
{
   <insert_a_suppression_name_here>
   Memcheck:Leak
   match-leak-kinds: reachable
   fun:_Znwm
   fun:_ZN9__gnu_cxx13new_allocatorIcE8allocateEmPKv
   fun:_ZNSt16allocator_traitsISaIcEE8allocateERS0_m
   fun:_ZNSt7__cxx1112basic_stringIcSt11char_traitsIcESaIcEE9_M_createERmm
   obj:/usr/lib/x86_64-linux-gnu/libprotobuf.so.17.0.0
   obj:/usr/lib/x86_64-linux-gnu/libprotobuf.so.17.0.0
   fun:_ZN6google8protobuf24SimpleDescriptorDatabase15DescriptorIndexISt4pairIPKviEE9AddSymbolERKNSt7__cxx1112basic_stringIcSt11char_traitsIcESaIcEEES6_
   fun:_ZN6google8protobuf24SimpleDescriptorDatabase15DescriptorIndexISt4pairIPKviEE7AddFileERKNS0_19FileDescriptorProtoES6_
   fun:_ZN6google8protobuf25EncodedDescriptorDatabase3AddEPKvi
   fun:_ZN6google8protobuf14DescriptorPool24InternalAddGeneratedFileEPKvi
   fun:_ZN47protobuf_google_2fprotobuf_2fdescriptor_2eproto18AddDescriptorsImplEv
   fun:__pthread_once_slow
}
{
   <insert_a_suppression_name_here>
   Memcheck:Leak
   match-leak-kinds: reachable
   fun:_Znwm
   obj:/usr/lib/x86_64-linux-gnu/libprotobuf.so.17.0.0
   fun:_ZN6google8protobuf24SimpleDescriptorDatabase15DescriptorIndexISt4pairIPKviEE9AddSymbolERKNSt7__cxx1112basic_stringIcSt11char_traitsIcESaIcEEES6_
   fun:_ZN6google8protobuf24SimpleDescriptorDatabase15DescriptorIndexISt4pairIPKviEE7AddFileERKNS0_19FileDescriptorProtoES6_
   fun:_ZN6google8protobuf25EncodedDescriptorDatabase3AddEPKvi
   fun:_ZN6google8protobuf14DescriptorPool24InternalAddGeneratedFileEPKvi
   fun:_ZN45protobuf_google_2fprotobuf_2fwrappers_2eproto18AddDescriptorsImplEv
   fun:__pthread_once_slow
   obj:/usr/lib/x86_64-linux-gnu/libprotobuf.so.17.0.0
   fun:call_init
   fun:_dl_init
   obj:/lib/x86_64-linux-gnu/ld-2.27.so
}
{
   <insert_a_suppression_name_here>
   Memcheck:Leak
   match-leak-kinds: reachable
   fun:_Znwm
   obj:/usr/lib/x86_64-linux-gnu/libprotobuf.so.17.0.0
   fun:_ZN6google8protobuf24SimpleDescriptorDatabase15DescriptorIndexISt4pairIPKviEE9AddSymbolERKNSt7__cxx1112basic_stringIcSt11char_traitsIcESaIcEEES6_
   fun:_ZN6google8protobuf24SimpleDescriptorDatabase15DescriptorIndexISt4pairIPKviEE7AddFileERKNS0_19FileDescriptorProtoES6_
   fun:_ZN6google8protobuf25EncodedDescriptorDatabase3AddEPKvi
   fun:_ZN6google8protobuf14DescriptorPool24InternalAddGeneratedFileEPKvi
   fun:_ZN47protobuf_google_2fprotobuf_2fdescriptor_2eproto18AddDescriptorsImplEv
   fun:__pthread_once_slow
   obj:/usr/lib/x86_64-linux-gnu/libprotobuf.so.17.0.0
   fun:call_init
   fun:_dl_init
   obj:/lib/x86_64-linux-gnu/ld-2.27.so
}
{
   <insert_a_suppression_name_here>
   Memcheck:Leak
   match-leak-kinds: reachable
   fun:_Znwm
   obj:/usr/lib/x86_64-linux-gnu/libprotobuf.so.17.0.0
   fun:_ZN6google8protobuf8internal13OnShutdownRunEPFvPKvES3_
   fun:_ZN6google8protobuf8internal24OnShutdownDestroyMessageEPKv
   fun:_ZN25protobuf_database_2eprotoL28InitDefaultsdatabase_requestEv
   obj:/usr/lib/x86_64-linux-gnu/libprotobuf.so.17.0.0
   obj:/usr/lib/x86_64-linux-gnu/libprotobuf.so.17.0.0
   fun:_ZN6google8protobuf8internal11InitSCCImplEPNS1_11SCCInfoBaseE
   fun:_ZN6google8protobuf8internal7InitSCCEPNS1_11SCCInfoBaseE
   fun:_ZN25protobuf_database_2eproto12InitDefaultsEv
   fun:_ZN25protobuf_database_2eproto18AddDescriptorsImplEv
   fun:_ZSt13__invoke_implIvRFvvEJEET_St14__invoke_otherOT0_DpOT1_
}
{
   <insert_a_suppression_name_here>
   Memcheck:Leak
   match-leak-kinds: reachable
   fun:_Znwm
   obj:/usr/lib/x86_64-linux-gnu/libprotobuf.so.17.0.0
   fun:_ZN6google8protobuf24SimpleDescriptorDatabase15DescriptorIndexISt4pairIPKviEE9AddSymbolERKNSt7__cxx1112basic_stringIcSt11char_traitsIcESaIcEEES6_
   fun:_ZN6google8protobuf24SimpleDescriptorDatabase15DescriptorIndexISt4pairIPKviEE7AddFileERKNS0_19FileDescriptorProtoES6_
   fun:_ZN6google8protobuf25EncodedDescriptorDatabase3AddEPKvi
   fun:_ZN6google8protobuf14DescriptorPool24InternalAddGeneratedFileEPKvi
   fun:_ZN25protobuf_database_2eproto18AddDescriptorsImplEv
   fun:_ZSt13__invoke_implIvRFvvEJEET_St14__invoke_otherOT0_DpOT1_
   fun:_ZSt8__invokeIRFvvEJEENSt15__invoke_resultIT_JDpT0_EE4typeEOS3_DpOS4_
   fun:_ZZSt9call_onceIRFvvEJEEvRSt9once_flagOT_DpOT0_ENKUlvE_clEv
   fun:_ZZSt9call_onceIRFvvEJEEvRSt9once_flagOT_DpOT0_ENKUlvE0_clEv
   fun:_ZZSt9call_onceIRFvvEJEEvRSt9once_flagOT_DpOT0_ENUlvE0_4_FUNEv
}
{
   <insert_a_suppression_name_here>
   Memcheck:Leak
   match-leak-kinds: reachable
   fun:_Znwm
   fun:_ZN5boost3log12v2s_mt_posix7sources3aux18get_severity_levelEv
   fun:_ZN5boost3log12v2s_mt_posix7sources3aux14severity_levelINS1_7trivial14severity_levelEE9set_valueES6_
   fun:_ZN5boost3log12v2s_mt_posix7sources21basic_severity_loggerINS2_12basic_loggerIcNS2_18severity_logger_mtINS1_7trivial14severity_levelEEENS2_18multi_thread_modelINS1_3aux14light_rw_mutexEEEEES7_E20open_record_unlockedINS_9parameter3aux15tagged_argumentINS1_8keywords3tag8severityEKS7_EEEENS1_6recordERKT_
   fun:_ZN5boost3log12v2s_mt_posix7sources22basic_composite_loggerIcNS2_18severity_logger_mtINS1_7trivial14severity_levelEEENS2_18multi_thread_modelINS1_3aux14light_rw_mutexEEENS2_8featuresIJNS2_8severityIS6_EEEEEE11open_recordINS_9parameter3aux15tagged_argumentINS1_8keywords3tag8severityEKS6_EEEENS1_6recordERKT_
   fun:_ZN3bzn6cryptoC1ESt10shared_ptrINS_12options_baseEES1_INS_12monitor_baseEE
   fun:_ZN9__gnu_cxx13new_allocatorIN3bzn6cryptoEE9constructIS2_JRSt10shared_ptrINS1_12options_baseEERS5_INS1_12mock_monitorEEEEEvPT_DpOT0_
   fun:_ZNSt16allocator_traitsISaIN3bzn6cryptoEEE9constructIS1_JRSt10shared_ptrINS0_12options_baseEERS5_INS0_12mock_monitorEEEEEvRS2_PT_DpOT0_
   fun:_ZNSt23_Sp_counted_ptr_inplaceIN3bzn6cryptoESaIS1_ELN9__gnu_cxx12_Lock_policyE2EEC1IJRSt10shared_ptrINS0_12options_baseEERS7_INS0_12mock_monitorEEEEES2_DpOT_
   fun:_ZNSt14__shared_countILN9__gnu_cxx12_Lock_policyE2EEC1IN3bzn6cryptoESaIS5_EJRSt10shared_ptrINS4_12options_baseEERS7_INS4_12mock_monitorEEEEESt19_Sp_make_shared_tagPT_RKT0_DpOT1_
   fun:_ZNSt12__shared_ptrIN3bzn6cryptoELN9__gnu_cxx12_Lock_policyE2EEC1ISaIS1_EJRSt10shared_ptrINS0_12options_baseEERS7_INS0_12mock_monitorEEEEESt19_Sp_make_shared_tagRKT_DpOT0_
   fun:_ZNSt10shared_ptrIN3bzn6cryptoEEC1ISaIS1_EJRS_INS0_12options_baseEERS_INS0_12mock_monitorEEEEESt19_Sp_make_shared_tagRKT_DpOT0_
}
{
   <insert_a_suppression_name_here>
   Memcheck:Leak
   match-leak-kinds: reachable
   fun:_Znwm
   fun:_ZN5boost3log12v2s_mt_posix3aux11this_thread6get_idEv
   fun:_ZN5boost3log12v2s_mt_posix4core14implementation11thread_data15get_random_seedEv
   fun:_ZN5boost3log12v2s_mt_posix4core14implementation11thread_dataC1Ev
   fun:_ZN5boost3log12v2s_mt_posix4core14implementation16init_thread_dataEv
   fun:_ZN5boost3log12v2s_mt_posix4core14implementation15get_thread_dataEv
   fun:open_record<const boost::log::v2s_mt_posix::attribute_set&>
   fun:_ZN5boost3log12v2s_mt_posix4core11open_recordERKNS1_13attribute_setE
   fun:_ZN5boost3log12v2s_mt_posix7sources12basic_loggerIcNS2_18severity_logger_mtINS1_7trivial14severity_levelEEENS2_18multi_thread_modelINS1_3aux14light_rw_mutexEEEE20open_record_unlockedINS_9parameter3aux15tagged_argumentINS1_8keywords3tag8severityEKS6_EEEENS1_6recordERKT_
   fun:_ZN5boost3log12v2s_mt_posix7sources21basic_severity_loggerINS2_12basic_loggerIcNS2_18severity_logger_mtINS1_7trivial14severity_levelEEENS2_18multi_thread_modelINS1_3aux14light_rw_mutexEEEEES7_E20open_record_unlockedINS_9parameter3aux15tagged_argumentINS1_8keywords3tag8severityEKS7_EEEENS1_6recordERKT_
   fun:_ZN5boost3log12v2s_mt_posix7sources22basic_composite_loggerIcNS2_18severity_logger_mtINS1_7trivial14severity_levelEEENS2_18multi_thread_modelINS1_3aux14light_rw_mutexEEENS2_8featuresIJNS2_8severityIS6_EEEEEE11open_recordINS_9parameter3aux15tagged_argumentINS1_8keywords3tag8severityEKS6_EEEENS1_6recordERKT_
   fun:_ZN3bzn6cryptoC1ESt10shared_ptrINS_12options_baseEES1_INS_12monitor_baseEE
   fun:_ZN9__gnu_cxx13new_allocatorIN3bzn6cryptoEE9constructIS2_JRSt10shared_ptrINS1_12options_baseEERS5_INS1_12mock_monitorEEEEEvPT_DpOT0_
}
{
   <insert_a_suppression_name_here>
   Memcheck:Leak
   match-leak-kinds: reachable
   fun:_Znwm
   obj:/usr/lib/x86_64-linux-gnu/libprotobuf.so.17.0.0
   obj:/usr/lib/x86_64-linux-gnu/libprotobuf.so.17.0.0
   fun:_ZN6google8protobuf14MessageFactory29InternalRegisterGeneratedFileEPKcPFvRKNSt7__cxx1112basic_stringIcSt11char_traitsIcESaIcEEEE
   fun:__pthread_once_slow
   obj:/usr/lib/x86_64-linux-gnu/libprotobuf.so.17.0.0
   fun:call_init
   fun:_dl_init
   obj:/lib/x86_64-linux-gnu/ld-2.27.so
}
{
   <insert_a_suppression_name_here>
   Memcheck:Leak
   match-leak-kinds: reachable
   fun:_Znwm
   fun:_ZN5boost6detail8heap_newINS0_25thread_exit_callback_nodeERPNS0_25thread_exit_function_baseERPS2_EEPT_OT0_OT1_
   fun:_ZN5boost6detail24add_thread_exit_functionEPNS0_25thread_exit_function_baseE
   fun:_ZN5boost11this_thread14at_thread_exitINS_3_bi6bind_tINS2_11unspecifiedENS_15checked_deleterImEENS2_5list1INS2_5valueIPmEEEEEEEEvT_
   fun:_ZN5boost3log12v2s_mt_posix7sources3aux18get_severity_levelEv
   fun:_ZN5boost3log12v2s_mt_posix7sources3aux14severity_levelINS1_7trivial14severity_levelEE9set_valueES6_
   fun:_ZN5boost3log12v2s_mt_posix7sources21basic_severity_loggerINS2_12basic_loggerIcNS2_18severity_logger_mtINS1_7trivial14severity_levelEEENS2_18multi_thread_modelINS1_3aux14light_rw_mutexEEEEES7_E20open_record_unlockedINS_9parameter3aux15tagged_argumentINS1_8keywords3tag8severityEKS7_EEEENS1_6recordERKT_
   fun:_ZN5boost3log12v2s_mt_posix7sources22basic_composite_loggerIcNS2_18severity_logger_mtINS1_7trivial14severity_levelEEENS2_18multi_thread_modelINS1_3aux14light_rw_mutexEEENS2_8featuresIJNS2_8severityIS6_EEEEEE11open_recordINS_9parameter3aux15tagged_argumentINS1_8keywords3tag8severityEKS6_EEEENS1_6recordERKT_
   fun:_ZN3bzn6cryptoC1ESt10shared_ptrINS_12options_baseEES1_INS_12monitor_baseEE
   fun:_ZN9__gnu_cxx13new_allocatorIN3bzn6cryptoEE9constructIS2_JRSt10shared_ptrINS1_12options_baseEERS5_INS1_12mock_monitorEEEEEvPT_DpOT0_
   fun:_ZNSt16allocator_traitsISaIN3bzn6cryptoEEE9constructIS1_JRSt10shared_ptrINS0_12options_baseEERS5_INS0_12mock_monitorEEEEEvRS2_PT_DpOT0_
   fun:_ZNSt23_Sp_counted_ptr_inplaceIN3bzn6cryptoESaIS1_ELN9__gnu_cxx12_Lock_policyE2EEC1IJRSt10shared_ptrINS0_12options_baseEERS7_INS0_12mock_monitorEEEEES2_DpOT_
}
{
   <insert_a_suppression_name_here>
   Memcheck:Leak
   match-leak-kinds: reachable
   fun:_Znwm
   fun:_ZN9__gnu_cxx13new_allocatorIcE8allocateEmPKv
   fun:_ZNSt16allocator_traitsISaIcEE8allocateERS0_m
   fun:_ZNSt7__cxx1112basic_stringIcSt11char_traitsIcESaIcEE9_M_createERmm
   obj:/usr/lib/x86_64-linux-gnu/libprotobuf.so.17.0.0
   obj:/usr/lib/x86_64-linux-gnu/libprotobuf.so.17.0.0
   fun:_ZN6google8protobuf24SimpleDescriptorDatabase15DescriptorIndexISt4pairIPKviEE9AddSymbolERKNSt7__cxx1112basic_stringIcSt11char_traitsIcESaIcEEES6_
   fun:_ZN6google8protobuf24SimpleDescriptorDatabase15DescriptorIndexISt4pairIPKviEE7AddFileERKNS0_19FileDescriptorProtoES6_
   fun:_ZN6google8protobuf25EncodedDescriptorDatabase3AddEPKvi
   fun:_ZN6google8protobuf14DescriptorPool24InternalAddGeneratedFileEPKvi
   fun:_ZN40protobuf_google_2fprotobuf_2fany_2eproto18AddDescriptorsImplEv
   fun:__pthread_once_slow
}
{
   <insert_a_suppression_name_here>
   Memcheck:Leak
   match-leak-kinds: reachable
   fun:_Znwm
   fun:_ZN9__gnu_cxx13new_allocatorIcE8allocateEmPKv
   fun:_ZNSt16allocator_traitsISaIcEE8allocateERS0_m
   fun:_ZNSt7__cxx1112basic_stringIcSt11char_traitsIcESaIcEE9_M_createERmm
   obj:/usr/lib/x86_64-linux-gnu/libprotobuf.so.17.0.0
   obj:/usr/lib/x86_64-linux-gnu/libprotobuf.so.17.0.0
   fun:_ZN6google8protobuf24SimpleDescriptorDatabase15DescriptorIndexISt4pairIPKviEE9AddSymbolERKNSt7__cxx1112basic_stringIcSt11char_traitsIcESaIcEEES6_
   fun:_ZN6google8protobuf24SimpleDescriptorDatabase15DescriptorIndexISt4pairIPKviEE7AddFileERKNS0_19FileDescriptorProtoES6_
   fun:_ZN6google8protobuf25EncodedDescriptorDatabase3AddEPKvi
   fun:_ZN6google8protobuf14DescriptorPool24InternalAddGeneratedFileEPKvi
   fun:_ZN42protobuf_google_2fprotobuf_2fempty_2eproto18AddDescriptorsImplEv
   fun:__pthread_once_slow
}
{
   <insert_a_suppression_name_here>
   Memcheck:Leak
   match-leak-kinds: reachable
   fun:_Znwm
   fun:_ZN9__gnu_cxx13new_allocatorIcE8allocateEmPKv
   fun:_ZNSt16allocator_traitsISaIcEE8allocateERS0_m
   fun:_ZNSt7__cxx1112basic_stringIcSt11char_traitsIcESaIcEE9_M_createERmm
   obj:/usr/lib/x86_64-linux-gnu/libprotobuf.so.17.0.0
   obj:/usr/lib/x86_64-linux-gnu/libprotobuf.so.17.0.0
   fun:_ZN6google8protobuf24SimpleDescriptorDatabase15DescriptorIndexISt4pairIPKviEE9AddSymbolERKNSt7__cxx1112basic_stringIcSt11char_traitsIcESaIcEEES6_
   fun:_ZN6google8protobuf24SimpleDescriptorDatabase15DescriptorIndexISt4pairIPKviEE7AddFileERKNS0_19FileDescriptorProtoES6_
   fun:_ZN6google8protobuf25EncodedDescriptorDatabase3AddEPKvi
   fun:_ZN6google8protobuf14DescriptorPool24InternalAddGeneratedFileEPKvi
   fun:_ZN41protobuf_google_2fprotobuf_2ftype_2eproto18AddDescriptorsImplEv
   fun:__pthread_once_slow
}
{
   <insert_a_suppression_name_here>
   Memcheck:Leak
   match-leak-kinds: reachable
   fun:_Znwm
   fun:_ZN5boost6detail8heap_newINS0_20thread_exit_functionINS_3_bi6bind_tINS3_11unspecifiedENS_15checked_deleterImEENS3_5list1INS3_5valueIPmEEEEEEEERSD_EEPT_OT0_
   fun:_ZN5boost11this_thread14at_thread_exitINS_3_bi6bind_tINS2_11unspecifiedENS_15checked_deleterImEENS2_5list1INS2_5valueIPmEEEEEEEEvT_
   fun:_ZN5boost3log12v2s_mt_posix7sources3aux18get_severity_levelEv
   fun:_ZN5boost3log12v2s_mt_posix7sources3aux14severity_levelINS1_7trivial14severity_levelEE9set_valueES6_
   fun:_ZN5boost3log12v2s_mt_posix7sources21basic_severity_loggerINS2_12basic_loggerIcNS2_18severity_logger_mtINS1_7trivial14severity_levelEEENS2_18multi_thread_modelINS1_3aux14light_rw_mutexEEEEES7_E20open_record_unlockedINS_9parameter3aux15tagged_argumentINS1_8keywords3tag8severityEKS7_EEEENS1_6recordERKT_
   fun:_ZN5boost3log12v2s_mt_posix7sources22basic_composite_loggerIcNS2_18severity_logger_mtINS1_7trivial14severity_levelEEENS2_18multi_thread_modelINS1_3aux14light_rw_mutexEEENS2_8featuresIJNS2_8severityIS6_EEEEEE11open_recordINS_9parameter3aux15tagged_argumentINS1_8keywords3tag8severityEKS6_EEEENS1_6recordERKT_
   fun:_ZN3bzn6cryptoC1ESt10shared_ptrINS_12options_baseEES1_INS_12monitor_baseEE
   fun:_ZN9__gnu_cxx13new_allocatorIN3bzn6cryptoEE9constructIS2_JRSt10shared_ptrINS1_12options_baseEERS5_INS1_12mock_monitorEEEEEvPT_DpOT0_
   fun:_ZNSt16allocator_traitsISaIN3bzn6cryptoEEE9constructIS1_JRSt10shared_ptrINS0_12options_baseEERS5_INS0_12mock_monitorEEEEEvRS2_PT_DpOT0_
   fun:_ZNSt23_Sp_counted_ptr_inplaceIN3bzn6cryptoESaIS1_ELN9__gnu_cxx12_Lock_policyE2EEC1IJRSt10shared_ptrINS0_12options_baseEERS7_INS0_12mock_monitorEEEEES2_DpOT_
   fun:_ZNSt14__shared_countILN9__gnu_cxx12_Lock_policyE2EEC1IN3bzn6cryptoESaIS5_EJRSt10shared_ptrINS4_12options_baseEERS7_INS4_12mock_monitorEEEEESt19_Sp_make_shared_tagPT_RKT0_DpOT1_
}
{
   <insert_a_suppression_name_here>
   Memcheck:Leak
   match-leak-kinds: reachable
   fun:_Znwm
   fun:_ZN5boost6detail12shared_countC1INS0_16thread_data_baseEEEPT_
   fun:_ZN5boost6detail20sp_pointer_constructINS0_16thread_data_baseES2_EEvPNS_10shared_ptrIT_EEPT0_RNS0_12shared_countE
   fun:_ZN5boost10shared_ptrINS_6detail16thread_data_baseEEC1IS2_EEPT_
   fun:_ZN5boost10shared_ptrINS_6detail16thread_data_baseEE5resetIS2_EEvPT_
   fun:_ZN5boost6detail25make_external_thread_dataEv
   fun:_ZN5boost6detail31get_or_make_current_thread_dataEv
   fun:_ZN5boost6detail24add_thread_exit_functionEPNS0_25thread_exit_function_baseE
   fun:_ZN5boost11this_thread14at_thread_exitINS_3_bi6bind_tINS2_11unspecifiedENS_15checked_deleterImEENS2_5list1INS2_5valueIPmEEEEEEEEvT_
   fun:_ZN5boost3log12v2s_mt_posix7sources3aux18get_severity_levelEv
   fun:_ZN5boost3log12v2s_mt_posix7sources3aux14severity_levelINS1_7trivial14severity_levelEE9set_valueES6_
   fun:_ZN5boost3log12v2s_mt_posix7sources21basic_severity_loggerINS2_12basic_loggerIcNS2_18severity_logger_mtINS1_7trivial14severity_levelEEENS2_18multi_thread_modelINS1_3aux14light_rw_mutexEEEEES7_E20open_record_unlockedINS_9parameter3aux15tagged_argumentINS1_8keywords3tag8severityEKS7_EEEENS1_6recordERKT_
}
{
   <insert_a_suppression_name_here>
   Memcheck:Leak
   match-leak-kinds: reachable
   fun:_Znwm
   fun:_ZN9__gnu_cxx13new_allocatorIcE8allocateEmPKv
   fun:_ZNSt16allocator_traitsISaIcEE8allocateERS0_m
   fun:_ZNSt7__cxx1112basic_stringIcSt11char_traitsIcESaIcEE9_M_createERmm
   obj:/usr/lib/x86_64-linux-gnu/libprotobuf.so.17.0.0
   obj:/usr/lib/x86_64-linux-gnu/libprotobuf.so.17.0.0
   fun:_ZN6google8protobuf24SimpleDescriptorDatabase15DescriptorIndexISt4pairIPKviEE9AddSymbolERKNSt7__cxx1112basic_stringIcSt11char_traitsIcESaIcEEES6_
   fun:_ZN6google8protobuf24SimpleDescriptorDatabase15DescriptorIndexISt4pairIPKviEE7AddFileERKNS0_19FileDescriptorProtoES6_
   fun:_ZN6google8protobuf25EncodedDescriptorDatabase3AddEPKvi
   fun:_ZN6google8protobuf14DescriptorPool24InternalAddGeneratedFileEPKvi
   fun:_ZN45protobuf_google_2fprotobuf_2fduration_2eproto18AddDescriptorsImplEv
   fun:__pthread_once_slow
}
{
   <insert_a_suppression_name_here>
   Memcheck:Leak
   match-leak-kinds: reachable
   fun:_Znwm
   fun:_ZN9__gnu_cxx13new_allocatorIcE8allocateEmPKv
   fun:_ZNSt16allocator_traitsISaIcEE8allocateERS0_m
   fun:_ZNSt7__cxx1112basic_stringIcSt11char_traitsIcESaIcEE9_M_createERmm
   obj:/usr/lib/x86_64-linux-gnu/libprotobuf.so.17.0.0
   fun:_ZN6google8protobuf18InsertIfNotPresentISt3mapINSt7__cxx1112basic_stringIcSt11char_traitsIcESaIcEEESt4pairIPKviESt4lessIS8_ESaIS9_IKS8_SC_EEEEEbPT_RKNSJ_10value_type10first_typeERKNSL_11second_typeE
   fun:_ZN6google8protobuf24SimpleDescriptorDatabase15DescriptorIndexISt4pairIPKviEE7AddFileERKNS0_19FileDescriptorProtoES6_
   fun:_ZN6google8protobuf25EncodedDescriptorDatabase3AddEPKvi
   fun:_ZN6google8protobuf14DescriptorPool24InternalAddGeneratedFileEPKvi
   fun:_ZN40protobuf_google_2fprotobuf_2fany_2eproto18AddDescriptorsImplEv
   fun:__pthread_once_slow
   obj:/usr/lib/x86_64-linux-gnu/libprotobuf.so.17.0.0
}
{
   <insert_a_suppression_name_here>
   Memcheck:Leak
   match-leak-kinds: reachable
   fun:_Znwm
   fun:_ZN9__gnu_cxx13new_allocatorIcE8allocateEmPKv
   fun:_ZNSt16allocator_traitsISaIcEE8allocateERS0_m
   fun:_ZNSt7__cxx1112basic_stringIcSt11char_traitsIcESaIcEE9_M_createERmm
   obj:/usr/lib/x86_64-linux-gnu/libprotobuf.so.17.0.0
   fun:_ZN6google8protobuf18InsertIfNotPresentISt3mapINSt7__cxx1112basic_stringIcSt11char_traitsIcESaIcEEESt4pairIPKviESt4lessIS8_ESaIS9_IKS8_SC_EEEEEbPT_RKNSJ_10value_type10first_typeERKNSL_11second_typeE
   fun:_ZN6google8protobuf24SimpleDescriptorDatabase15DescriptorIndexISt4pairIPKviEE7AddFileERKNS0_19FileDescriptorProtoES6_
   fun:_ZN6google8protobuf25EncodedDescriptorDatabase3AddEPKvi
   fun:_ZN6google8protobuf14DescriptorPool24InternalAddGeneratedFileEPKvi
   fun:_ZN40protobuf_google_2fprotobuf_2fapi_2eproto18AddDescriptorsImplEv
   fun:__pthread_once_slow
   obj:/usr/lib/x86_64-linux-gnu/libprotobuf.so.17.0.0
}
{
   <insert_a_suppression_name_here>
   Memcheck:Leak
   match-leak-kinds: reachable
   fun:_Znwm
   fun:_ZN9__gnu_cxx13new_allocatorIcE8allocateEmPKv
   fun:_ZNSt16allocator_traitsISaIcEE8allocateERS0_m
   fun:_ZNSt7__cxx1112basic_stringIcSt11char_traitsIcESaIcEE9_M_createERmm
   obj:/usr/lib/x86_64-linux-gnu/libprotobuf.so.17.0.0
   obj:/usr/lib/x86_64-linux-gnu/libprotobuf.so.17.0.0
   fun:_ZN6google8protobuf24SimpleDescriptorDatabase15DescriptorIndexISt4pairIPKviEE9AddSymbolERKNSt7__cxx1112basic_stringIcSt11char_traitsIcESaIcEEES6_
   fun:_ZN6google8protobuf24SimpleDescriptorDatabase15DescriptorIndexISt4pairIPKviEE7AddFileERKNS0_19FileDescriptorProtoES6_
   fun:_ZN6google8protobuf25EncodedDescriptorDatabase3AddEPKvi
   fun:_ZN6google8protobuf14DescriptorPool24InternalAddGeneratedFileEPKvi
   fun:_ZN49protobuf_google_2fprotobuf_2ffield_5fmask_2eproto18AddDescriptorsImplEv
   fun:__pthread_once_slow
}
{
   <insert_a_suppression_name_here>
   Memcheck:Leak
   match-leak-kinds: reachable
   fun:_Znwm
   fun:_ZN9__gnu_cxx13new_allocatorIcE8allocateEmPKv
   fun:_ZNSt16allocator_traitsISaIcEE8allocateERS0_m
   fun:_ZNSt7__cxx1112basic_stringIcSt11char_traitsIcESaIcEE9_M_createERmm
   obj:/usr/lib/x86_64-linux-gnu/libprotobuf.so.17.0.0
   obj:/usr/lib/x86_64-linux-gnu/libprotobuf.so.17.0.0
   fun:_ZN6google8protobuf24SimpleDescriptorDatabase15DescriptorIndexISt4pairIPKviEE9AddSymbolERKNSt7__cxx1112basic_stringIcSt11char_traitsIcESaIcEEES6_
   fun:_ZN6google8protobuf24SimpleDescriptorDatabase15DescriptorIndexISt4pairIPKviEE7AddFileERKNS0_19FileDescriptorProtoES6_
   fun:_ZN6google8protobuf25EncodedDescriptorDatabase3AddEPKvi
   fun:_ZN6google8protobuf14DescriptorPool24InternalAddGeneratedFileEPKvi
   fun:_ZN43protobuf_google_2fprotobuf_2fstruct_2eproto18AddDescriptorsImplEv
   fun:__pthread_once_slow
}
{
   <insert_a_suppression_name_here>
   Memcheck:Leak
   match-leak-kinds: reachable
   fun:_Znwm
   fun:_ZN9__gnu_cxx13new_allocatorIcE8allocateEmPKv
   fun:_ZNSt16allocator_traitsISaIcEE8allocateERS0_m
   fun:_ZNSt7__cxx1112basic_stringIcSt11char_traitsIcESaIcEE9_M_createERmm
   obj:/usr/lib/x86_64-linux-gnu/libprotobuf.so.17.0.0
   obj:/usr/lib/x86_64-linux-gnu/libprotobuf.so.17.0.0
   fun:_ZN6google8protobuf24SimpleDescriptorDatabase15DescriptorIndexISt4pairIPKviEE9AddSymbolERKNSt7__cxx1112basic_stringIcSt11char_traitsIcESaIcEEES6_
   fun:_ZN6google8protobuf24SimpleDescriptorDatabase15DescriptorIndexISt4pairIPKviEE7AddFileERKNS0_19FileDescriptorProtoES6_
   fun:_ZN6google8protobuf25EncodedDescriptorDatabase3AddEPKvi
   fun:_ZN6google8protobuf14DescriptorPool24InternalAddGeneratedFileEPKvi
   fun:_ZN46protobuf_google_2fprotobuf_2ftimestamp_2eproto18AddDescriptorsImplEv
   fun:__pthread_once_slow
}
{
   <insert_a_suppression_name_here>
   Memcheck:Leak
   match-leak-kinds: reachable
   fun:_Znwm
   fun:_ZN9__gnu_cxx13new_allocatorIcE8allocateEmPKv
   fun:_ZNSt16allocator_traitsISaIcEE8allocateERS0_m
   fun:_ZNSt7__cxx1112basic_stringIcSt11char_traitsIcESaIcEE9_M_createERmm
   obj:/usr/lib/x86_64-linux-gnu/libprotobuf.so.17.0.0
   fun:_ZN6google8protobuf18InsertIfNotPresentISt3mapINSt7__cxx1112basic_stringIcSt11char_traitsIcESaIcEEESt4pairIPKviESt4lessIS8_ESaIS9_IKS8_SC_EEEEEbPT_RKNSJ_10value_type10first_typeERKNSL_11second_typeE
   fun:_ZN6google8protobuf24SimpleDescriptorDatabase15DescriptorIndexISt4pairIPKviEE7AddFileERKNS0_19FileDescriptorProtoES6_
   fun:_ZN6google8protobuf25EncodedDescriptorDatabase3AddEPKvi
   fun:_ZN6google8protobuf14DescriptorPool24InternalAddGeneratedFileEPKvi
   fun:_ZN41protobuf_google_2fprotobuf_2ftype_2eproto18AddDescriptorsImplEv
   fun:__pthread_once_slow
   obj:/usr/lib/x86_64-linux-gnu/libprotobuf.so.17.0.0
}
{
   <insert_a_suppression_name_here>
   Memcheck:Leak
   match-leak-kinds: reachable
   fun:_Znwm
   fun:_ZN9__gnu_cxx13new_allocatorIcE8allocateEmPKv
   fun:_ZNSt16allocator_traitsISaIcEE8allocateERS0_m
   fun:_ZNSt7__cxx1112basic_stringIcSt11char_traitsIcESaIcEE9_M_createERmm
   obj:/usr/lib/x86_64-linux-gnu/libprotobuf.so.17.0.0
   fun:_ZN6google8protobuf18InsertIfNotPresentISt3mapINSt7__cxx1112basic_stringIcSt11char_traitsIcESaIcEEESt4pairIPKviESt4lessIS8_ESaIS9_IKS8_SC_EEEEEbPT_RKNSJ_10value_type10first_typeERKNSL_11second_typeE
   fun:_ZN6google8protobuf24SimpleDescriptorDatabase15DescriptorIndexISt4pairIPKviEE7AddFileERKNS0_19FileDescriptorProtoES6_
   fun:_ZN6google8protobuf25EncodedDescriptorDatabase3AddEPKvi
   fun:_ZN6google8protobuf14DescriptorPool24InternalAddGeneratedFileEPKvi
   fun:_ZN42protobuf_google_2fprotobuf_2fempty_2eproto18AddDescriptorsImplEv
   fun:__pthread_once_slow
   obj:/usr/lib/x86_64-linux-gnu/libprotobuf.so.17.0.0
}
{
   <insert_a_suppression_name_here>
   Memcheck:Leak
   match-leak-kinds: reachable
   fun:_Znwm
   fun:_ZN9__gnu_cxx13new_allocatorIcE8allocateEmPKv
   fun:_ZNSt16allocator_traitsISaIcEE8allocateERS0_m
   fun:_ZNSt7__cxx1112basic_stringIcSt11char_traitsIcESaIcEE9_M_createERmm
   obj:/usr/lib/x86_64-linux-gnu/libprotobuf.so.17.0.0
   fun:_ZN6google8protobuf18InsertIfNotPresentISt3mapINSt7__cxx1112basic_stringIcSt11char_traitsIcESaIcEEESt4pairIPKviESt4lessIS8_ESaIS9_IKS8_SC_EEEEEbPT_RKNSJ_10value_type10first_typeERKNSL_11second_typeE
   fun:_ZN6google8protobuf24SimpleDescriptorDatabase15DescriptorIndexISt4pairIPKviEE7AddFileERKNS0_19FileDescriptorProtoES6_
   fun:_ZN6google8protobuf25EncodedDescriptorDatabase3AddEPKvi
   fun:_ZN6google8protobuf14DescriptorPool24InternalAddGeneratedFileEPKvi
   fun:_ZN43protobuf_google_2fprotobuf_2fstruct_2eproto18AddDescriptorsImplEv
   fun:__pthread_once_slow
   obj:/usr/lib/x86_64-linux-gnu/libprotobuf.so.17.0.0
}
{
   <insert_a_suppression_name_here>
   Memcheck:Leak
   match-leak-kinds: reachable
   fun:_Znwm
   fun:_ZN9__gnu_cxx13new_allocatorIcE8allocateEmPKv
   fun:_ZNSt16allocator_traitsISaIcEE8allocateERS0_m
   fun:_ZNSt7__cxx1112basic_stringIcSt11char_traitsIcESaIcEE9_M_createERmm
   obj:/usr/lib/x86_64-linux-gnu/libprotobuf.so.17.0.0
   obj:/usr/lib/x86_64-linux-gnu/libprotobuf.so.17.0.0
   fun:_ZN6google8protobuf24SimpleDescriptorDatabase15DescriptorIndexISt4pairIPKviEE9AddSymbolERKNSt7__cxx1112basic_stringIcSt11char_traitsIcESaIcEEES6_
   fun:_ZN6google8protobuf24SimpleDescriptorDatabase15DescriptorIndexISt4pairIPKviEE7AddFileERKNS0_19FileDescriptorProtoES6_
   fun:_ZN6google8protobuf25EncodedDescriptorDatabase3AddEPKvi
   fun:_ZN6google8protobuf14DescriptorPool24InternalAddGeneratedFileEPKvi
   fun:_ZN53protobuf_google_2fprotobuf_2fsource_5fcontext_2eproto18AddDescriptorsImplEv
   fun:__pthread_once_slow
}
{
   <insert_a_suppression_name_here>
   Memcheck:Leak
   match-leak-kinds: reachable
   fun:_Znwm
   fun:_ZN9__gnu_cxx13new_allocatorIcE8allocateEmPKv
   fun:_ZNSt16allocator_traitsISaIcEE8allocateERS0_m
   fun:_ZNSt7__cxx1112basic_stringIcSt11char_traitsIcESaIcEE9_M_createERmm
   obj:/usr/lib/x86_64-linux-gnu/libprotobuf.so.17.0.0
   fun:_ZN6google8protobuf18InsertIfNotPresentISt3mapINSt7__cxx1112basic_stringIcSt11char_traitsIcESaIcEEESt4pairIPKviESt4lessIS8_ESaIS9_IKS8_SC_EEEEEbPT_RKNSJ_10value_type10first_typeERKNSL_11second_typeE
   fun:_ZN6google8protobuf24SimpleDescriptorDatabase15DescriptorIndexISt4pairIPKviEE7AddFileERKNS0_19FileDescriptorProtoES6_
   fun:_ZN6google8protobuf25EncodedDescriptorDatabase3AddEPKvi
   fun:_ZN6google8protobuf14DescriptorPool24InternalAddGeneratedFileEPKvi
   fun:_ZN45protobuf_google_2fprotobuf_2fduration_2eproto18AddDescriptorsImplEv
   fun:__pthread_once_slow
   obj:/usr/lib/x86_64-linux-gnu/libprotobuf.so.17.0.0
}
{
   <insert_a_suppression_name_here>
   Memcheck:Leak
   match-leak-kinds: reachable
   fun:_Znwm
   fun:_ZN9__gnu_cxx13new_allocatorIcE8allocateEmPKv
   fun:_ZNSt16allocator_traitsISaIcEE8allocateERS0_m
   fun:_ZNSt7__cxx1112basic_stringIcSt11char_traitsIcESaIcEE9_M_createERmm
   obj:/usr/lib/x86_64-linux-gnu/libprotobuf.so.17.0.0
   fun:_ZN6google8protobuf18InsertIfNotPresentISt3mapINSt7__cxx1112basic_stringIcSt11char_traitsIcESaIcEEESt4pairIPKviESt4lessIS8_ESaIS9_IKS8_SC_EEEEEbPT_RKNSJ_10value_type10first_typeERKNSL_11second_typeE
   fun:_ZN6google8protobuf24SimpleDescriptorDatabase15DescriptorIndexISt4pairIPKviEE7AddFileERKNS0_19FileDescriptorProtoES6_
   fun:_ZN6google8protobuf25EncodedDescriptorDatabase3AddEPKvi
   fun:_ZN6google8protobuf14DescriptorPool24InternalAddGeneratedFileEPKvi
   fun:_ZN45protobuf_google_2fprotobuf_2fwrappers_2eproto18AddDescriptorsImplEv
   fun:__pthread_once_slow
   obj:/usr/lib/x86_64-linux-gnu/libprotobuf.so.17.0.0
}
{
   <insert_a_suppression_name_here>
   Memcheck:Leak
   match-leak-kinds: reachable
   fun:_Znwm
   fun:_ZN6google8protobuf14MessageFactory29InternalRegisterGeneratedFileEPKcPFvRKNSt7__cxx1112basic_stringIcSt11char_traitsIcESaIcEEEE
   fun:_ZN40protobuf_google_2fprotobuf_2fapi_2eproto18AddDescriptorsImplEv
   fun:__pthread_once_slow
   obj:/usr/lib/x86_64-linux-gnu/libprotobuf.so.17.0.0
   fun:call_init
   fun:_dl_init
   obj:/lib/x86_64-linux-gnu/ld-2.27.so
}
{
   <insert_a_suppression_name_here>
   Memcheck:Leak
   match-leak-kinds: reachable
   fun:_Znwm
   fun:_ZN6google8protobuf14MessageFactory29InternalRegisterGeneratedFileEPKcPFvRKNSt7__cxx1112basic_stringIcSt11char_traitsIcESaIcEEEE
   fun:__pthread_once_slow
   obj:/usr/lib/x86_64-linux-gnu/libprotobuf.so.17.0.0
   fun:_ZN40protobuf_google_2fprotobuf_2fapi_2eproto18AddDescriptorsImplEv
   fun:__pthread_once_slow
   obj:/usr/lib/x86_64-linux-gnu/libprotobuf.so.17.0.0
   fun:call_init
   fun:_dl_init
   obj:/lib/x86_64-linux-gnu/ld-2.27.so
}
{
   <insert_a_suppression_name_here>
   Memcheck:Leak
   match-leak-kinds: reachable
   fun:_Znwm
   fun:_ZN6google8protobuf14MessageFactory29InternalRegisterGeneratedFileEPKcPFvRKNSt7__cxx1112basic_stringIcSt11char_traitsIcESaIcEEEE
   fun:_ZN41protobuf_google_2fprotobuf_2ftype_2eproto18AddDescriptorsImplEv
   fun:__pthread_once_slow
   obj:/usr/lib/x86_64-linux-gnu/libprotobuf.so.17.0.0
   fun:__pthread_once_slow
   obj:/usr/lib/x86_64-linux-gnu/libprotobuf.so.17.0.0
   fun:call_init
   fun:_dl_init
   obj:/lib/x86_64-linux-gnu/ld-2.27.so
}
{
   <insert_a_suppression_name_here>
   Memcheck:Leak
   match-leak-kinds: reachable
   fun:_Znwm
   fun:_ZN9__gnu_cxx13new_allocatorIcE8allocateEmPKv
   fun:_ZNSt16allocator_traitsISaIcEE8allocateERS0_m
   fun:_ZNSt7__cxx1112basic_stringIcSt11char_traitsIcESaIcEE9_M_createERmm
   obj:/usr/lib/x86_64-linux-gnu/libprotobuf.so.17.0.0
   fun:_ZN6google8protobuf18InsertIfNotPresentISt3mapINSt7__cxx1112basic_stringIcSt11char_traitsIcESaIcEEESt4pairIPKviESt4lessIS8_ESaIS9_IKS8_SC_EEEEEbPT_RKNSJ_10value_type10first_typeERKNSL_11second_typeE
   fun:_ZN6google8protobuf24SimpleDescriptorDatabase15DescriptorIndexISt4pairIPKviEE7AddFileERKNS0_19FileDescriptorProtoES6_
   fun:_ZN6google8protobuf25EncodedDescriptorDatabase3AddEPKvi
   fun:_ZN6google8protobuf14DescriptorPool24InternalAddGeneratedFileEPKvi
   fun:_ZN46protobuf_google_2fprotobuf_2ftimestamp_2eproto18AddDescriptorsImplEv
   fun:__pthread_once_slow
   obj:/usr/lib/x86_64-linux-gnu/libprotobuf.so.17.0.0
}
{
   <insert_a_suppression_name_here>
   Memcheck:Leak
   match-leak-kinds: reachable
   fun:_Znwm
   fun:_ZN6google8protobuf14MessageFactory29InternalRegisterGeneratedFileEPKcPFvRKNSt7__cxx1112basic_stringIcSt11char_traitsIcESaIcEEEE
   fun:_ZN25protobuf_bluzelle_2eproto18AddDescriptorsImplEv
   fun:_ZSt13__invoke_implIvRFvvEJEET_St14__invoke_otherOT0_DpOT1_
   fun:_ZSt8__invokeIRFvvEJEENSt15__invoke_resultIT_JDpT0_EE4typeEOS3_DpOS4_
   fun:_ZZSt9call_onceIRFvvEJEEvRSt9once_flagOT_DpOT0_ENKUlvE_clEv
   fun:_ZZSt9call_onceIRFvvEJEEvRSt9once_flagOT_DpOT0_ENKUlvE0_clEv
   fun:_ZZSt9call_onceIRFvvEJEEvRSt9once_flagOT_DpOT0_ENUlvE0_4_FUNEv
   fun:__pthread_once_slow
   fun:_ZL14__gthread_oncePiPFvvE
   fun:_ZSt9call_onceIRFvvEJEEvRSt9once_flagOT_DpOT0_
   fun:_ZN6google8protobuf8internal9call_onceIJRSt9once_flagRFvvEEEEvDpOT_
}
{
   <insert_a_suppression_name_here>
   Memcheck:Leak
   match-leak-kinds: reachable
   fun:_Znwm
   fun:_ZN9__gnu_cxx13new_allocatorIcE8allocateEmPKv
   fun:_ZNSt16allocator_traitsISaIcEE8allocateERS0_m
   fun:_ZNSt7__cxx1112basic_stringIcSt11char_traitsIcESaIcEE9_M_createERmm
   obj:/usr/lib/x86_64-linux-gnu/libprotobuf.so.17.0.0
   fun:_ZN6google8protobuf18InsertIfNotPresentISt3mapINSt7__cxx1112basic_stringIcSt11char_traitsIcESaIcEEESt4pairIPKviESt4lessIS8_ESaIS9_IKS8_SC_EEEEEbPT_RKNSJ_10value_type10first_typeERKNSL_11second_typeE
   fun:_ZN6google8protobuf24SimpleDescriptorDatabase15DescriptorIndexISt4pairIPKviEE7AddFileERKNS0_19FileDescriptorProtoES6_
   fun:_ZN6google8protobuf25EncodedDescriptorDatabase3AddEPKvi
   fun:_ZN6google8protobuf14DescriptorPool24InternalAddGeneratedFileEPKvi
   fun:_ZN47protobuf_google_2fprotobuf_2fdescriptor_2eproto18AddDescriptorsImplEv
   fun:__pthread_once_slow
   obj:/usr/lib/x86_64-linux-gnu/libprotobuf.so.17.0.0
}
{
   <insert_a_suppression_name_here>
   Memcheck:Leak
   match-leak-kinds: reachable
   fun:_Znwm
   fun:_ZN9__gnu_cxx13new_allocatorIcE8allocateEmPKv
   fun:_ZNSt16allocator_traitsISaIcEE8allocateERS0_m
   fun:_ZNSt7__cxx1112basic_stringIcSt11char_traitsIcESaIcEE9_M_createERmm
   obj:/usr/lib/x86_64-linux-gnu/libprotobuf.so.17.0.0
   fun:_ZN6google8protobuf18InsertIfNotPresentISt3mapINSt7__cxx1112basic_stringIcSt11char_traitsIcESaIcEEESt4pairIPKviESt4lessIS8_ESaIS9_IKS8_SC_EEEEEbPT_RKNSJ_10value_type10first_typeERKNSL_11second_typeE
   fun:_ZN6google8protobuf24SimpleDescriptorDatabase15DescriptorIndexISt4pairIPKviEE7AddFileERKNS0_19FileDescriptorProtoES6_
   fun:_ZN6google8protobuf25EncodedDescriptorDatabase3AddEPKvi
   fun:_ZN6google8protobuf14DescriptorPool24InternalAddGeneratedFileEPKvi
   fun:_ZN49protobuf_google_2fprotobuf_2ffield_5fmask_2eproto18AddDescriptorsImplEv
   fun:__pthread_once_slow
   obj:/usr/lib/x86_64-linux-gnu/libprotobuf.so.17.0.0
}
{
   <insert_a_suppression_name_here>
   Memcheck:Leak
   match-leak-kinds: reachable
   fun:_Znwm
   fun:_ZN9__gnu_cxx13new_allocatorIcE8allocateEmPKv
   fun:_ZNSt16allocator_traitsISaIcEE8allocateERS0_m
   fun:_ZNSt7__cxx1112basic_stringIcSt11char_traitsIcESaIcEE9_M_createERmm
   obj:/usr/lib/x86_64-linux-gnu/libprotobuf.so.17.0.0
   fun:_ZN6google8protobuf18InsertIfNotPresentISt3mapINSt7__cxx1112basic_stringIcSt11char_traitsIcESaIcEEESt4pairIPKviESt4lessIS8_ESaIS9_IKS8_SC_EEEEEbPT_RKNSJ_10value_type10first_typeERKNSL_11second_typeE
   fun:_ZN6google8protobuf24SimpleDescriptorDatabase15DescriptorIndexISt4pairIPKviEE7AddFileERKNS0_19FileDescriptorProtoES6_
   fun:_ZN6google8protobuf25EncodedDescriptorDatabase3AddEPKvi
   fun:_ZN6google8protobuf14DescriptorPool24InternalAddGeneratedFileEPKvi
   fun:_ZN53protobuf_google_2fprotobuf_2fsource_5fcontext_2eproto18AddDescriptorsImplEv
   fun:__pthread_once_slow
   obj:/usr/lib/x86_64-linux-gnu/libprotobuf.so.17.0.0
}
{
   <insert_a_suppression_name_here>
   Memcheck:Leak
   match-leak-kinds: reachable
   fun:_Znwm
   fun:_ZN6google8protobuf6StructC1Ev
   obj:/usr/lib/x86_64-linux-gnu/libprotobuf.so.17.0.0
   obj:/usr/lib/x86_64-linux-gnu/libprotobuf.so.17.0.0
   fun:_ZN6google8protobuf8internal11InitSCCImplEPNS1_11SCCInfoBaseE
   fun:_ZN43protobuf_google_2fprotobuf_2fstruct_2eproto18AddDescriptorsImplEv
   fun:__pthread_once_slow
   obj:/usr/lib/x86_64-linux-gnu/libprotobuf.so.17.0.0
   fun:call_init
   fun:_dl_init
   obj:/lib/x86_64-linux-gnu/ld-2.27.so
}
{
   <insert_a_suppression_name_here>
   Memcheck:Leak
   match-leak-kinds: reachable
   fun:_Znwm
   fun:_ZN6google8protobuf8internal13OnShutdownRunEPFvPKvES3_
   fun:_ZN6google8protobuf8internal20InitProtobufDefaultsEv
   fun:_ZN6google8protobuf8internal11InitSCCImplEPNS1_11SCCInfoBaseE
   fun:_ZN40protobuf_google_2fprotobuf_2fany_2eproto18AddDescriptorsImplEv
   fun:__pthread_once_slow
   obj:/usr/lib/x86_64-linux-gnu/libprotobuf.so.17.0.0
   fun:call_init
   fun:_dl_init
   obj:/lib/x86_64-linux-gnu/ld-2.27.so
}
{
   <insert_a_suppression_name_here>
   Memcheck:Leak
   match-leak-kinds: reachable
   fun:_Znwm
   fun:_ZN9__gnu_cxx13new_allocatorIcE8allocateEmPKv
   fun:_ZNSt16allocator_traitsISaIcEE8allocateERS0_m
   fun:_ZNSt7__cxx1112basic_stringIcSt11char_traitsIcESaIcEE9_M_createERmm
   obj:/usr/lib/x86_64-linux-gnu/libprotobuf.so.17.0.0
   obj:/usr/lib/x86_64-linux-gnu/libprotobuf.so.17.0.0
   fun:_ZN6google8protobuf24SimpleDescriptorDatabase15DescriptorIndexISt4pairIPKviEE9AddSymbolERKNSt7__cxx1112basic_stringIcSt11char_traitsIcESaIcEEES6_
   fun:_ZN6google8protobuf24SimpleDescriptorDatabase15DescriptorIndexISt4pairIPKviEE7AddFileERKNS0_19FileDescriptorProtoES6_
   fun:_ZN6google8protobuf25EncodedDescriptorDatabase3AddEPKvi
   fun:_ZN6google8protobuf14DescriptorPool24InternalAddGeneratedFileEPKvi
   fun:_ZN40protobuf_google_2fprotobuf_2fapi_2eproto18AddDescriptorsImplEv
   fun:__pthread_once_slow
}
{
   <insert_a_suppression_name_here>
   Memcheck:Leak
   match-leak-kinds: reachable
   fun:_Znwm
   fun:_ZN6google8protobuf18InsertIfNotPresentISt3mapINSt7__cxx1112basic_stringIcSt11char_traitsIcESaIcEEESt4pairIPKviESt4lessIS8_ESaIS9_IKS8_SC_EEEEEbPT_RKNSJ_10value_type10first_typeERKNSL_11second_typeE
   fun:_ZN6google8protobuf24SimpleDescriptorDatabase15DescriptorIndexISt4pairIPKviEE7AddFileERKNS0_19FileDescriptorProtoES6_
   fun:_ZN6google8protobuf25EncodedDescriptorDatabase3AddEPKvi
   fun:_ZN6google8protobuf14DescriptorPool24InternalAddGeneratedFileEPKvi
   fun:_ZN40protobuf_google_2fprotobuf_2fany_2eproto18AddDescriptorsImplEv
   fun:__pthread_once_slow
   obj:/usr/lib/x86_64-linux-gnu/libprotobuf.so.17.0.0
   fun:call_init
   fun:_dl_init
   obj:/lib/x86_64-linux-gnu/ld-2.27.so
}
{
   <insert_a_suppression_name_here>
   Memcheck:Leak
   match-leak-kinds: reachable
   fun:_Znwm
   obj:/usr/lib/x86_64-linux-gnu/libprotobuf.so.17.0.0
   fun:_ZN6google8protobuf24SimpleDescriptorDatabase15DescriptorIndexISt4pairIPKviEE9AddSymbolERKNSt7__cxx1112basic_stringIcSt11char_traitsIcESaIcEEES6_
   fun:_ZN6google8protobuf24SimpleDescriptorDatabase15DescriptorIndexISt4pairIPKviEE7AddFileERKNS0_19FileDescriptorProtoES6_
   fun:_ZN6google8protobuf25EncodedDescriptorDatabase3AddEPKvi
   fun:_ZN6google8protobuf14DescriptorPool24InternalAddGeneratedFileEPKvi
   fun:_ZN40protobuf_google_2fprotobuf_2fany_2eproto18AddDescriptorsImplEv
   fun:__pthread_once_slow
   obj:/usr/lib/x86_64-linux-gnu/libprotobuf.so.17.0.0
   fun:call_init
   fun:_dl_init
   obj:/lib/x86_64-linux-gnu/ld-2.27.so
}
{
   <insert_a_suppression_name_here>
   Memcheck:Leak
   match-leak-kinds: reachable
   fun:_Znwm
   fun:_ZN6google8protobuf18InsertIfNotPresentISt3mapINSt7__cxx1112basic_stringIcSt11char_traitsIcESaIcEEESt4pairIPKviESt4lessIS8_ESaIS9_IKS8_SC_EEEEEbPT_RKNSJ_10value_type10first_typeERKNSL_11second_typeE
   fun:_ZN6google8protobuf24SimpleDescriptorDatabase15DescriptorIndexISt4pairIPKviEE7AddFileERKNS0_19FileDescriptorProtoES6_
   fun:_ZN6google8protobuf25EncodedDescriptorDatabase3AddEPKvi
   fun:_ZN6google8protobuf14DescriptorPool24InternalAddGeneratedFileEPKvi
   fun:_ZN40protobuf_google_2fprotobuf_2fapi_2eproto18AddDescriptorsImplEv
   fun:__pthread_once_slow
   obj:/usr/lib/x86_64-linux-gnu/libprotobuf.so.17.0.0
   fun:call_init
   fun:_dl_init
   obj:/lib/x86_64-linux-gnu/ld-2.27.so
}
{
   <insert_a_suppression_name_here>
   Memcheck:Leak
   match-leak-kinds: reachable
   fun:_Znwm
   fun:_ZN6google8protobuf18InsertIfNotPresentISt3mapINSt7__cxx1112basic_stringIcSt11char_traitsIcESaIcEEESt4pairIPKviESt4lessIS8_ESaIS9_IKS8_SC_EEEEEbPT_RKNSJ_10value_type10first_typeERKNSL_11second_typeE
   fun:_ZN6google8protobuf24SimpleDescriptorDatabase15DescriptorIndexISt4pairIPKviEE7AddFileERKNS0_19FileDescriptorProtoES6_
   fun:_ZN6google8protobuf25EncodedDescriptorDatabase3AddEPKvi
   fun:_ZN6google8protobuf14DescriptorPool24InternalAddGeneratedFileEPKvi
   fun:_ZN53protobuf_google_2fprotobuf_2fsource_5fcontext_2eproto18AddDescriptorsImplEv
   fun:__pthread_once_slow
   obj:/usr/lib/x86_64-linux-gnu/libprotobuf.so.17.0.0
   fun:_ZN40protobuf_google_2fprotobuf_2fapi_2eproto18AddDescriptorsImplEv
   fun:__pthread_once_slow
   obj:/usr/lib/x86_64-linux-gnu/libprotobuf.so.17.0.0
   fun:call_init
   fun:_dl_init
}
{
   <insert_a_suppression_name_here>
   Memcheck:Leak
   match-leak-kinds: reachable
   fun:_Znwm
   obj:/usr/lib/x86_64-linux-gnu/libprotobuf.so.17.0.0
   fun:_ZN6google8protobuf24SimpleDescriptorDatabase15DescriptorIndexISt4pairIPKviEE9AddSymbolERKNSt7__cxx1112basic_stringIcSt11char_traitsIcESaIcEEES6_
   fun:_ZN6google8protobuf24SimpleDescriptorDatabase15DescriptorIndexISt4pairIPKviEE7AddFileERKNS0_19FileDescriptorProtoES6_
   fun:_ZN6google8protobuf25EncodedDescriptorDatabase3AddEPKvi
   fun:_ZN6google8protobuf14DescriptorPool24InternalAddGeneratedFileEPKvi
   fun:_ZN53protobuf_google_2fprotobuf_2fsource_5fcontext_2eproto18AddDescriptorsImplEv
   fun:__pthread_once_slow
   obj:/usr/lib/x86_64-linux-gnu/libprotobuf.so.17.0.0
   fun:_ZN40protobuf_google_2fprotobuf_2fapi_2eproto18AddDescriptorsImplEv
   fun:__pthread_once_slow
   obj:/usr/lib/x86_64-linux-gnu/libprotobuf.so.17.0.0
}
{
   <insert_a_suppression_name_here>
   Memcheck:Leak
   match-leak-kinds: reachable
   fun:_Znwm
   fun:_ZN6google8protobuf18InsertIfNotPresentISt3mapINSt7__cxx1112basic_stringIcSt11char_traitsIcESaIcEEESt4pairIPKviESt4lessIS8_ESaIS9_IKS8_SC_EEEEEbPT_RKNSJ_10value_type10first_typeERKNSL_11second_typeE
   fun:_ZN6google8protobuf24SimpleDescriptorDatabase15DescriptorIndexISt4pairIPKviEE7AddFileERKNS0_19FileDescriptorProtoES6_
   fun:_ZN6google8protobuf25EncodedDescriptorDatabase3AddEPKvi
   fun:_ZN6google8protobuf14DescriptorPool24InternalAddGeneratedFileEPKvi
   fun:_ZN41protobuf_google_2fprotobuf_2ftype_2eproto18AddDescriptorsImplEv
   fun:__pthread_once_slow
   obj:/usr/lib/x86_64-linux-gnu/libprotobuf.so.17.0.0
   fun:__pthread_once_slow
   obj:/usr/lib/x86_64-linux-gnu/libprotobuf.so.17.0.0
   fun:call_init
   fun:_dl_init
   obj:/lib/x86_64-linux-gnu/ld-2.27.so
}
{
   <insert_a_suppression_name_here>
   Memcheck:Leak
   match-leak-kinds: reachable
   fun:_Znwm
   obj:/usr/lib/x86_64-linux-gnu/libprotobuf.so.17.0.0
   fun:_ZN6google8protobuf24SimpleDescriptorDatabase15DescriptorIndexISt4pairIPKviEE9AddSymbolERKNSt7__cxx1112basic_stringIcSt11char_traitsIcESaIcEEES6_
   fun:_ZN6google8protobuf24SimpleDescriptorDatabase15DescriptorIndexISt4pairIPKviEE7AddFileERKNS0_19FileDescriptorProtoES6_
   fun:_ZN6google8protobuf25EncodedDescriptorDatabase3AddEPKvi
   fun:_ZN6google8protobuf14DescriptorPool24InternalAddGeneratedFileEPKvi
   fun:_ZN41protobuf_google_2fprotobuf_2ftype_2eproto18AddDescriptorsImplEv
   fun:__pthread_once_slow
   obj:/usr/lib/x86_64-linux-gnu/libprotobuf.so.17.0.0
   fun:__pthread_once_slow
   obj:/usr/lib/x86_64-linux-gnu/libprotobuf.so.17.0.0
   fun:call_init
   fun:_dl_init
}
{
   <insert_a_suppression_name_here>
   Memcheck:Leak
   match-leak-kinds: reachable
   fun:_Znwm
   fun:_ZN6google8protobuf18InsertIfNotPresentISt3mapINSt7__cxx1112basic_stringIcSt11char_traitsIcESaIcEEESt4pairIPKviESt4lessIS8_ESaIS9_IKS8_SC_EEEEEbPT_RKNSJ_10value_type10first_typeERKNSL_11second_typeE
   fun:_ZN6google8protobuf24SimpleDescriptorDatabase15DescriptorIndexISt4pairIPKviEE7AddFileERKNS0_19FileDescriptorProtoES6_
   fun:_ZN6google8protobuf25EncodedDescriptorDatabase3AddEPKvi
   fun:_ZN6google8protobuf14DescriptorPool24InternalAddGeneratedFileEPKvi
   fun:_ZN47protobuf_google_2fprotobuf_2fdescriptor_2eproto18AddDescriptorsImplEv
   fun:__pthread_once_slow
   obj:/usr/lib/x86_64-linux-gnu/libprotobuf.so.17.0.0
   fun:call_init
   fun:_dl_init
   obj:/lib/x86_64-linux-gnu/ld-2.27.so
}
{
   <insert_a_suppression_name_here>
   Memcheck:Leak
   match-leak-kinds: reachable
   fun:_Znwm
   fun:_ZN6google8protobuf18InsertIfNotPresentISt3mapINSt7__cxx1112basic_stringIcSt11char_traitsIcESaIcEEESt4pairIPKviESt4lessIS8_ESaIS9_IKS8_SC_EEEEEbPT_RKNSJ_10value_type10first_typeERKNSL_11second_typeE
   fun:_ZN6google8protobuf24SimpleDescriptorDatabase15DescriptorIndexISt4pairIPKviEE7AddFileERKNS0_19FileDescriptorProtoES6_
   fun:_ZN6google8protobuf25EncodedDescriptorDatabase3AddEPKvi
   fun:_ZN6google8protobuf14DescriptorPool24InternalAddGeneratedFileEPKvi
   fun:_ZN45protobuf_google_2fprotobuf_2fduration_2eproto18AddDescriptorsImplEv
   fun:__pthread_once_slow
   obj:/usr/lib/x86_64-linux-gnu/libprotobuf.so.17.0.0
   fun:call_init
   fun:_dl_init
   obj:/lib/x86_64-linux-gnu/ld-2.27.so
}
{
   <insert_a_suppression_name_here>
   Memcheck:Leak
   match-leak-kinds: reachable
   fun:_Znwm
   obj:/usr/lib/x86_64-linux-gnu/libprotobuf.so.17.0.0
   fun:_ZN6google8protobuf24SimpleDescriptorDatabase15DescriptorIndexISt4pairIPKviEE9AddSymbolERKNSt7__cxx1112basic_stringIcSt11char_traitsIcESaIcEEES6_
   fun:_ZN6google8protobuf24SimpleDescriptorDatabase15DescriptorIndexISt4pairIPKviEE7AddFileERKNS0_19FileDescriptorProtoES6_
   fun:_ZN6google8protobuf25EncodedDescriptorDatabase3AddEPKvi
   fun:_ZN6google8protobuf14DescriptorPool24InternalAddGeneratedFileEPKvi
   fun:_ZN45protobuf_google_2fprotobuf_2fduration_2eproto18AddDescriptorsImplEv
   fun:__pthread_once_slow
   obj:/usr/lib/x86_64-linux-gnu/libprotobuf.so.17.0.0
   fun:call_init
   fun:_dl_init
   obj:/lib/x86_64-linux-gnu/ld-2.27.so
}
{
   <insert_a_suppression_name_here>
   Memcheck:Leak
   match-leak-kinds: reachable
   fun:_Znwm
   fun:_ZN6google8protobuf18InsertIfNotPresentISt3mapINSt7__cxx1112basic_stringIcSt11char_traitsIcESaIcEEESt4pairIPKviESt4lessIS8_ESaIS9_IKS8_SC_EEEEEbPT_RKNSJ_10value_type10first_typeERKNSL_11second_typeE
   fun:_ZN6google8protobuf24SimpleDescriptorDatabase15DescriptorIndexISt4pairIPKviEE7AddFileERKNS0_19FileDescriptorProtoES6_
   fun:_ZN6google8protobuf25EncodedDescriptorDatabase3AddEPKvi
   fun:_ZN6google8protobuf14DescriptorPool24InternalAddGeneratedFileEPKvi
   fun:_ZN42protobuf_google_2fprotobuf_2fempty_2eproto18AddDescriptorsImplEv
   fun:__pthread_once_slow
   obj:/usr/lib/x86_64-linux-gnu/libprotobuf.so.17.0.0
   fun:call_init
   fun:_dl_init
   obj:/lib/x86_64-linux-gnu/ld-2.27.so
}
{
   <insert_a_suppression_name_here>
   Memcheck:Leak
   match-leak-kinds: reachable
   fun:_Znwm
   obj:/usr/lib/x86_64-linux-gnu/libprotobuf.so.17.0.0
   fun:_ZN6google8protobuf24SimpleDescriptorDatabase15DescriptorIndexISt4pairIPKviEE9AddSymbolERKNSt7__cxx1112basic_stringIcSt11char_traitsIcESaIcEEES6_
   fun:_ZN6google8protobuf24SimpleDescriptorDatabase15DescriptorIndexISt4pairIPKviEE7AddFileERKNS0_19FileDescriptorProtoES6_
   fun:_ZN6google8protobuf25EncodedDescriptorDatabase3AddEPKvi
   fun:_ZN6google8protobuf14DescriptorPool24InternalAddGeneratedFileEPKvi
   fun:_ZN42protobuf_google_2fprotobuf_2fempty_2eproto18AddDescriptorsImplEv
   fun:__pthread_once_slow
   obj:/usr/lib/x86_64-linux-gnu/libprotobuf.so.17.0.0
   fun:call_init
   fun:_dl_init
   obj:/lib/x86_64-linux-gnu/ld-2.27.so
}
{
   <insert_a_suppression_name_here>
   Memcheck:Leak
   match-leak-kinds: reachable
   fun:_Znwm
   fun:_ZN6google8protobuf18InsertIfNotPresentISt3mapINSt7__cxx1112basic_stringIcSt11char_traitsIcESaIcEEESt4pairIPKviESt4lessIS8_ESaIS9_IKS8_SC_EEEEEbPT_RKNSJ_10value_type10first_typeERKNSL_11second_typeE
   fun:_ZN6google8protobuf24SimpleDescriptorDatabase15DescriptorIndexISt4pairIPKviEE7AddFileERKNS0_19FileDescriptorProtoES6_
   fun:_ZN6google8protobuf25EncodedDescriptorDatabase3AddEPKvi
   fun:_ZN6google8protobuf14DescriptorPool24InternalAddGeneratedFileEPKvi
   fun:_ZN49protobuf_google_2fprotobuf_2ffield_5fmask_2eproto18AddDescriptorsImplEv
   fun:__pthread_once_slow
   obj:/usr/lib/x86_64-linux-gnu/libprotobuf.so.17.0.0
   fun:call_init
   fun:_dl_init
   obj:/lib/x86_64-linux-gnu/ld-2.27.so
}
{
   <insert_a_suppression_name_here>
   Memcheck:Leak
   match-leak-kinds: reachable
   fun:_Znwm
   obj:/usr/lib/x86_64-linux-gnu/libprotobuf.so.17.0.0
   fun:_ZN6google8protobuf24SimpleDescriptorDatabase15DescriptorIndexISt4pairIPKviEE9AddSymbolERKNSt7__cxx1112basic_stringIcSt11char_traitsIcESaIcEEES6_
   fun:_ZN6google8protobuf24SimpleDescriptorDatabase15DescriptorIndexISt4pairIPKviEE7AddFileERKNS0_19FileDescriptorProtoES6_
   fun:_ZN6google8protobuf25EncodedDescriptorDatabase3AddEPKvi
   fun:_ZN6google8protobuf14DescriptorPool24InternalAddGeneratedFileEPKvi
   fun:_ZN49protobuf_google_2fprotobuf_2ffield_5fmask_2eproto18AddDescriptorsImplEv
   fun:__pthread_once_slow
   obj:/usr/lib/x86_64-linux-gnu/libprotobuf.so.17.0.0
   fun:call_init
   fun:_dl_init
   obj:/lib/x86_64-linux-gnu/ld-2.27.so
}
{
   <insert_a_suppression_name_here>
   Memcheck:Leak
   match-leak-kinds: reachable
   fun:_Znwm
   fun:_ZN6google8protobuf18InsertIfNotPresentISt3mapINSt7__cxx1112basic_stringIcSt11char_traitsIcESaIcEEESt4pairIPKviESt4lessIS8_ESaIS9_IKS8_SC_EEEEEbPT_RKNSJ_10value_type10first_typeERKNSL_11second_typeE
   fun:_ZN6google8protobuf24SimpleDescriptorDatabase15DescriptorIndexISt4pairIPKviEE7AddFileERKNS0_19FileDescriptorProtoES6_
   fun:_ZN6google8protobuf25EncodedDescriptorDatabase3AddEPKvi
   fun:_ZN6google8protobuf14DescriptorPool24InternalAddGeneratedFileEPKvi
   fun:_ZN43protobuf_google_2fprotobuf_2fstruct_2eproto18AddDescriptorsImplEv
   fun:__pthread_once_slow
   obj:/usr/lib/x86_64-linux-gnu/libprotobuf.so.17.0.0
   fun:call_init
   fun:_dl_init
   obj:/lib/x86_64-linux-gnu/ld-2.27.so
}
{
   <insert_a_suppression_name_here>
   Memcheck:Leak
   match-leak-kinds: reachable
   fun:_Znwm
   obj:/usr/lib/x86_64-linux-gnu/libprotobuf.so.17.0.0
   fun:_ZN6google8protobuf24SimpleDescriptorDatabase15DescriptorIndexISt4pairIPKviEE9AddSymbolERKNSt7__cxx1112basic_stringIcSt11char_traitsIcESaIcEEES6_
   fun:_ZN6google8protobuf24SimpleDescriptorDatabase15DescriptorIndexISt4pairIPKviEE7AddFileERKNS0_19FileDescriptorProtoES6_
   fun:_ZN6google8protobuf25EncodedDescriptorDatabase3AddEPKvi
   fun:_ZN6google8protobuf14DescriptorPool24InternalAddGeneratedFileEPKvi
   fun:_ZN43protobuf_google_2fprotobuf_2fstruct_2eproto18AddDescriptorsImplEv
   fun:__pthread_once_slow
   obj:/usr/lib/x86_64-linux-gnu/libprotobuf.so.17.0.0
   fun:call_init
   fun:_dl_init
   obj:/lib/x86_64-linux-gnu/ld-2.27.so
}
{
   <insert_a_suppression_name_here>
   Memcheck:Leak
   match-leak-kinds: reachable
   fun:_Znwm
   fun:_ZN6google8protobuf18InsertIfNotPresentISt3mapINSt7__cxx1112basic_stringIcSt11char_traitsIcESaIcEEESt4pairIPKviESt4lessIS8_ESaIS9_IKS8_SC_EEEEEbPT_RKNSJ_10value_type10first_typeERKNSL_11second_typeE
   fun:_ZN6google8protobuf24SimpleDescriptorDatabase15DescriptorIndexISt4pairIPKviEE7AddFileERKNS0_19FileDescriptorProtoES6_
   fun:_ZN6google8protobuf25EncodedDescriptorDatabase3AddEPKvi
   fun:_ZN6google8protobuf14DescriptorPool24InternalAddGeneratedFileEPKvi
   fun:_ZN46protobuf_google_2fprotobuf_2ftimestamp_2eproto18AddDescriptorsImplEv
   fun:__pthread_once_slow
   obj:/usr/lib/x86_64-linux-gnu/libprotobuf.so.17.0.0
   fun:call_init
   fun:_dl_init
   obj:/lib/x86_64-linux-gnu/ld-2.27.so
}
{
   <insert_a_suppression_name_here>
   Memcheck:Leak
   match-leak-kinds: reachable
   fun:_Znwm
   obj:/usr/lib/x86_64-linux-gnu/libprotobuf.so.17.0.0
   fun:_ZN6google8protobuf24SimpleDescriptorDatabase15DescriptorIndexISt4pairIPKviEE9AddSymbolERKNSt7__cxx1112basic_stringIcSt11char_traitsIcESaIcEEES6_
   fun:_ZN6google8protobuf24SimpleDescriptorDatabase15DescriptorIndexISt4pairIPKviEE7AddFileERKNS0_19FileDescriptorProtoES6_
   fun:_ZN6google8protobuf25EncodedDescriptorDatabase3AddEPKvi
   fun:_ZN6google8protobuf14DescriptorPool24InternalAddGeneratedFileEPKvi
   fun:_ZN46protobuf_google_2fprotobuf_2ftimestamp_2eproto18AddDescriptorsImplEv
   fun:__pthread_once_slow
   obj:/usr/lib/x86_64-linux-gnu/libprotobuf.so.17.0.0
   fun:call_init
   fun:_dl_init
   obj:/lib/x86_64-linux-gnu/ld-2.27.so
}
{
   <insert_a_suppression_name_here>
   Memcheck:Leak
   match-leak-kinds: reachable
   fun:_Znwm
   fun:_ZN6google8protobuf18InsertIfNotPresentISt3mapINSt7__cxx1112basic_stringIcSt11char_traitsIcESaIcEEESt4pairIPKviESt4lessIS8_ESaIS9_IKS8_SC_EEEEEbPT_RKNSJ_10value_type10first_typeERKNSL_11second_typeE
   fun:_ZN6google8protobuf24SimpleDescriptorDatabase15DescriptorIndexISt4pairIPKviEE7AddFileERKNS0_19FileDescriptorProtoES6_
   fun:_ZN6google8protobuf25EncodedDescriptorDatabase3AddEPKvi
   fun:_ZN6google8protobuf14DescriptorPool24InternalAddGeneratedFileEPKvi
   fun:_ZN45protobuf_google_2fprotobuf_2fwrappers_2eproto18AddDescriptorsImplEv
   fun:__pthread_once_slow
   obj:/usr/lib/x86_64-linux-gnu/libprotobuf.so.17.0.0
   fun:call_init
   fun:_dl_init
   obj:/lib/x86_64-linux-gnu/ld-2.27.so
}
{
   <insert_a_suppression_name_here>
   Memcheck:Leak
   match-leak-kinds: reachable
   fun:_Znwm
   fun:_ZN6google8protobuf18InsertIfNotPresentISt3mapINSt7__cxx1112basic_stringIcSt11char_traitsIcESaIcEEESt4pairIPKviESt4lessIS8_ESaIS9_IKS8_SC_EEEEEbPT_RKNSJ_10value_type10first_typeERKNSL_11second_typeE
   fun:_ZN6google8protobuf24SimpleDescriptorDatabase15DescriptorIndexISt4pairIPKviEE7AddFileERKNS0_19FileDescriptorProtoES6_
   fun:_ZN6google8protobuf25EncodedDescriptorDatabase3AddEPKvi
   fun:_ZN6google8protobuf14DescriptorPool24InternalAddGeneratedFileEPKvi
   fun:_ZN25protobuf_bluzelle_2eproto18AddDescriptorsImplEv
   fun:_ZSt13__invoke_implIvRFvvEJEET_St14__invoke_otherOT0_DpOT1_
   fun:_ZSt8__invokeIRFvvEJEENSt15__invoke_resultIT_JDpT0_EE4typeEOS3_DpOS4_
   fun:_ZZSt9call_onceIRFvvEJEEvRSt9once_flagOT_DpOT0_ENKUlvE_clEv
   fun:_ZZSt9call_onceIRFvvEJEEvRSt9once_flagOT_DpOT0_ENKUlvE0_clEv
   fun:_ZZSt9call_onceIRFvvEJEEvRSt9once_flagOT_DpOT0_ENUlvE0_4_FUNEv
   fun:__pthread_once_slow
}
{
   <insert_a_suppression_name_here>
   Memcheck:Leak
   match-leak-kinds: reachable
   fun:_Znwm
   obj:/usr/lib/x86_64-linux-gnu/libprotobuf.so.17.0.0
   fun:_ZN6google8protobuf24SimpleDescriptorDatabase15DescriptorIndexISt4pairIPKviEE9AddSymbolERKNSt7__cxx1112basic_stringIcSt11char_traitsIcESaIcEEES6_
   fun:_ZN6google8protobuf24SimpleDescriptorDatabase15DescriptorIndexISt4pairIPKviEE7AddFileERKNS0_19FileDescriptorProtoES6_
   fun:_ZN6google8protobuf25EncodedDescriptorDatabase3AddEPKvi
   fun:_ZN6google8protobuf14DescriptorPool24InternalAddGeneratedFileEPKvi
   fun:_ZN25protobuf_bluzelle_2eproto18AddDescriptorsImplEv
   fun:_ZSt13__invoke_implIvRFvvEJEET_St14__invoke_otherOT0_DpOT1_
   fun:_ZSt8__invokeIRFvvEJEENSt15__invoke_resultIT_JDpT0_EE4typeEOS3_DpOS4_
   fun:_ZZSt9call_onceIRFvvEJEEvRSt9once_flagOT_DpOT0_ENKUlvE_clEv
   fun:_ZZSt9call_onceIRFvvEJEEvRSt9once_flagOT_DpOT0_ENKUlvE0_clEv
   fun:_ZZSt9call_onceIRFvvEJEEvRSt9once_flagOT_DpOT0_ENUlvE0_4_FUNEv
}
{
   <insert_a_suppression_name_here>
   Memcheck:Leak
   match-leak-kinds: reachable
   fun:_Znwm
   obj:/usr/lib/x86_64-linux-gnu/libprotobuf.so.17.0.0
   fun:_ZN6google8protobuf14MessageFactory29InternalRegisterGeneratedFileEPKcPFvRKNSt7__cxx1112basic_stringIcSt11char_traitsIcESaIcEEEE
   fun:__pthread_once_slow
   obj:/usr/lib/x86_64-linux-gnu/libprotobuf.so.17.0.0
   fun:call_init
   fun:_dl_init
   obj:/lib/x86_64-linux-gnu/ld-2.27.so
}
{
   <insert_a_suppression_name_here>
   Memcheck:Leak
   match-leak-kinds: reachable
   fun:_Znwm
   obj:/usr/lib/x86_64-linux-gnu/libprotobuf.so.17.0.0
   fun:_ZN6google8protobuf14DescriptorPool24InternalAddGeneratedFileEPKvi
   fun:_ZN40protobuf_google_2fprotobuf_2fany_2eproto18AddDescriptorsImplEv
   fun:__pthread_once_slow
   obj:/usr/lib/x86_64-linux-gnu/libprotobuf.so.17.0.0
   fun:call_init
   fun:_dl_init
   obj:/lib/x86_64-linux-gnu/ld-2.27.so
}
{
   <insert_a_suppression_name_here>
   Memcheck:Leak
   match-leak-kinds: reachable
   fun:_Znwm
   obj:/usr/lib/x86_64-linux-gnu/libprotobuf.so.17.0.0
   fun:_ZNSt10_HashtableIPKcSt4pairIKS1_PFvRKNSt7__cxx1112basic_stringIcSt11char_traitsIcESaIcEEEEESaISE_ENSt8__detail10_Select1stEN6google8protobuf5streqENSJ_4hashIS1_EENSG_18_Mod_range_hashingENSG_20_Default_ranged_hashENSG_20_Prime_rehash_policyENSG_17_Hashtable_traitsILb1ELb0ELb1EEEE9_M_rehashEmRKm
   fun:_ZN6google8protobuf14MessageFactory29InternalRegisterGeneratedFileEPKcPFvRKNSt7__cxx1112basic_stringIcSt11char_traitsIcESaIcEEEE
   fun:__pthread_once_slow
   obj:/usr/lib/x86_64-linux-gnu/libprotobuf.so.17.0.0
   fun:call_init
   fun:_dl_init
   obj:/lib/x86_64-linux-gnu/ld-2.27.so
}
{
   <insert_a_suppression_name_here>
   Memcheck:Leak
   match-leak-kinds: reachable
   fun:_Znwm
   obj:/usr/lib/x86_64-linux-gnu/libprotobuf.so.17.0.0
   fun:_ZN6google8protobuf24SimpleDescriptorDatabase15DescriptorIndexISt4pairIPKviEE9AddSymbolERKNSt7__cxx1112basic_stringIcSt11char_traitsIcESaIcEEES6_
   fun:_ZN6google8protobuf24SimpleDescriptorDatabase15DescriptorIndexISt4pairIPKviEE7AddFileERKNS0_19FileDescriptorProtoES6_
   fun:_ZN6google8protobuf25EncodedDescriptorDatabase3AddEPKvi
   fun:_ZN6google8protobuf14DescriptorPool24InternalAddGeneratedFileEPKvi
   fun:_ZN40protobuf_google_2fprotobuf_2fapi_2eproto18AddDescriptorsImplEv
   fun:__pthread_once_slow
   obj:/usr/lib/x86_64-linux-gnu/libprotobuf.so.17.0.0
   fun:call_init
   fun:_dl_init
   obj:/lib/x86_64-linux-gnu/ld-2.27.so
}
{
   <insert_a_suppression_name_here>
   Memcheck:Leak
   match-leak-kinds: reachable
   fun:_Znwm
   fun:_ZN9__gnu_cxx13new_allocatorIcE8allocateEmPKv
   fun:_ZNSt16allocator_traitsISaIcEE8allocateERS0_m
   fun:_ZNSt7__cxx1112basic_stringIcSt11char_traitsIcESaIcEE9_M_createERmm
   obj:/usr/lib/x86_64-linux-gnu/libprotobuf.so.17.0.0
   obj:/usr/lib/x86_64-linux-gnu/libprotobuf.so.17.0.0
   fun:_ZN6google8protobuf24SimpleDescriptorDatabase15DescriptorIndexISt4pairIPKviEE9AddSymbolERKNSt7__cxx1112basic_stringIcSt11char_traitsIcESaIcEEES6_
   fun:_ZN6google8protobuf24SimpleDescriptorDatabase15DescriptorIndexISt4pairIPKviEE7AddFileERKNS0_19FileDescriptorProtoES6_
   fun:_ZN6google8protobuf25EncodedDescriptorDatabase3AddEPKvi
   fun:_ZN6google8protobuf14DescriptorPool24InternalAddGeneratedFileEPKvi
   fun:_ZN45protobuf_google_2fprotobuf_2fwrappers_2eproto18AddDescriptorsImplEv
   fun:__pthread_once_slow
}
{
   <insert_a_suppression_name_here>
   Memcheck:Leak
   match-leak-kinds: reachable
   fun:_Znwm
   fun:_ZN6google8protobuf14MessageFactory29InternalRegisterGeneratedFileEPKcPFvRKNSt7__cxx1112basic_stringIcSt11char_traitsIcESaIcEEEE
   fun:__pthread_once_slow
   obj:/usr/lib/x86_64-linux-gnu/libprotobuf.so.17.0.0
   fun:call_init
   fun:_dl_init
   obj:/lib/x86_64-linux-gnu/ld-2.27.so
}
{
   <insert_a_suppression_name_here>
   Memcheck:Leak
   match-leak-kinds: reachable
   fun:_Znwm
   fun:_ZN5boost6detail8heap_newINS0_26externally_launched_threadEEEPT_v
   fun:_ZN5boost6detail25make_external_thread_dataEv
   fun:_ZN5boost6detail31get_or_make_current_thread_dataEv
   fun:_ZN5boost6detail24add_thread_exit_functionEPNS0_25thread_exit_function_baseE
   fun:_ZN5boost11this_thread14at_thread_exitINS_3_bi6bind_tINS2_11unspecifiedENS_15checked_deleterImEENS2_5list1INS2_5valueIPmEEEEEEEEvT_
   fun:_ZN5boost3log12v2s_mt_posix7sources3aux18get_severity_levelEv
   fun:_ZN5boost3log12v2s_mt_posix7sources3aux14severity_levelINS1_7trivial14severity_levelEE9set_valueES6_
   fun:_ZN5boost3log12v2s_mt_posix7sources21basic_severity_loggerINS2_12basic_loggerIcNS2_18severity_logger_mtINS1_7trivial14severity_levelEEENS2_18multi_thread_modelINS1_3aux14light_rw_mutexEEEEES7_E20open_record_unlockedINS_9parameter3aux15tagged_argumentINS1_8keywords3tag8severityEKS7_EEEENS1_6recordERKT_
   fun:_ZN5boost3log12v2s_mt_posix7sources22basic_composite_loggerIcNS2_18severity_logger_mtINS1_7trivial14severity_levelEEENS2_18multi_thread_modelINS1_3aux14light_rw_mutexEEENS2_8featuresIJNS2_8severityIS6_EEEEEE11open_recordINS_9parameter3aux15tagged_argumentINS1_8keywords3tag8severityEKS6_EEEENS1_6recordERKT_
   fun:_ZN3bzn6cryptoC1ESt10shared_ptrINS_12options_baseEES1_INS_12monitor_baseEE
   fun:_ZN9__gnu_cxx13new_allocatorIN3bzn6cryptoEE9constructIS2_JRSt10shared_ptrINS1_12options_baseEERS5_INS1_12mock_monitorEEEEEvPT_DpOT0_
}
{
   <insert_a_suppression_name_here>
   Memcheck:Leak
   match-leak-kinds: reachable
   fun:_Znwm
   fun:_ZN9__gnu_cxx13new_allocatorIcE8allocateEmPKv
   fun:_ZNSt16allocator_traitsISaIcEE8allocateERS0_m
   fun:_ZNSt7__cxx1112basic_stringIcSt11char_traitsIcESaIcEE9_M_createERmm
   obj:/usr/lib/x86_64-linux-gnu/libprotobuf.so.17.0.0
   obj:/usr/lib/x86_64-linux-gnu/libprotobuf.so.17.0.0
   fun:_ZN6google8protobuf24SimpleDescriptorDatabase15DescriptorIndexISt4pairIPKviEE9AddSymbolERKNSt7__cxx1112basic_stringIcSt11char_traitsIcESaIcEEES6_
   fun:_ZN6google8protobuf24SimpleDescriptorDatabase15DescriptorIndexISt4pairIPKviEE7AddFileERKNS0_19FileDescriptorProtoES6_
   fun:_ZN6google8protobuf25EncodedDescriptorDatabase3AddEPKvi
   fun:_ZN6google8protobuf14DescriptorPool24InternalAddGeneratedFileEPKvi
   fun:_ZN47protobuf_google_2fprotobuf_2fdescriptor_2eproto18AddDescriptorsImplEv
   fun:__pthread_once_slow
}
{
   <insert_a_suppression_name_here>
   Memcheck:Leak
   match-leak-kinds: reachable
   fun:_Znwm
   obj:/usr/lib/x86_64-linux-gnu/libprotobuf.so.17.0.0
   fun:_ZN6google8protobuf24SimpleDescriptorDatabase15DescriptorIndexISt4pairIPKviEE9AddSymbolERKNSt7__cxx1112basic_stringIcSt11char_traitsIcESaIcEEES6_
   fun:_ZN6google8protobuf24SimpleDescriptorDatabase15DescriptorIndexISt4pairIPKviEE7AddFileERKNS0_19FileDescriptorProtoES6_
   fun:_ZN6google8protobuf25EncodedDescriptorDatabase3AddEPKvi
   fun:_ZN6google8protobuf14DescriptorPool24InternalAddGeneratedFileEPKvi
   fun:_ZN45protobuf_google_2fprotobuf_2fwrappers_2eproto18AddDescriptorsImplEv
   fun:__pthread_once_slow
   obj:/usr/lib/x86_64-linux-gnu/libprotobuf.so.17.0.0
   fun:call_init
   fun:_dl_init
   obj:/lib/x86_64-linux-gnu/ld-2.27.so
}
{
   <insert_a_suppression_name_here>
   Memcheck:Leak
   match-leak-kinds: reachable
   fun:_Znwm
   obj:/usr/lib/x86_64-linux-gnu/libprotobuf.so.17.0.0
   fun:_ZN6google8protobuf8internal13OnShutdownRunEPFvPKvES3_
   obj:/usr/lib/x86_64-linux-gnu/libprotobuf.so.17.0.0
   obj:/usr/lib/x86_64-linux-gnu/libprotobuf.so.17.0.0
   fun:_ZN6google8protobuf8internal11InitSCCImplEPNS1_11SCCInfoBaseE
   fun:_ZN40protobuf_google_2fprotobuf_2fapi_2eproto12InitDefaultsEv
   fun:_ZN40protobuf_google_2fprotobuf_2fapi_2eproto18AddDescriptorsImplEv
   fun:__pthread_once_slow
   obj:/usr/lib/x86_64-linux-gnu/libprotobuf.so.17.0.0
   fun:call_init
   fun:_dl_init
   obj:/lib/x86_64-linux-gnu/ld-2.27.so
}
{
   <insert_a_suppression_name_here>
   Memcheck:Leak
   match-leak-kinds: reachable
   fun:_Znwm
   obj:/usr/lib/x86_64-linux-gnu/libprotobuf.so.17.0.0
   fun:_ZN6google8protobuf24SimpleDescriptorDatabase15DescriptorIndexISt4pairIPKviEE9AddSymbolERKNSt7__cxx1112basic_stringIcSt11char_traitsIcESaIcEEES6_
   fun:_ZN6google8protobuf24SimpleDescriptorDatabase15DescriptorIndexISt4pairIPKviEE7AddFileERKNS0_19FileDescriptorProtoES6_
   fun:_ZN6google8protobuf25EncodedDescriptorDatabase3AddEPKvi
   fun:_ZN6google8protobuf14DescriptorPool24InternalAddGeneratedFileEPKvi
   fun:_ZN47protobuf_google_2fprotobuf_2fdescriptor_2eproto18AddDescriptorsImplEv
   fun:__pthread_once_slow
   obj:/usr/lib/x86_64-linux-gnu/libprotobuf.so.17.0.0
   fun:call_init
   fun:_dl_init
   obj:/lib/x86_64-linux-gnu/ld-2.27.so
}
{
   <insert_a_suppression_name_here>
   Memcheck:Leak
   match-leak-kinds: reachable
   fun:_Znwm
   fun:_ZN5boost3log12v2s_mt_posix7sources3aux18get_severity_levelEv
   fun:_ZN5boost3log12v2s_mt_posix7sources3aux14severity_levelINS1_7trivial14severity_levelEE9set_valueES6_
   fun:_ZN5boost3log12v2s_mt_posix7sources21basic_severity_loggerINS2_12basic_loggerIcNS2_18severity_logger_mtINS1_7trivial14severity_levelEEENS2_18multi_thread_modelINS1_3aux14light_rw_mutexEEEEES7_E20open_record_unlockedINS_9parameter3aux15tagged_argumentINS1_8keywords3tag8severityEKS7_EEEENS1_6recordERKT_
   fun:_ZN5boost3log12v2s_mt_posix7sources22basic_composite_loggerIcNS2_18severity_logger_mtINS1_7trivial14severity_levelEEENS2_18multi_thread_modelINS1_3aux14light_rw_mutexEEENS2_8featuresIJNS2_8severityIS6_EEEEEE11open_recordINS_9parameter3aux15tagged_argumentINS1_8keywords3tag8severityEKS6_EEEENS1_6recordERKT_
   fun:_ZN12_GLOBAL__N_113get_api_tokenERNSt7__cxx1112basic_stringIcSt11char_traitsIcESaIcEEE
   fun:_ZN3bzn68ethereum_test_that_there_is_a_token_balance_for_a_valid_address_Test8TestBodyEv
   fun:_ZN7testing8internal38HandleSehExceptionsInMethodIfSupportedINS_4TestEvEET0_PT_MS4_FS3_vEPKc
   fun:_ZN7testing8internal35HandleExceptionsInMethodIfSupportedINS_4TestEvEET0_PT_MS4_FS3_vEPKc
   fun:_ZN7testing4Test3RunEv
   fun:_ZN7testing8TestInfo3RunEv
   fun:_ZN7testing8TestCase3RunEv
}
{
   <insert_a_suppression_name_here>
   Memcheck:Leak
   match-leak-kinds: reachable
   fun:_Znwm
   fun:_ZN5boost3log12v2s_mt_posix3aux11this_thread6get_idEv
   fun:_ZN5boost3log12v2s_mt_posix4core14implementation11thread_data15get_random_seedEv
   fun:_ZN5boost3log12v2s_mt_posix4core14implementation11thread_dataC1Ev
   fun:_ZN5boost3log12v2s_mt_posix4core14implementation16init_thread_dataEv
   fun:_ZN5boost3log12v2s_mt_posix4core14implementation15get_thread_dataEv
   fun:open_record<const boost::log::v2s_mt_posix::attribute_set&>
   fun:_ZN5boost3log12v2s_mt_posix4core11open_recordERKNS1_13attribute_setE
   fun:_ZN5boost3log12v2s_mt_posix7sources12basic_loggerIcNS2_18severity_logger_mtINS1_7trivial14severity_levelEEENS2_18multi_thread_modelINS1_3aux14light_rw_mutexEEEE20open_record_unlockedINS_9parameter3aux15tagged_argumentINS1_8keywords3tag8severityEKS6_EEEENS1_6recordERKT_
   fun:_ZN5boost3log12v2s_mt_posix7sources21basic_severity_loggerINS2_12basic_loggerIcNS2_18severity_logger_mtINS1_7trivial14severity_levelEEENS2_18multi_thread_modelINS1_3aux14light_rw_mutexEEEEES7_E20open_record_unlockedINS_9parameter3aux15tagged_argumentINS1_8keywords3tag8severityEKS7_EEEENS1_6recordERKT_
   fun:_ZN5boost3log12v2s_mt_posix7sources22basic_composite_loggerIcNS2_18severity_logger_mtINS1_7trivial14severity_levelEEENS2_18multi_thread_modelINS1_3aux14light_rw_mutexEEENS2_8featuresIJNS2_8severityIS6_EEEEEE11open_recordINS_9parameter3aux15tagged_argumentINS1_8keywords3tag8severityEKS6_EEEENS1_6recordERKT_
   fun:_ZN12_GLOBAL__N_113get_api_tokenERNSt7__cxx1112basic_stringIcSt11char_traitsIcESaIcEEE
   fun:_ZN3bzn68ethereum_test_that_there_is_a_token_balance_for_a_valid_address_Test8TestBodyEv
}
{
   <insert_a_suppression_name_here>
   Memcheck:Leak
   match-leak-kinds: reachable
   fun:_Znwm
   fun:_ZN5boost6detail8heap_newINS0_25thread_exit_callback_nodeERPNS0_25thread_exit_function_baseERPS2_EEPT_OT0_OT1_
   fun:_ZN5boost6detail24add_thread_exit_functionEPNS0_25thread_exit_function_baseE
   fun:_ZN5boost11this_thread14at_thread_exitINS_3_bi6bind_tINS2_11unspecifiedENS_15checked_deleterImEENS2_5list1INS2_5valueIPmEEEEEEEEvT_
   fun:_ZN5boost3log12v2s_mt_posix7sources3aux18get_severity_levelEv
   fun:_ZN5boost3log12v2s_mt_posix7sources3aux14severity_levelINS1_7trivial14severity_levelEE9set_valueES6_
   fun:_ZN5boost3log12v2s_mt_posix7sources21basic_severity_loggerINS2_12basic_loggerIcNS2_18severity_logger_mtINS1_7trivial14severity_levelEEENS2_18multi_thread_modelINS1_3aux14light_rw_mutexEEEEES7_E20open_record_unlockedINS_9parameter3aux15tagged_argumentINS1_8keywords3tag8severityEKS7_EEEENS1_6recordERKT_
   fun:_ZN5boost3log12v2s_mt_posix7sources22basic_composite_loggerIcNS2_18severity_logger_mtINS1_7trivial14severity_levelEEENS2_18multi_thread_modelINS1_3aux14light_rw_mutexEEENS2_8featuresIJNS2_8severityIS6_EEEEEE11open_recordINS_9parameter3aux15tagged_argumentINS1_8keywords3tag8severityEKS6_EEEENS1_6recordERKT_
   fun:_ZN12_GLOBAL__N_113get_api_tokenERNSt7__cxx1112basic_stringIcSt11char_traitsIcESaIcEEE
   fun:_ZN3bzn68ethereum_test_that_there_is_a_token_balance_for_a_valid_address_Test8TestBodyEv
   fun:_ZN7testing8internal38HandleSehExceptionsInMethodIfSupportedINS_4TestEvEET0_PT_MS4_FS3_vEPKc
   fun:_ZN7testing8internal35HandleExceptionsInMethodIfSupportedINS_4TestEvEET0_PT_MS4_FS3_vEPKc
}
{
   <insert_a_suppression_name_here>
   Memcheck:Leak
   match-leak-kinds: reachable
   fun:_Znwm
   fun:_ZN5boost6detail8heap_newINS0_20thread_exit_functionINS_3_bi6bind_tINS3_11unspecifiedENS_15checked_deleterImEENS3_5list1INS3_5valueIPmEEEEEEEERSD_EEPT_OT0_
   fun:_ZN5boost11this_thread14at_thread_exitINS_3_bi6bind_tINS2_11unspecifiedENS_15checked_deleterImEENS2_5list1INS2_5valueIPmEEEEEEEEvT_
   fun:_ZN5boost3log12v2s_mt_posix7sources3aux18get_severity_levelEv
   fun:_ZN5boost3log12v2s_mt_posix7sources3aux14severity_levelINS1_7trivial14severity_levelEE9set_valueES6_
   fun:_ZN5boost3log12v2s_mt_posix7sources21basic_severity_loggerINS2_12basic_loggerIcNS2_18severity_logger_mtINS1_7trivial14severity_levelEEENS2_18multi_thread_modelINS1_3aux14light_rw_mutexEEEEES7_E20open_record_unlockedINS_9parameter3aux15tagged_argumentINS1_8keywords3tag8severityEKS7_EEEENS1_6recordERKT_
   fun:_ZN5boost3log12v2s_mt_posix7sources22basic_composite_loggerIcNS2_18severity_logger_mtINS1_7trivial14severity_levelEEENS2_18multi_thread_modelINS1_3aux14light_rw_mutexEEENS2_8featuresIJNS2_8severityIS6_EEEEEE11open_recordINS_9parameter3aux15tagged_argumentINS1_8keywords3tag8severityEKS6_EEEENS1_6recordERKT_
   fun:_ZN12_GLOBAL__N_113get_api_tokenERNSt7__cxx1112basic_stringIcSt11char_traitsIcESaIcEEE
   fun:_ZN3bzn68ethereum_test_that_there_is_a_token_balance_for_a_valid_address_Test8TestBodyEv
   fun:_ZN7testing8internal38HandleSehExceptionsInMethodIfSupportedINS_4TestEvEET0_PT_MS4_FS3_vEPKc
   fun:_ZN7testing8internal35HandleExceptionsInMethodIfSupportedINS_4TestEvEET0_PT_MS4_FS3_vEPKc
   fun:_ZN7testing4Test3RunEv
}
{
   <insert_a_suppression_name_here>
   Memcheck:Leak
   match-leak-kinds: reachable
   fun:_Znwm
   fun:_ZN5boost6detail12shared_countC1INS0_16thread_data_baseEEEPT_
   fun:_ZN5boost6detail20sp_pointer_constructINS0_16thread_data_baseES2_EEvPNS_10shared_ptrIT_EEPT0_RNS0_12shared_countE
   fun:_ZN5boost10shared_ptrINS_6detail16thread_data_baseEEC1IS2_EEPT_
   fun:_ZN5boost10shared_ptrINS_6detail16thread_data_baseEE5resetIS2_EEvPT_
   fun:_ZN5boost6detail25make_external_thread_dataEv
   fun:_ZN5boost6detail31get_or_make_current_thread_dataEv
   fun:_ZN5boost6detail24add_thread_exit_functionEPNS0_25thread_exit_function_baseE
   fun:_ZN5boost11this_thread14at_thread_exitINS_3_bi6bind_tINS2_11unspecifiedENS_15checked_deleterImEENS2_5list1INS2_5valueIPmEEEEEEEEvT_
   fun:_ZN5boost3log12v2s_mt_posix7sources3aux18get_severity_levelEv
   fun:_ZN5boost3log12v2s_mt_posix7sources3aux14severity_levelINS1_7trivial14severity_levelEE9set_valueES6_
   fun:_ZN5boost3log12v2s_mt_posix7sources21basic_severity_loggerINS2_12basic_loggerIcNS2_18severity_logger_mtINS1_7trivial14severity_levelEEENS2_18multi_thread_modelINS1_3aux14light_rw_mutexEEEEES7_E20open_record_unlockedINS_9parameter3aux15tagged_argumentINS1_8keywords3tag8severityEKS7_EEEENS1_6recordERKT_
}
{
   <insert_a_suppression_name_here>
   Memcheck:Leak
   match-leak-kinds: reachable
   fun:_Znwm
   fun:_ZN5boost6detail8heap_newINS0_26externally_launched_threadEEEPT_v
   fun:_ZN5boost6detail25make_external_thread_dataEv
   fun:_ZN5boost6detail31get_or_make_current_thread_dataEv
   fun:_ZN5boost6detail24add_thread_exit_functionEPNS0_25thread_exit_function_baseE
   fun:_ZN5boost11this_thread14at_thread_exitINS_3_bi6bind_tINS2_11unspecifiedENS_15checked_deleterImEENS2_5list1INS2_5valueIPmEEEEEEEEvT_
   fun:_ZN5boost3log12v2s_mt_posix7sources3aux18get_severity_levelEv
   fun:_ZN5boost3log12v2s_mt_posix7sources3aux14severity_levelINS1_7trivial14severity_levelEE9set_valueES6_
   fun:_ZN5boost3log12v2s_mt_posix7sources21basic_severity_loggerINS2_12basic_loggerIcNS2_18severity_logger_mtINS1_7trivial14severity_levelEEENS2_18multi_thread_modelINS1_3aux14light_rw_mutexEEEEES7_E20open_record_unlockedINS_9parameter3aux15tagged_argumentINS1_8keywords3tag8severityEKS7_EEEENS1_6recordERKT_
   fun:_ZN5boost3log12v2s_mt_posix7sources22basic_composite_loggerIcNS2_18severity_logger_mtINS1_7trivial14severity_levelEEENS2_18multi_thread_modelINS1_3aux14light_rw_mutexEEENS2_8featuresIJNS2_8severityIS6_EEEEEE11open_recordINS_9parameter3aux15tagged_argumentINS1_8keywords3tag8severityEKS6_EEEENS1_6recordERKT_
   fun:_ZN12_GLOBAL__N_113get_api_tokenERNSt7__cxx1112basic_stringIcSt11char_traitsIcESaIcEEE
   fun:_ZN3bzn68ethereum_test_that_there_is_a_token_balance_for_a_valid_address_Test8TestBodyEv
}
{
   <insert_a_suppression_name_here>
   Memcheck:Leak
   match-leak-kinds: reachable
   fun:_Znwm
   fun:_ZN5boost3log12v2s_mt_posix7sources3aux18get_severity_levelEv
   fun:_ZN5boost3log12v2s_mt_posix7sources3aux14severity_levelINS1_7trivial14severity_levelEE9set_valueES6_
   fun:_ZN5boost3log12v2s_mt_posix7sources21basic_severity_loggerINS2_12basic_loggerIcNS2_18severity_logger_mtINS1_7trivial14severity_levelEEENS2_18multi_thread_modelINS1_3aux14light_rw_mutexEEEEES7_E20open_record_unlockedINS_9parameter3aux15tagged_argumentINS1_8keywords3tag8severityEKS7_EEEENS1_6recordERKT_
   fun:_ZN5boost3log12v2s_mt_posix7sources22basic_composite_loggerIcNS2_18severity_logger_mtINS1_7trivial14severity_levelEEENS2_18multi_thread_modelINS1_3aux14light_rw_mutexEEENS2_8featuresIJNS2_8severityIS6_EEEEEE11open_recordINS_9parameter3aux15tagged_argumentINS1_8keywords3tag8severityEKS6_EEEENS1_6recordERKT_
   fun:_ZN3bzn7monitorC1ESt10shared_ptrINS_12options_baseEES1_INS_4asio15io_context_baseEES1_INS_17system_clock_baseEE
   fun:_ZN9__gnu_cxx13new_allocatorIN3bzn7monitorEE9constructIS2_JRSt10shared_ptrINS1_17mock_options_baseEERS5_INS1_4asio19Mockio_context_baseEERS5_INS1_17mock_system_clockEEEEEvPT_DpOT0_
   fun:_ZNSt16allocator_traitsISaIN3bzn7monitorEEE9constructIS1_JRSt10shared_ptrINS0_17mock_options_baseEERS5_INS0_4asio19Mockio_context_baseEERS5_INS0_17mock_system_clockEEEEEvRS2_PT_DpOT0_
   fun:_ZNSt23_Sp_counted_ptr_inplaceIN3bzn7monitorESaIS1_ELN9__gnu_cxx12_Lock_policyE2EEC1IJRSt10shared_ptrINS0_17mock_options_baseEERS7_INS0_4asio19Mockio_context_baseEERS7_INS0_17mock_system_clockEEEEES2_DpOT_
   fun:_ZNSt14__shared_countILN9__gnu_cxx12_Lock_policyE2EEC1IN3bzn7monitorESaIS5_EJRSt10shared_ptrINS4_17mock_options_baseEERS7_INS4_4asio19Mockio_context_baseEERS7_INS4_17mock_system_clockEEEEESt19_Sp_make_shared_tagPT_RKT0_DpOT1_
   fun:_ZNSt12__shared_ptrIN3bzn7monitorELN9__gnu_cxx12_Lock_policyE2EEC1ISaIS1_EJRSt10shared_ptrINS0_17mock_options_baseEERS7_INS0_4asio19Mockio_context_baseEERS7_INS0_17mock_system_clockEEEEESt19_Sp_make_shared_tagRKT_DpOT0_
   fun:_ZNSt10shared_ptrIN3bzn7monitorEEC1ISaIS1_EJRS_INS0_17mock_options_baseEERS_INS0_4asio19Mockio_context_baseEERS_INS0_17mock_system_clockEEEEESt19_Sp_make_shared_tagRKT_DpOT0_
}
{
   <insert_a_suppression_name_here>
   Memcheck:Leak
   match-leak-kinds: reachable
   fun:_Znwm
   fun:_ZN5boost3log12v2s_mt_posix3aux11this_thread6get_idEv
   fun:_ZN5boost3log12v2s_mt_posix4core14implementation11thread_data15get_random_seedEv
   fun:_ZN5boost3log12v2s_mt_posix4core14implementation11thread_dataC1Ev
   fun:_ZN5boost3log12v2s_mt_posix4core14implementation16init_thread_dataEv
   fun:_ZN5boost3log12v2s_mt_posix4core14implementation15get_thread_dataEv
   fun:open_record<const boost::log::v2s_mt_posix::attribute_set&>
   fun:_ZN5boost3log12v2s_mt_posix4core11open_recordERKNS1_13attribute_setE
   fun:_ZN5boost3log12v2s_mt_posix7sources12basic_loggerIcNS2_18severity_logger_mtINS1_7trivial14severity_levelEEENS2_18multi_thread_modelINS1_3aux14light_rw_mutexEEEE20open_record_unlockedINS_9parameter3aux15tagged_argumentINS1_8keywords3tag8severityEKS6_EEEENS1_6recordERKT_
   fun:_ZN5boost3log12v2s_mt_posix7sources21basic_severity_loggerINS2_12basic_loggerIcNS2_18severity_logger_mtINS1_7trivial14severity_levelEEENS2_18multi_thread_modelINS1_3aux14light_rw_mutexEEEEES7_E20open_record_unlockedINS_9parameter3aux15tagged_argumentINS1_8keywords3tag8severityEKS7_EEEENS1_6recordERKT_
   fun:_ZN5boost3log12v2s_mt_posix7sources22basic_composite_loggerIcNS2_18severity_logger_mtINS1_7trivial14severity_levelEEENS2_18multi_thread_modelINS1_3aux14light_rw_mutexEEENS2_8featuresIJNS2_8severityIS6_EEEEEE11open_recordINS_9parameter3aux15tagged_argumentINS1_8keywords3tag8severityEKS6_EEEENS1_6recordERKT_
   fun:_ZN3bzn7monitorC1ESt10shared_ptrINS_12options_baseEES1_INS_4asio15io_context_baseEES1_INS_17system_clock_baseEE
   fun:_ZN9__gnu_cxx13new_allocatorIN3bzn7monitorEE9constructIS2_JRSt10shared_ptrINS1_17mock_options_baseEERS5_INS1_4asio19Mockio_context_baseEERS5_INS1_17mock_system_clockEEEEEvPT_DpOT0_
}
{
   <insert_a_suppression_name_here>
   Memcheck:Leak
   match-leak-kinds: reachable
   fun:_Znwm
   fun:_ZN5boost6detail8heap_newINS0_25thread_exit_callback_nodeERPNS0_25thread_exit_function_baseERPS2_EEPT_OT0_OT1_
   fun:_ZN5boost6detail24add_thread_exit_functionEPNS0_25thread_exit_function_baseE
   fun:_ZN5boost11this_thread14at_thread_exitINS_3_bi6bind_tINS2_11unspecifiedENS_15checked_deleterImEENS2_5list1INS2_5valueIPmEEEEEEEEvT_
   fun:_ZN5boost3log12v2s_mt_posix7sources3aux18get_severity_levelEv
   fun:_ZN5boost3log12v2s_mt_posix7sources3aux14severity_levelINS1_7trivial14severity_levelEE9set_valueES6_
   fun:_ZN5boost3log12v2s_mt_posix7sources21basic_severity_loggerINS2_12basic_loggerIcNS2_18severity_logger_mtINS1_7trivial14severity_levelEEENS2_18multi_thread_modelINS1_3aux14light_rw_mutexEEEEES7_E20open_record_unlockedINS_9parameter3aux15tagged_argumentINS1_8keywords3tag8severityEKS7_EEEENS1_6recordERKT_
   fun:_ZN5boost3log12v2s_mt_posix7sources22basic_composite_loggerIcNS2_18severity_logger_mtINS1_7trivial14severity_levelEEENS2_18multi_thread_modelINS1_3aux14light_rw_mutexEEENS2_8featuresIJNS2_8severityIS6_EEEEEE11open_recordINS_9parameter3aux15tagged_argumentINS1_8keywords3tag8severityEKS6_EEEENS1_6recordERKT_
   fun:_ZN3bzn7monitorC1ESt10shared_ptrINS_12options_baseEES1_INS_4asio15io_context_baseEES1_INS_17system_clock_baseEE
   fun:_ZN9__gnu_cxx13new_allocatorIN3bzn7monitorEE9constructIS2_JRSt10shared_ptrINS1_17mock_options_baseEERS5_INS1_4asio19Mockio_context_baseEERS5_INS1_17mock_system_clockEEEEEvPT_DpOT0_
   fun:_ZNSt16allocator_traitsISaIN3bzn7monitorEEE9constructIS1_JRSt10shared_ptrINS0_17mock_options_baseEERS5_INS0_4asio19Mockio_context_baseEERS5_INS0_17mock_system_clockEEEEEvRS2_PT_DpOT0_
   fun:_ZNSt23_Sp_counted_ptr_inplaceIN3bzn7monitorESaIS1_ELN9__gnu_cxx12_Lock_policyE2EEC1IJRSt10shared_ptrINS0_17mock_options_baseEERS7_INS0_4asio19Mockio_context_baseEERS7_INS0_17mock_system_clockEEEEES2_DpOT_
}
{
   <insert_a_suppression_name_here>
   Memcheck:Leak
   match-leak-kinds: reachable
   fun:_Znwm
   fun:_ZN5boost6detail8heap_newINS0_20thread_exit_functionINS_3_bi6bind_tINS3_11unspecifiedENS_15checked_deleterImEENS3_5list1INS3_5valueIPmEEEEEEEERSD_EEPT_OT0_
   fun:_ZN5boost11this_thread14at_thread_exitINS_3_bi6bind_tINS2_11unspecifiedENS_15checked_deleterImEENS2_5list1INS2_5valueIPmEEEEEEEEvT_
   fun:_ZN5boost3log12v2s_mt_posix7sources3aux18get_severity_levelEv
   fun:_ZN5boost3log12v2s_mt_posix7sources3aux14severity_levelINS1_7trivial14severity_levelEE9set_valueES6_
   fun:_ZN5boost3log12v2s_mt_posix7sources21basic_severity_loggerINS2_12basic_loggerIcNS2_18severity_logger_mtINS1_7trivial14severity_levelEEENS2_18multi_thread_modelINS1_3aux14light_rw_mutexEEEEES7_E20open_record_unlockedINS_9parameter3aux15tagged_argumentINS1_8keywords3tag8severityEKS7_EEEENS1_6recordERKT_
   fun:_ZN5boost3log12v2s_mt_posix7sources22basic_composite_loggerIcNS2_18severity_logger_mtINS1_7trivial14severity_levelEEENS2_18multi_thread_modelINS1_3aux14light_rw_mutexEEENS2_8featuresIJNS2_8severityIS6_EEEEEE11open_recordINS_9parameter3aux15tagged_argumentINS1_8keywords3tag8severityEKS6_EEEENS1_6recordERKT_
   fun:_ZN3bzn7monitorC1ESt10shared_ptrINS_12options_baseEES1_INS_4asio15io_context_baseEES1_INS_17system_clock_baseEE
   fun:_ZN9__gnu_cxx13new_allocatorIN3bzn7monitorEE9constructIS2_JRSt10shared_ptrINS1_17mock_options_baseEERS5_INS1_4asio19Mockio_context_baseEERS5_INS1_17mock_system_clockEEEEEvPT_DpOT0_
   fun:_ZNSt16allocator_traitsISaIN3bzn7monitorEEE9constructIS1_JRSt10shared_ptrINS0_17mock_options_baseEERS5_INS0_4asio19Mockio_context_baseEERS5_INS0_17mock_system_clockEEEEEvRS2_PT_DpOT0_
   fun:_ZNSt23_Sp_counted_ptr_inplaceIN3bzn7monitorESaIS1_ELN9__gnu_cxx12_Lock_policyE2EEC1IJRSt10shared_ptrINS0_17mock_options_baseEERS7_INS0_4asio19Mockio_context_baseEERS7_INS0_17mock_system_clockEEEEES2_DpOT_
   fun:_ZNSt14__shared_countILN9__gnu_cxx12_Lock_policyE2EEC1IN3bzn7monitorESaIS5_EJRSt10shared_ptrINS4_17mock_options_baseEERS7_INS4_4asio19Mockio_context_baseEERS7_INS4_17mock_system_clockEEEEESt19_Sp_make_shared_tagPT_RKT0_DpOT1_
}
{
   <insert_a_suppression_name_here>
   Memcheck:Leak
   match-leak-kinds: reachable
   fun:_Znwm
   fun:_ZN5boost6detail12shared_countC1INS0_16thread_data_baseEEEPT_
   fun:_ZN5boost6detail20sp_pointer_constructINS0_16thread_data_baseES2_EEvPNS_10shared_ptrIT_EEPT0_RNS0_12shared_countE
   fun:_ZN5boost10shared_ptrINS_6detail16thread_data_baseEEC1IS2_EEPT_
   fun:_ZN5boost10shared_ptrINS_6detail16thread_data_baseEE5resetIS2_EEvPT_
   fun:_ZN5boost6detail25make_external_thread_dataEv
   fun:_ZN5boost6detail31get_or_make_current_thread_dataEv
   fun:_ZN5boost6detail24add_thread_exit_functionEPNS0_25thread_exit_function_baseE
   fun:_ZN5boost11this_thread14at_thread_exitINS_3_bi6bind_tINS2_11unspecifiedENS_15checked_deleterImEENS2_5list1INS2_5valueIPmEEEEEEEEvT_
   fun:_ZN5boost3log12v2s_mt_posix7sources3aux18get_severity_levelEv
   fun:_ZN5boost3log12v2s_mt_posix7sources3aux14severity_levelINS1_7trivial14severity_levelEE9set_valueES6_
   fun:_ZN5boost3log12v2s_mt_posix7sources21basic_severity_loggerINS2_12basic_loggerIcNS2_18severity_logger_mtINS1_7trivial14severity_levelEEENS2_18multi_thread_modelINS1_3aux14light_rw_mutexEEEEES7_E20open_record_unlockedINS_9parameter3aux15tagged_argumentINS1_8keywords3tag8severityEKS7_EEEENS1_6recordERKT_
}
{
   <insert_a_suppression_name_here>
   Memcheck:Leak
   match-leak-kinds: reachable
   fun:_Znwm
   fun:_ZN5boost6detail8heap_newINS0_26externally_launched_threadEEEPT_v
   fun:_ZN5boost6detail25make_external_thread_dataEv
   fun:_ZN5boost6detail31get_or_make_current_thread_dataEv
   fun:_ZN5boost6detail24add_thread_exit_functionEPNS0_25thread_exit_function_baseE
   fun:_ZN5boost11this_thread14at_thread_exitINS_3_bi6bind_tINS2_11unspecifiedENS_15checked_deleterImEENS2_5list1INS2_5valueIPmEEEEEEEEvT_
   fun:_ZN5boost3log12v2s_mt_posix7sources3aux18get_severity_levelEv
   fun:_ZN5boost3log12v2s_mt_posix7sources3aux14severity_levelINS1_7trivial14severity_levelEE9set_valueES6_
   fun:_ZN5boost3log12v2s_mt_posix7sources21basic_severity_loggerINS2_12basic_loggerIcNS2_18severity_logger_mtINS1_7trivial14severity_levelEEENS2_18multi_thread_modelINS1_3aux14light_rw_mutexEEEEES7_E20open_record_unlockedINS_9parameter3aux15tagged_argumentINS1_8keywords3tag8severityEKS7_EEEENS1_6recordERKT_
   fun:_ZN5boost3log12v2s_mt_posix7sources22basic_composite_loggerIcNS2_18severity_logger_mtINS1_7trivial14severity_levelEEENS2_18multi_thread_modelINS1_3aux14light_rw_mutexEEENS2_8featuresIJNS2_8severityIS6_EEEEEE11open_recordINS_9parameter3aux15tagged_argumentINS1_8keywords3tag8severityEKS6_EEEENS1_6recordERKT_
   fun:_ZN3bzn7monitorC1ESt10shared_ptrINS_12options_baseEES1_INS_4asio15io_context_baseEES1_INS_17system_clock_baseEE
   fun:_ZN9__gnu_cxx13new_allocatorIN3bzn7monitorEE9constructIS2_JRSt10shared_ptrINS1_17mock_options_baseEERS5_INS1_4asio19Mockio_context_baseEERS5_INS1_17mock_system_clockEEEEEvPT_DpOT0_
}
{
   <insert_a_suppression_name_here>
   Memcheck:Cond
   fun:_ZN3bzn4asio13smart_mock_io17yield_until_clearEv
   fun:_ZN3bzn4asio13smart_mock_io22do_incoming_connectionEm
   fun:_ZN3bzn47node_test2_test_accept_incoming_connection_Test8TestBodyEv
   fun:_ZN7testing8internal38HandleSehExceptionsInMethodIfSupportedINS_4TestEvEET0_PT_MS4_FS3_vEPKc
   fun:_ZN7testing8internal35HandleExceptionsInMethodIfSupportedINS_4TestEvEET0_PT_MS4_FS3_vEPKc
   fun:_ZN7testing4Test3RunEv
   fun:_ZN7testing8TestInfo3RunEv
   fun:_ZN7testing8TestCase3RunEv
   fun:_ZN7testing8internal12UnitTestImpl11RunAllTestsEv
   fun:_ZN7testing8internal38HandleSehExceptionsInMethodIfSupportedINS0_12UnitTestImplEbEET0_PT_MS4_FS3_vEPKc
   fun:_ZN7testing8internal35HandleExceptionsInMethodIfSupportedINS0_12UnitTestImplEbEET0_PT_MS4_FS3_vEPKc
   fun:_ZN7testing8UnitTest3RunEv
}
{
   <insert_a_suppression_name_here>
   Memcheck:Cond
   fun:_ZN3bzn4asio13smart_mock_io17yield_until_clearEv
   fun:_ZN3bzn47node_test2_test_accept_incoming_connection_Test8TestBodyEv
   fun:_ZN7testing8internal38HandleSehExceptionsInMethodIfSupportedINS_4TestEvEET0_PT_MS4_FS3_vEPKc
   fun:_ZN7testing8internal35HandleExceptionsInMethodIfSupportedINS_4TestEvEET0_PT_MS4_FS3_vEPKc
   fun:_ZN7testing4Test3RunEv
   fun:_ZN7testing8TestInfo3RunEv
   fun:_ZN7testing8TestCase3RunEv
   fun:_ZN7testing8internal12UnitTestImpl11RunAllTestsEv
   fun:_ZN7testing8internal38HandleSehExceptionsInMethodIfSupportedINS0_12UnitTestImplEbEET0_PT_MS4_FS3_vEPKc
   fun:_ZN7testing8internal35HandleExceptionsInMethodIfSupportedINS0_12UnitTestImplEbEET0_PT_MS4_FS3_vEPKc
   fun:_ZN7testing8UnitTest3RunEv
   fun:_Z13RUN_ALL_TESTSv
}
{
   <insert_a_suppression_name_here>
   Memcheck:Cond
   fun:_ZN3bzn4asio13smart_mock_io8shutdownEv
   fun:_ZN10node_test2D1Ev
   fun:_ZN3bzn47node_test2_test_accept_incoming_connection_TestD1Ev
   fun:_ZN3bzn47node_test2_test_accept_incoming_connection_TestD0Ev
   fun:_ZN7testing4Test11DeleteSelf_Ev
   fun:_ZN7testing8internal38HandleSehExceptionsInMethodIfSupportedINS_4TestEvEET0_PT_MS4_FS3_vEPKc
   fun:_ZN7testing8internal35HandleExceptionsInMethodIfSupportedINS_4TestEvEET0_PT_MS4_FS3_vEPKc
   fun:_ZN7testing8TestInfo3RunEv
   fun:_ZN7testing8TestCase3RunEv
   fun:_ZN7testing8internal12UnitTestImpl11RunAllTestsEv
   fun:_ZN7testing8internal38HandleSehExceptionsInMethodIfSupportedINS0_12UnitTestImplEbEET0_PT_MS4_FS3_vEPKc
   fun:_ZN7testing8internal35HandleExceptionsInMethodIfSupportedINS0_12UnitTestImplEbEET0_PT_MS4_FS3_vEPKc
}
{
   <insert_a_suppression_name_here>
   Memcheck:Cond
   fun:_ZN3bzn4asio13smart_mock_io17yield_until_clearEv
   fun:_ZN3bzn40node_test2_test_make_new_connection_Test8TestBodyEv
   fun:_ZN7testing8internal38HandleSehExceptionsInMethodIfSupportedINS_4TestEvEET0_PT_MS4_FS3_vEPKc
   fun:_ZN7testing8internal35HandleExceptionsInMethodIfSupportedINS_4TestEvEET0_PT_MS4_FS3_vEPKc
   fun:_ZN7testing4Test3RunEv
   fun:_ZN7testing8TestInfo3RunEv
   fun:_ZN7testing8TestCase3RunEv
   fun:_ZN7testing8internal12UnitTestImpl11RunAllTestsEv
   fun:_ZN7testing8internal38HandleSehExceptionsInMethodIfSupportedINS0_12UnitTestImplEbEET0_PT_MS4_FS3_vEPKc
   fun:_ZN7testing8internal35HandleExceptionsInMethodIfSupportedINS0_12UnitTestImplEbEET0_PT_MS4_FS3_vEPKc
   fun:_ZN7testing8UnitTest3RunEv
   fun:_Z13RUN_ALL_TESTSv
}
{
   <insert_a_suppression_name_here>
   Memcheck:Cond
   fun:_ZN3bzn4asio13smart_mock_io8shutdownEv
   fun:_ZN10node_test2D1Ev
   fun:_ZN3bzn40node_test2_test_make_new_connection_TestD1Ev
   fun:_ZN3bzn40node_test2_test_make_new_connection_TestD0Ev
   fun:_ZN7testing4Test11DeleteSelf_Ev
   fun:_ZN7testing8internal38HandleSehExceptionsInMethodIfSupportedINS_4TestEvEET0_PT_MS4_FS3_vEPKc
   fun:_ZN7testing8internal35HandleExceptionsInMethodIfSupportedINS_4TestEvEET0_PT_MS4_FS3_vEPKc
   fun:_ZN7testing8TestInfo3RunEv
   fun:_ZN7testing8TestCase3RunEv
   fun:_ZN7testing8internal12UnitTestImpl11RunAllTestsEv
   fun:_ZN7testing8internal38HandleSehExceptionsInMethodIfSupportedINS0_12UnitTestImplEbEET0_PT_MS4_FS3_vEPKc
   fun:_ZN7testing8internal35HandleExceptionsInMethodIfSupportedINS0_12UnitTestImplEbEET0_PT_MS4_FS3_vEPKc
}
{
   <insert_a_suppression_name_here>
   Memcheck:Cond
   fun:_ZN3bzn4asio13smart_mock_io17yield_until_clearEv
   fun:_ZN3bzn37node_test2_test_reuse_connection_Test8TestBodyEv
   fun:_ZN7testing8internal38HandleSehExceptionsInMethodIfSupportedINS_4TestEvEET0_PT_MS4_FS3_vEPKc
   fun:_ZN7testing8internal35HandleExceptionsInMethodIfSupportedINS_4TestEvEET0_PT_MS4_FS3_vEPKc
   fun:_ZN7testing4Test3RunEv
   fun:_ZN7testing8TestInfo3RunEv
   fun:_ZN7testing8TestCase3RunEv
   fun:_ZN7testing8internal12UnitTestImpl11RunAllTestsEv
   fun:_ZN7testing8internal38HandleSehExceptionsInMethodIfSupportedINS0_12UnitTestImplEbEET0_PT_MS4_FS3_vEPKc
   fun:_ZN7testing8internal35HandleExceptionsInMethodIfSupportedINS0_12UnitTestImplEbEET0_PT_MS4_FS3_vEPKc
   fun:_ZN7testing8UnitTest3RunEv
   fun:_Z13RUN_ALL_TESTSv
}
{
   <insert_a_suppression_name_here>
   Memcheck:Cond
   fun:_ZN3bzn4asio13smart_mock_io8shutdownEv
   fun:_ZN10node_test2D1Ev
   fun:_ZN3bzn37node_test2_test_reuse_connection_TestD1Ev
   fun:_ZN3bzn37node_test2_test_reuse_connection_TestD0Ev
   fun:_ZN7testing4Test11DeleteSelf_Ev
   fun:_ZN7testing8internal38HandleSehExceptionsInMethodIfSupportedINS_4TestEvEET0_PT_MS4_FS3_vEPKc
   fun:_ZN7testing8internal35HandleExceptionsInMethodIfSupportedINS_4TestEvEET0_PT_MS4_FS3_vEPKc
   fun:_ZN7testing8TestInfo3RunEv
   fun:_ZN7testing8TestCase3RunEv
   fun:_ZN7testing8internal12UnitTestImpl11RunAllTestsEv
   fun:_ZN7testing8internal38HandleSehExceptionsInMethodIfSupportedINS0_12UnitTestImplEbEET0_PT_MS4_FS3_vEPKc
   fun:_ZN7testing8internal35HandleExceptionsInMethodIfSupportedINS0_12UnitTestImplEbEET0_PT_MS4_FS3_vEPKc
}
{
   <insert_a_suppression_name_here>
   Memcheck:Cond
   fun:_ZN3bzn4asio13smart_mock_io17yield_until_clearEv
   fun:_ZN3bzn38node_test2_new_session_for_new_ep_Test8TestBodyEv
   fun:_ZN7testing8internal38HandleSehExceptionsInMethodIfSupportedINS_4TestEvEET0_PT_MS4_FS3_vEPKc
   fun:_ZN7testing8internal35HandleExceptionsInMethodIfSupportedINS_4TestEvEET0_PT_MS4_FS3_vEPKc
   fun:_ZN7testing4Test3RunEv
   fun:_ZN7testing8TestInfo3RunEv
   fun:_ZN7testing8TestCase3RunEv
   fun:_ZN7testing8internal12UnitTestImpl11RunAllTestsEv
   fun:_ZN7testing8internal38HandleSehExceptionsInMethodIfSupportedINS0_12UnitTestImplEbEET0_PT_MS4_FS3_vEPKc
   fun:_ZN7testing8internal35HandleExceptionsInMethodIfSupportedINS0_12UnitTestImplEbEET0_PT_MS4_FS3_vEPKc
   fun:_ZN7testing8UnitTest3RunEv
   fun:_Z13RUN_ALL_TESTSv
}
{
   <insert_a_suppression_name_here>
   Memcheck:Cond
   fun:_ZN3bzn4asio13smart_mock_io8shutdownEv
   fun:_ZN10node_test2D1Ev
   fun:_ZN3bzn38node_test2_new_session_for_new_ep_TestD1Ev
   fun:_ZN3bzn38node_test2_new_session_for_new_ep_TestD0Ev
   fun:_ZN7testing4Test11DeleteSelf_Ev
   fun:_ZN7testing8internal38HandleSehExceptionsInMethodIfSupportedINS_4TestEvEET0_PT_MS4_FS3_vEPKc
   fun:_ZN7testing8internal35HandleExceptionsInMethodIfSupportedINS_4TestEvEET0_PT_MS4_FS3_vEPKc
   fun:_ZN7testing8TestInfo3RunEv
   fun:_ZN7testing8TestCase3RunEv
   fun:_ZN7testing8internal12UnitTestImpl11RunAllTestsEv
   fun:_ZN7testing8internal38HandleSehExceptionsInMethodIfSupportedINS0_12UnitTestImplEbEET0_PT_MS4_FS3_vEPKc
   fun:_ZN7testing8internal35HandleExceptionsInMethodIfSupportedINS0_12UnitTestImplEbEET0_PT_MS4_FS3_vEPKc
}
{
   <insert_a_suppression_name_here>
   Memcheck:Cond
   fun:_ZN3bzn4asio13smart_mock_io17yield_until_clearEv
   fun:_ZN3bzn41node_test2_test_replace_dead_session_Test8TestBodyEv
   fun:_ZN7testing8internal38HandleSehExceptionsInMethodIfSupportedINS_4TestEvEET0_PT_MS4_FS3_vEPKc
   fun:_ZN7testing8internal35HandleExceptionsInMethodIfSupportedINS_4TestEvEET0_PT_MS4_FS3_vEPKc
   fun:_ZN7testing4Test3RunEv
   fun:_ZN7testing8TestInfo3RunEv
   fun:_ZN7testing8TestCase3RunEv
   fun:_ZN7testing8internal12UnitTestImpl11RunAllTestsEv
   fun:_ZN7testing8internal38HandleSehExceptionsInMethodIfSupportedINS0_12UnitTestImplEbEET0_PT_MS4_FS3_vEPKc
   fun:_ZN7testing8internal35HandleExceptionsInMethodIfSupportedINS0_12UnitTestImplEbEET0_PT_MS4_FS3_vEPKc
   fun:_ZN7testing8UnitTest3RunEv
   fun:_Z13RUN_ALL_TESTSv
}
{
   <insert_a_suppression_name_here>
   Memcheck:Cond
   fun:_ZN3bzn4asio13smart_mock_io8shutdownEv
   fun:_ZN10node_test2D1Ev
   fun:_ZN3bzn41node_test2_test_replace_dead_session_TestD1Ev
   fun:_ZN3bzn41node_test2_test_replace_dead_session_TestD0Ev
   fun:_ZN7testing4Test11DeleteSelf_Ev
   fun:_ZN7testing8internal38HandleSehExceptionsInMethodIfSupportedINS_4TestEvEET0_PT_MS4_FS3_vEPKc
   fun:_ZN7testing8internal35HandleExceptionsInMethodIfSupportedINS_4TestEvEET0_PT_MS4_FS3_vEPKc
   fun:_ZN7testing8TestInfo3RunEv
   fun:_ZN7testing8TestCase3RunEv
   fun:_ZN7testing8internal12UnitTestImpl11RunAllTestsEv
   fun:_ZN7testing8internal38HandleSehExceptionsInMethodIfSupportedINS0_12UnitTestImplEbEET0_PT_MS4_FS3_vEPKc
   fun:_ZN7testing8internal35HandleExceptionsInMethodIfSupportedINS0_12UnitTestImplEbEET0_PT_MS4_FS3_vEPKc
}
{
   <insert_a_suppression_name_here>
   Memcheck:Cond
   fun:_ZN3bzn4asio13smart_mock_io8shutdownEv
   fun:_ZN13session_test2D1Ev
   fun:_ZN3bzn63session_test2_session_sets_swarm_id_when_sending_a_message_TestD1Ev
   fun:_ZN3bzn63session_test2_session_sets_swarm_id_when_sending_a_message_TestD0Ev
   fun:_ZN7testing4Test11DeleteSelf_Ev
   fun:_ZN7testing8internal38HandleSehExceptionsInMethodIfSupportedINS_4TestEvEET0_PT_MS4_FS3_vEPKc
   fun:_ZN7testing8internal35HandleExceptionsInMethodIfSupportedINS_4TestEvEET0_PT_MS4_FS3_vEPKc
   fun:_ZN7testing8TestInfo3RunEv
   fun:_ZN7testing8TestCase3RunEv
   fun:_ZN7testing8internal12UnitTestImpl11RunAllTestsEv
   fun:_ZN7testing8internal38HandleSehExceptionsInMethodIfSupportedINS0_12UnitTestImplEbEET0_PT_MS4_FS3_vEPKc
   fun:_ZN7testing8internal35HandleExceptionsInMethodIfSupportedINS0_12UnitTestImplEbEET0_PT_MS4_FS3_vEPKc
}
{
   <insert_a_suppression_name_here>
   Memcheck:Cond
   fun:_ZN3bzn4asio13smart_mock_io8shutdownEv
   fun:_ZN13session_test2D1Ev
   fun:_ZN3bzn60session_test2_message_queued_before_handshake_gets_sent_TestD1Ev
   fun:_ZN3bzn60session_test2_message_queued_before_handshake_gets_sent_TestD0Ev
   fun:_ZN7testing4Test11DeleteSelf_Ev
   fun:_ZN7testing8internal38HandleSehExceptionsInMethodIfSupportedINS_4TestEvEET0_PT_MS4_FS3_vEPKc
   fun:_ZN7testing8internal35HandleExceptionsInMethodIfSupportedINS_4TestEvEET0_PT_MS4_FS3_vEPKc
   fun:_ZN7testing8TestInfo3RunEv
   fun:_ZN7testing8TestCase3RunEv
   fun:_ZN7testing8internal12UnitTestImpl11RunAllTestsEv
   fun:_ZN7testing8internal38HandleSehExceptionsInMethodIfSupportedINS0_12UnitTestImplEbEET0_PT_MS4_FS3_vEPKc
   fun:_ZN7testing8internal35HandleExceptionsInMethodIfSupportedINS0_12UnitTestImplEbEET0_PT_MS4_FS3_vEPKc
}
{
   <insert_a_suppression_name_here>
   Memcheck:Cond
   fun:_ZN3bzn4asio13smart_mock_io8shutdownEv
   fun:_ZN13session_test2D1Ev
   fun:_ZN3bzn46session_test2_idle_timeout_closes_session_TestD1Ev
   fun:_ZN3bzn46session_test2_idle_timeout_closes_session_TestD0Ev
   fun:_ZN7testing4Test11DeleteSelf_Ev
   fun:_ZN7testing8internal38HandleSehExceptionsInMethodIfSupportedINS_4TestEvEET0_PT_MS4_FS3_vEPKc
   fun:_ZN7testing8internal35HandleExceptionsInMethodIfSupportedINS_4TestEvEET0_PT_MS4_FS3_vEPKc
   fun:_ZN7testing8TestInfo3RunEv
   fun:_ZN7testing8TestCase3RunEv
   fun:_ZN7testing8internal12UnitTestImpl11RunAllTestsEv
   fun:_ZN7testing8internal38HandleSehExceptionsInMethodIfSupportedINS0_12UnitTestImplEbEET0_PT_MS4_FS3_vEPKc
   fun:_ZN7testing8internal35HandleExceptionsInMethodIfSupportedINS0_12UnitTestImplEbEET0_PT_MS4_FS3_vEPKc
}
{
   <insert_a_suppression_name_here>
   Memcheck:Cond
   fun:_ZN3bzn4asio13smart_mock_io8shutdownEv
   fun:_ZN3bzn56session_test2_no_idle_timeout_when_connect_rejected_Test8TestBodyEv
   fun:_ZN7testing8internal38HandleSehExceptionsInMethodIfSupportedINS_4TestEvEET0_PT_MS4_FS3_vEPKc
   fun:_ZN7testing8internal35HandleExceptionsInMethodIfSupportedINS_4TestEvEET0_PT_MS4_FS3_vEPKc
   fun:_ZN7testing4Test3RunEv
   fun:_ZN7testing8TestInfo3RunEv
   fun:_ZN7testing8TestCase3RunEv
   fun:_ZN7testing8internal12UnitTestImpl11RunAllTestsEv
   fun:_ZN7testing8internal38HandleSehExceptionsInMethodIfSupportedINS0_12UnitTestImplEbEET0_PT_MS4_FS3_vEPKc
   fun:_ZN7testing8internal35HandleExceptionsInMethodIfSupportedINS0_12UnitTestImplEbEET0_PT_MS4_FS3_vEPKc
   fun:_ZN7testing8UnitTest3RunEv
   fun:_Z13RUN_ALL_TESTSv
}
{
   <insert_a_suppression_name_here>
   Memcheck:Cond
   fun:_ZN3bzn4asio13smart_mock_io8shutdownEv
   fun:_ZN13session_test2D1Ev
   fun:_ZN3bzn56session_test2_no_idle_timeout_when_connect_rejected_TestD1Ev
   fun:_ZN3bzn56session_test2_no_idle_timeout_when_connect_rejected_TestD0Ev
   fun:_ZN7testing4Test11DeleteSelf_Ev
   fun:_ZN7testing8internal38HandleSehExceptionsInMethodIfSupportedINS_4TestEvEET0_PT_MS4_FS3_vEPKc
   fun:_ZN7testing8internal35HandleExceptionsInMethodIfSupportedINS_4TestEvEET0_PT_MS4_FS3_vEPKc
   fun:_ZN7testing8TestInfo3RunEv
   fun:_ZN7testing8TestCase3RunEv
   fun:_ZN7testing8internal12UnitTestImpl11RunAllTestsEv
   fun:_ZN7testing8internal38HandleSehExceptionsInMethodIfSupportedINS0_12UnitTestImplEbEET0_PT_MS4_FS3_vEPKc
   fun:_ZN7testing8internal35HandleExceptionsInMethodIfSupportedINS0_12UnitTestImplEbEET0_PT_MS4_FS3_vEPKc
}
{
   <insert_a_suppression_name_here>
   Memcheck:Cond
   fun:_ZN3bzn4asio13smart_mock_io17yield_until_clearEv
   fun:_ZN3bzn71session_test2_additional_shutdown_handlers_can_be_added_to_session_Test8TestBodyEv
   fun:_ZN7testing8internal38HandleSehExceptionsInMethodIfSupportedINS_4TestEvEET0_PT_MS4_FS3_vEPKc
   fun:_ZN7testing8internal35HandleExceptionsInMethodIfSupportedINS_4TestEvEET0_PT_MS4_FS3_vEPKc
   fun:_ZN7testing4Test3RunEv
   fun:_ZN7testing8TestInfo3RunEv
   fun:_ZN7testing8TestCase3RunEv
   fun:_ZN7testing8internal12UnitTestImpl11RunAllTestsEv
   fun:_ZN7testing8internal38HandleSehExceptionsInMethodIfSupportedINS0_12UnitTestImplEbEET0_PT_MS4_FS3_vEPKc
   fun:_ZN7testing8internal35HandleExceptionsInMethodIfSupportedINS0_12UnitTestImplEbEET0_PT_MS4_FS3_vEPKc
   fun:_ZN7testing8UnitTest3RunEv
   fun:_Z13RUN_ALL_TESTSv
}
{
   <insert_a_suppression_name_here>
   Memcheck:Cond
   fun:_ZN3bzn4asio13smart_mock_io8shutdownEv
   fun:_ZN3bzn71session_test2_additional_shutdown_handlers_can_be_added_to_session_Test8TestBodyEv
   fun:_ZN7testing8internal38HandleSehExceptionsInMethodIfSupportedINS_4TestEvEET0_PT_MS4_FS3_vEPKc
   fun:_ZN7testing8internal35HandleExceptionsInMethodIfSupportedINS_4TestEvEET0_PT_MS4_FS3_vEPKc
   fun:_ZN7testing4Test3RunEv
   fun:_ZN7testing8TestInfo3RunEv
   fun:_ZN7testing8TestCase3RunEv
   fun:_ZN7testing8internal12UnitTestImpl11RunAllTestsEv
   fun:_ZN7testing8internal38HandleSehExceptionsInMethodIfSupportedINS0_12UnitTestImplEbEET0_PT_MS4_FS3_vEPKc
   fun:_ZN7testing8internal35HandleExceptionsInMethodIfSupportedINS0_12UnitTestImplEbEET0_PT_MS4_FS3_vEPKc
   fun:_ZN7testing8UnitTest3RunEv
   fun:_Z13RUN_ALL_TESTSv
}
{
   <insert_a_suppression_name_here>
   Memcheck:Cond
   fun:_ZN3bzn4asio13smart_mock_io8shutdownEv
   fun:_ZN13session_test2D1Ev
   fun:_ZN3bzn71session_test2_additional_shutdown_handlers_can_be_added_to_session_TestD1Ev
   fun:_ZN3bzn71session_test2_additional_shutdown_handlers_can_be_added_to_session_TestD0Ev
   fun:_ZN7testing4Test11DeleteSelf_Ev
   fun:_ZN7testing8internal38HandleSehExceptionsInMethodIfSupportedINS_4TestEvEET0_PT_MS4_FS3_vEPKc
   fun:_ZN7testing8internal35HandleExceptionsInMethodIfSupportedINS_4TestEvEET0_PT_MS4_FS3_vEPKc
   fun:_ZN7testing8TestInfo3RunEv
   fun:_ZN7testing8TestCase3RunEv
   fun:_ZN7testing8internal12UnitTestImpl11RunAllTestsEv
   fun:_ZN7testing8internal38HandleSehExceptionsInMethodIfSupportedINS0_12UnitTestImplEbEET0_PT_MS4_FS3_vEPKc
   fun:_ZN7testing8internal35HandleExceptionsInMethodIfSupportedINS0_12UnitTestImplEbEET0_PT_MS4_FS3_vEPKc
}
{
   <insert_a_suppression_name_here>
   Memcheck:Leak
   match-leak-kinds: reachable
   fun:_Znwm
   fun:_ZN6google8protobuf14DescriptorPool6Tables19AllocateOnceDynamicEv
   fun:_ZN6google8protobuf17DescriptorBuilder13BuildFileImplERKNS0_19FileDescriptorProtoE
   fun:_ZN6google8protobuf17DescriptorBuilder9BuildFileERKNS0_19FileDescriptorProtoE
   fun:_ZNK6google8protobuf14DescriptorPool21BuildFileFromDatabaseERKNS0_19FileDescriptorProtoE
   fun:_ZNK6google8protobuf14DescriptorPool29TryFindFileInFallbackDatabaseERKNSt7__cxx1112basic_stringIcSt11char_traitsIcESaIcEEE
   fun:_ZNK6google8protobuf14DescriptorPool14FindFileByNameERKNSt7__cxx1112basic_stringIcSt11char_traitsIcESaIcEEE
   fun:_ZN6google8protobuf8internal17AssignDescriptorsERKNSt7__cxx1112basic_stringIcSt11char_traitsIcESaIcEEEPKNS1_15MigrationSchemaEPKPKNS0_7MessageEPKjPNS0_8MetadataEPPKNS0_14EnumDescriptorEPPKNS0_17ServiceDescriptorE
   fun:_ZN25protobuf_bluzelle_2eproto26protobuf_AssignDescriptorsEv
   fun:_ZSt13__invoke_implIvRFvvEJEET_St14__invoke_otherOT0_DpOT1_
   fun:_ZSt8__invokeIRFvvEJEENSt15__invoke_resultIT_JDpT0_EE4typeEOS3_DpOS4_
   fun:_ZZSt9call_onceIRFvvEJEEvRSt9once_flagOT_DpOT0_ENKUlvE_clEv
}
{
   <insert_a_suppression_name_here>
   Memcheck:Leak
   match-leak-kinds: reachable
   fun:_Znwm
   fun:_ZN5boost3log12v2s_mt_posix7sources3aux18get_severity_levelEv
   fun:_ZN5boost3log12v2s_mt_posix7sources3aux14severity_levelINS1_7trivial14severity_levelEE9set_valueES6_
   fun:_ZN5boost3log12v2s_mt_posix7sources21basic_severity_loggerINS2_12basic_loggerIcNS2_18severity_logger_mtINS1_7trivial14severity_levelEEENS2_18multi_thread_modelINS1_3aux14light_rw_mutexEEEEES7_E20open_record_unlockedINS_9parameter3aux15tagged_argumentINS1_8keywords3tag8severityEKS7_EEEENS1_6recordERKT_
   fun:_ZN5boost3log12v2s_mt_posix7sources22basic_composite_loggerIcNS2_18severity_logger_mtINS1_7trivial14severity_levelEEENS2_18multi_thread_modelINS1_3aux14light_rw_mutexEEENS2_8featuresIJNS2_8severityIS6_EEEEEE11open_recordINS_9parameter3aux15tagged_argumentINS1_8keywords3tag8severityEKS6_EEEENS1_6recordERKT_
   fun:_ZN3bzn4node20register_for_messageEN12bzn_envelope11PayloadCaseESt8functionIFvRKS1_St10shared_ptrINS_12session_baseEEEE
   fun:_ZN3bzn69node_test_that_registering_message_handler_can_only_be_done_once_Test8TestBodyEv
   fun:_ZN7testing8internal38HandleSehExceptionsInMethodIfSupportedINS_4TestEvEET0_PT_MS4_FS3_vEPKc
   fun:_ZN7testing8internal35HandleExceptionsInMethodIfSupportedINS_4TestEvEET0_PT_MS4_FS3_vEPKc
   fun:_ZN7testing4Test3RunEv
   fun:_ZN7testing8TestInfo3RunEv
   fun:_ZN7testing8TestCase3RunEv
}
{
   <insert_a_suppression_name_here>
   Memcheck:Leak
   match-leak-kinds: reachable
   fun:_Znwm
   fun:_ZN5boost3log12v2s_mt_posix3aux11this_thread6get_idEv
   fun:_ZN5boost3log12v2s_mt_posix4core14implementation11thread_data15get_random_seedEv
   fun:_ZN5boost3log12v2s_mt_posix4core14implementation11thread_dataC1Ev
   fun:_ZN5boost3log12v2s_mt_posix4core14implementation16init_thread_dataEv
   fun:_ZN5boost3log12v2s_mt_posix4core14implementation15get_thread_dataEv
   fun:open_record<const boost::log::v2s_mt_posix::attribute_set&>
   fun:_ZN5boost3log12v2s_mt_posix4core11open_recordERKNS1_13attribute_setE
   fun:_ZN5boost3log12v2s_mt_posix7sources12basic_loggerIcNS2_18severity_logger_mtINS1_7trivial14severity_levelEEENS2_18multi_thread_modelINS1_3aux14light_rw_mutexEEEE20open_record_unlockedINS_9parameter3aux15tagged_argumentINS1_8keywords3tag8severityEKS6_EEEENS1_6recordERKT_
   fun:_ZN5boost3log12v2s_mt_posix7sources21basic_severity_loggerINS2_12basic_loggerIcNS2_18severity_logger_mtINS1_7trivial14severity_levelEEENS2_18multi_thread_modelINS1_3aux14light_rw_mutexEEEEES7_E20open_record_unlockedINS_9parameter3aux15tagged_argumentINS1_8keywords3tag8severityEKS7_EEEENS1_6recordERKT_
   fun:_ZN5boost3log12v2s_mt_posix7sources22basic_composite_loggerIcNS2_18severity_logger_mtINS1_7trivial14severity_levelEEENS2_18multi_thread_modelINS1_3aux14light_rw_mutexEEENS2_8featuresIJNS2_8severityIS6_EEEEEE11open_recordINS_9parameter3aux15tagged_argumentINS1_8keywords3tag8severityEKS6_EEEENS1_6recordERKT_
   fun:_ZN3bzn4node20register_for_messageEN12bzn_envelope11PayloadCaseESt8functionIFvRKS1_St10shared_ptrINS_12session_baseEEEE
   fun:_ZN3bzn69node_test_that_registering_message_handler_can_only_be_done_once_Test8TestBodyEv
}
{
   <insert_a_suppression_name_here>
   Memcheck:Leak
   match-leak-kinds: reachable
   fun:_Znwm
   fun:_ZNSt6vectorIPN6google8protobuf20FileDescriptorTablesESaIS3_EE17_M_realloc_insertIJRKS3_EEEvN9__gnu_cxx17__normal_iteratorIPS3_S5_EEDpOT_
   fun:_ZN6google8protobuf14DescriptorPool6Tables18AllocateFileTablesEv
   fun:_ZN6google8protobuf17DescriptorBuilder13BuildFileImplERKNS0_19FileDescriptorProtoE
   fun:_ZN6google8protobuf17DescriptorBuilder9BuildFileERKNS0_19FileDescriptorProtoE
   fun:_ZNK6google8protobuf14DescriptorPool21BuildFileFromDatabaseERKNS0_19FileDescriptorProtoE
   fun:_ZNK6google8protobuf14DescriptorPool29TryFindFileInFallbackDatabaseERKNSt7__cxx1112basic_stringIcSt11char_traitsIcESaIcEEE
   fun:_ZNK6google8protobuf14DescriptorPool14FindFileByNameERKNSt7__cxx1112basic_stringIcSt11char_traitsIcESaIcEEE
   fun:_ZN6google8protobuf8internal17AssignDescriptorsERKNSt7__cxx1112basic_stringIcSt11char_traitsIcESaIcEEEPKNS1_15MigrationSchemaEPKPKNS0_7MessageEPKjPNS0_8MetadataEPPKNS0_14EnumDescriptorEPPKNS0_17ServiceDescriptorE
   fun:_ZN25protobuf_bluzelle_2eproto26protobuf_AssignDescriptorsEv
   fun:_ZSt13__invoke_implIvRFvvEJEET_St14__invoke_otherOT0_DpOT1_
   fun:_ZSt8__invokeIRFvvEJEENSt15__invoke_resultIT_JDpT0_EE4typeEOS3_DpOS4_
}
{
   <insert_a_suppression_name_here>
   Memcheck:Leak
   match-leak-kinds: reachable
   fun:_Znwm
   obj:/usr/lib/x86_64-linux-gnu/libprotobuf.so.17.0.0
   fun:_ZN6google8protobuf14DescriptorPool6Tables7AddFileEPKNS0_14FileDescriptorE
   fun:_ZN6google8protobuf17DescriptorBuilder13BuildFileImplERKNS0_19FileDescriptorProtoE
   fun:_ZN6google8protobuf17DescriptorBuilder9BuildFileERKNS0_19FileDescriptorProtoE
   fun:_ZNK6google8protobuf14DescriptorPool21BuildFileFromDatabaseERKNS0_19FileDescriptorProtoE
   fun:_ZNK6google8protobuf14DescriptorPool29TryFindFileInFallbackDatabaseERKNSt7__cxx1112basic_stringIcSt11char_traitsIcESaIcEEE
   fun:_ZNK6google8protobuf14DescriptorPool14FindFileByNameERKNSt7__cxx1112basic_stringIcSt11char_traitsIcESaIcEEE
   fun:_ZN6google8protobuf8internal17AssignDescriptorsERKNSt7__cxx1112basic_stringIcSt11char_traitsIcESaIcEEEPKNS1_15MigrationSchemaEPKPKNS0_7MessageEPKjPNS0_8MetadataEPPKNS0_14EnumDescriptorEPPKNS0_17ServiceDescriptorE
   fun:_ZN25protobuf_bluzelle_2eproto26protobuf_AssignDescriptorsEv
   fun:_ZSt13__invoke_implIvRFvvEJEET_St14__invoke_otherOT0_DpOT1_
   fun:_ZSt8__invokeIRFvvEJEENSt15__invoke_resultIT_JDpT0_EE4typeEOS3_DpOS4_
}
{
   <insert_a_suppression_name_here>
   Memcheck:Leak
   match-leak-kinds: reachable
   fun:_Znwm
   fun:_ZN6google8protobuf15UnknownFieldSet16default_instanceEv
   fun:_ZNK6google8protobuf10TextFormat7Printer5PrintERKNS0_7MessageEPNS2_13TextGeneratorE
   fun:_ZNK6google8protobuf10TextFormat7Printer5PrintERKNS0_7MessageEPNS0_2io20ZeroCopyOutputStreamE
   fun:_ZNK6google8protobuf10TextFormat7Printer13PrintToStringERKNS0_7MessageEPNSt7__cxx1112basic_stringIcSt11char_traitsIcESaIcEEE
   fun:_ZNK6google8protobuf7Message16ShortDebugStringB5cxx11Ev
   fun:_ZN3bzn4node21priv_protobuf_handlerERK12bzn_envelopeSt10shared_ptrINS_12session_baseEE
   fun:_ZN3bzn55node_test_that_wrongly_signed_messages_are_dropped_Test8TestBodyEv
   fun:_ZN7testing8internal38HandleSehExceptionsInMethodIfSupportedINS_4TestEvEET0_PT_MS4_FS3_vEPKc
   fun:_ZN7testing8internal35HandleExceptionsInMethodIfSupportedINS_4TestEvEET0_PT_MS4_FS3_vEPKc
   fun:_ZN7testing4Test3RunEv
   fun:_ZN7testing8TestInfo3RunEv
}
{
   <insert_a_suppression_name_here>
   Memcheck:Leak
   match-leak-kinds: reachable
   fun:_Znwm
   obj:/usr/lib/x86_64-linux-gnu/libprotobuf.so.17.0.0
   obj:/usr/lib/x86_64-linux-gnu/libprotobuf.so.17.0.0
   fun:_ZN6google8protobuf14MessageFactory29InternalRegisterGeneratedFileEPKcPFvRKNSt7__cxx1112basic_stringIcSt11char_traitsIcESaIcEEEE
   fun:__pthread_once_slow
   obj:/usr/lib/x86_64-linux-gnu/libprotobuf.so.17.0.0
   fun:call_init
   fun:_dl_init
   obj:/lib/x86_64-linux-gnu/ld-2.27.so
}
{
   <insert_a_suppression_name_here>
   Memcheck:Leak
   match-leak-kinds: reachable
   fun:_Znwm
   fun:_ZN5boost6detail8heap_newINS0_25thread_exit_callback_nodeERPNS0_25thread_exit_function_baseERPS2_EEPT_OT0_OT1_
   fun:_ZN5boost6detail24add_thread_exit_functionEPNS0_25thread_exit_function_baseE
   fun:_ZN5boost11this_thread14at_thread_exitINS_3_bi6bind_tINS2_11unspecifiedENS_15checked_deleterImEENS2_5list1INS2_5valueIPmEEEEEEEEvT_
   fun:_ZN5boost3log12v2s_mt_posix7sources3aux18get_severity_levelEv
   fun:_ZN5boost3log12v2s_mt_posix7sources3aux14severity_levelINS1_7trivial14severity_levelEE9set_valueES6_
   fun:_ZN5boost3log12v2s_mt_posix7sources21basic_severity_loggerINS2_12basic_loggerIcNS2_18severity_logger_mtINS1_7trivial14severity_levelEEENS2_18multi_thread_modelINS1_3aux14light_rw_mutexEEEEES7_E20open_record_unlockedINS_9parameter3aux15tagged_argumentINS1_8keywords3tag8severityEKS7_EEEENS1_6recordERKT_
   fun:_ZN5boost3log12v2s_mt_posix7sources22basic_composite_loggerIcNS2_18severity_logger_mtINS1_7trivial14severity_levelEEENS2_18multi_thread_modelINS1_3aux14light_rw_mutexEEENS2_8featuresIJNS2_8severityIS6_EEEEEE11open_recordINS_9parameter3aux15tagged_argumentINS1_8keywords3tag8severityEKS6_EEEENS1_6recordERKT_
   fun:_ZN3bzn4node20register_for_messageEN12bzn_envelope11PayloadCaseESt8functionIFvRKS1_St10shared_ptrINS_12session_baseEEEE
   fun:_ZN3bzn69node_test_that_registering_message_handler_can_only_be_done_once_Test8TestBodyEv
   fun:_ZN7testing8internal38HandleSehExceptionsInMethodIfSupportedINS_4TestEvEET0_PT_MS4_FS3_vEPKc
   fun:_ZN7testing8internal35HandleExceptionsInMethodIfSupportedINS_4TestEvEET0_PT_MS4_FS3_vEPKc
}
{
   <insert_a_suppression_name_here>
   Memcheck:Leak
   match-leak-kinds: reachable
   fun:_Znwm
   fun:_ZNSt6vectorISt4pairIPKN6google8protobuf8MetadataES5_ESaIS6_EE17_M_realloc_insertIJS6_EEEvN9__gnu_cxx17__normal_iteratorIPS6_S8_EEDpOT_
   fun:_ZN6google8protobuf8internal17AssignDescriptorsERKNSt7__cxx1112basic_stringIcSt11char_traitsIcESaIcEEEPKNS1_15MigrationSchemaEPKPKNS0_7MessageEPKjPNS0_8MetadataEPPKNS0_14EnumDescriptorEPPKNS0_17ServiceDescriptorE
   fun:_ZN25protobuf_bluzelle_2eproto26protobuf_AssignDescriptorsEv
   fun:_ZSt13__invoke_implIvRFvvEJEET_St14__invoke_otherOT0_DpOT1_
   fun:_ZSt8__invokeIRFvvEJEENSt15__invoke_resultIT_JDpT0_EE4typeEOS3_DpOS4_
   fun:_ZZSt9call_onceIRFvvEJEEvRSt9once_flagOT_DpOT0_ENKUlvE_clEv
   fun:_ZZSt9call_onceIRFvvEJEEvRSt9once_flagOT_DpOT0_ENKUlvE0_clEv
   fun:_ZZSt9call_onceIRFvvEJEEvRSt9once_flagOT_DpOT0_ENUlvE0_4_FUNEv
   fun:__pthread_once_slow
   fun:_ZL14__gthread_oncePiPFvvE
   fun:_ZSt9call_onceIRFvvEJEEvRSt9once_flagOT_DpOT0_
}
{
   <insert_a_suppression_name_here>
   Memcheck:Leak
   match-leak-kinds: reachable
   fun:_Znwm
   fun:_ZN9__gnu_cxx13new_allocatorIcE8allocateEmPKv
   fun:_ZNSt16allocator_traitsISaIcEE8allocateERS0_m
   fun:_ZNSt7__cxx1112basic_stringIcSt11char_traitsIcESaIcEE9_M_createERmm
   obj:/usr/lib/x86_64-linux-gnu/libprotobuf.so.17.0.0
   obj:/usr/lib/x86_64-linux-gnu/libprotobuf.so.17.0.0
   fun:_ZN6google8protobuf24SimpleDescriptorDatabase15DescriptorIndexISt4pairIPKviEE9AddSymbolERKNSt7__cxx1112basic_stringIcSt11char_traitsIcESaIcEEES6_
   fun:_ZN6google8protobuf24SimpleDescriptorDatabase15DescriptorIndexISt4pairIPKviEE7AddFileERKNS0_19FileDescriptorProtoES6_
   fun:_ZN6google8protobuf25EncodedDescriptorDatabase3AddEPKvi
   fun:_ZN6google8protobuf14DescriptorPool24InternalAddGeneratedFileEPKvi
   fun:_ZN40protobuf_google_2fprotobuf_2fany_2eproto18AddDescriptorsImplEv
   fun:__pthread_once_slow
}
{
   <insert_a_suppression_name_here>
   Memcheck:Leak
   match-leak-kinds: reachable
   fun:_Znwm
   fun:_ZN9__gnu_cxx13new_allocatorIcE8allocateEmPKv
   fun:_ZNSt16allocator_traitsISaIcEE8allocateERS0_m
   fun:_ZNSt7__cxx1112basic_stringIcSt11char_traitsIcESaIcEE9_M_createERmm
   obj:/usr/lib/x86_64-linux-gnu/libprotobuf.so.17.0.0
   obj:/usr/lib/x86_64-linux-gnu/libprotobuf.so.17.0.0
   fun:_ZN6google8protobuf24SimpleDescriptorDatabase15DescriptorIndexISt4pairIPKviEE9AddSymbolERKNSt7__cxx1112basic_stringIcSt11char_traitsIcESaIcEEES6_
   fun:_ZN6google8protobuf24SimpleDescriptorDatabase15DescriptorIndexISt4pairIPKviEE7AddFileERKNS0_19FileDescriptorProtoES6_
   fun:_ZN6google8protobuf25EncodedDescriptorDatabase3AddEPKvi
   fun:_ZN6google8protobuf14DescriptorPool24InternalAddGeneratedFileEPKvi
   fun:_ZN21protobuf_pbft_2eproto18AddDescriptorsImplEv
   fun:_ZSt13__invoke_implIvRFvvEJEET_St14__invoke_otherOT0_DpOT1_
}
{
   <insert_a_suppression_name_here>
   Memcheck:Leak
   match-leak-kinds: reachable
   fun:_Znwm
   fun:_ZN9__gnu_cxx13new_allocatorIcE8allocateEmPKv
   fun:_ZNSt16allocator_traitsISaIcEE8allocateERS0_m
   fun:_ZNSt7__cxx1112basic_stringIcSt11char_traitsIcESaIcEE9_M_createERmm
   obj:/usr/lib/x86_64-linux-gnu/libprotobuf.so.17.0.0
   obj:/usr/lib/x86_64-linux-gnu/libprotobuf.so.17.0.0
   fun:_ZN6google8protobuf24SimpleDescriptorDatabase15DescriptorIndexISt4pairIPKviEE9AddSymbolERKNSt7__cxx1112basic_stringIcSt11char_traitsIcESaIcEEES6_
   fun:_ZN6google8protobuf24SimpleDescriptorDatabase15DescriptorIndexISt4pairIPKviEE7AddFileERKNS0_19FileDescriptorProtoES6_
   fun:_ZN6google8protobuf25EncodedDescriptorDatabase3AddEPKvi
   fun:_ZN6google8protobuf14DescriptorPool24InternalAddGeneratedFileEPKvi
   fun:_ZN42protobuf_google_2fprotobuf_2fempty_2eproto18AddDescriptorsImplEv
   fun:__pthread_once_slow
}
{
   <insert_a_suppression_name_here>
   Memcheck:Leak
   match-leak-kinds: reachable
   fun:_Znwm
   fun:_ZN9__gnu_cxx13new_allocatorIcE8allocateEmPKv
   fun:_ZNSt16allocator_traitsISaIcEE8allocateERS0_m
   fun:_ZNSt7__cxx1112basic_stringIcSt11char_traitsIcESaIcEE9_M_createERmm
   obj:/usr/lib/x86_64-linux-gnu/libprotobuf.so.17.0.0
   obj:/usr/lib/x86_64-linux-gnu/libprotobuf.so.17.0.0
   fun:_ZN6google8protobuf24SimpleDescriptorDatabase15DescriptorIndexISt4pairIPKviEE9AddSymbolERKNSt7__cxx1112basic_stringIcSt11char_traitsIcESaIcEEES6_
   fun:_ZN6google8protobuf24SimpleDescriptorDatabase15DescriptorIndexISt4pairIPKviEE7AddFileERKNS0_19FileDescriptorProtoES6_
   fun:_ZN6google8protobuf25EncodedDescriptorDatabase3AddEPKvi
   fun:_ZN6google8protobuf14DescriptorPool24InternalAddGeneratedFileEPKvi
   fun:_ZN41protobuf_google_2fprotobuf_2ftype_2eproto18AddDescriptorsImplEv
   fun:__pthread_once_slow
}
{
   <insert_a_suppression_name_here>
   Memcheck:Leak
   match-leak-kinds: reachable
   fun:_Znwm
   fun:_ZN5boost6detail8heap_newINS0_20thread_exit_functionINS_3_bi6bind_tINS3_11unspecifiedENS_15checked_deleterImEENS3_5list1INS3_5valueIPmEEEEEEEERSD_EEPT_OT0_
   fun:_ZN5boost11this_thread14at_thread_exitINS_3_bi6bind_tINS2_11unspecifiedENS_15checked_deleterImEENS2_5list1INS2_5valueIPmEEEEEEEEvT_
   fun:_ZN5boost3log12v2s_mt_posix7sources3aux18get_severity_levelEv
   fun:_ZN5boost3log12v2s_mt_posix7sources3aux14severity_levelINS1_7trivial14severity_levelEE9set_valueES6_
   fun:_ZN5boost3log12v2s_mt_posix7sources21basic_severity_loggerINS2_12basic_loggerIcNS2_18severity_logger_mtINS1_7trivial14severity_levelEEENS2_18multi_thread_modelINS1_3aux14light_rw_mutexEEEEES7_E20open_record_unlockedINS_9parameter3aux15tagged_argumentINS1_8keywords3tag8severityEKS7_EEEENS1_6recordERKT_
   fun:_ZN5boost3log12v2s_mt_posix7sources22basic_composite_loggerIcNS2_18severity_logger_mtINS1_7trivial14severity_levelEEENS2_18multi_thread_modelINS1_3aux14light_rw_mutexEEENS2_8featuresIJNS2_8severityIS6_EEEEEE11open_recordINS_9parameter3aux15tagged_argumentINS1_8keywords3tag8severityEKS6_EEEENS1_6recordERKT_
   fun:_ZN3bzn4node20register_for_messageEN12bzn_envelope11PayloadCaseESt8functionIFvRKS1_St10shared_ptrINS_12session_baseEEEE
   fun:_ZN3bzn69node_test_that_registering_message_handler_can_only_be_done_once_Test8TestBodyEv
   fun:_ZN7testing8internal38HandleSehExceptionsInMethodIfSupportedINS_4TestEvEET0_PT_MS4_FS3_vEPKc
   fun:_ZN7testing8internal35HandleExceptionsInMethodIfSupportedINS_4TestEvEET0_PT_MS4_FS3_vEPKc
   fun:_ZN7testing4Test3RunEv
}
{
   <insert_a_suppression_name_here>
   Memcheck:Leak
   match-leak-kinds: reachable
   fun:_Znwm
   fun:_ZN5boost6detail12shared_countC1INS0_16thread_data_baseEEEPT_
   fun:_ZN5boost6detail20sp_pointer_constructINS0_16thread_data_baseES2_EEvPNS_10shared_ptrIT_EEPT0_RNS0_12shared_countE
   fun:_ZN5boost10shared_ptrINS_6detail16thread_data_baseEEC1IS2_EEPT_
   fun:_ZN5boost10shared_ptrINS_6detail16thread_data_baseEE5resetIS2_EEvPT_
   fun:_ZN5boost6detail25make_external_thread_dataEv
   fun:_ZN5boost6detail31get_or_make_current_thread_dataEv
   fun:_ZN5boost6detail24add_thread_exit_functionEPNS0_25thread_exit_function_baseE
   fun:_ZN5boost11this_thread14at_thread_exitINS_3_bi6bind_tINS2_11unspecifiedENS_15checked_deleterImEENS2_5list1INS2_5valueIPmEEEEEEEEvT_
   fun:_ZN5boost3log12v2s_mt_posix7sources3aux18get_severity_levelEv
   fun:_ZN5boost3log12v2s_mt_posix7sources3aux14severity_levelINS1_7trivial14severity_levelEE9set_valueES6_
   fun:_ZN5boost3log12v2s_mt_posix7sources21basic_severity_loggerINS2_12basic_loggerIcNS2_18severity_logger_mtINS1_7trivial14severity_levelEEENS2_18multi_thread_modelINS1_3aux14light_rw_mutexEEEEES7_E20open_record_unlockedINS_9parameter3aux15tagged_argumentINS1_8keywords3tag8severityEKS7_EEEENS1_6recordERKT_
}
{
   <insert_a_suppression_name_here>
   Memcheck:Leak
   match-leak-kinds: reachable
   fun:_Znwm
   fun:_ZN9__gnu_cxx13new_allocatorIcE8allocateEmPKv
   fun:_ZNSt16allocator_traitsISaIcEE8allocateERS0_m
   fun:_ZNSt7__cxx1112basic_stringIcSt11char_traitsIcESaIcEE9_M_createERmm
   obj:/usr/lib/x86_64-linux-gnu/libprotobuf.so.17.0.0
   obj:/usr/lib/x86_64-linux-gnu/libprotobuf.so.17.0.0
   fun:_ZN6google8protobuf24SimpleDescriptorDatabase15DescriptorIndexISt4pairIPKviEE9AddSymbolERKNSt7__cxx1112basic_stringIcSt11char_traitsIcESaIcEEES6_
   fun:_ZN6google8protobuf24SimpleDescriptorDatabase15DescriptorIndexISt4pairIPKviEE7AddFileERKNS0_19FileDescriptorProtoES6_
   fun:_ZN6google8protobuf25EncodedDescriptorDatabase3AddEPKvi
   fun:_ZN6google8protobuf14DescriptorPool24InternalAddGeneratedFileEPKvi
   fun:_ZN45protobuf_google_2fprotobuf_2fduration_2eproto18AddDescriptorsImplEv
   fun:__pthread_once_slow
}
{
   <insert_a_suppression_name_here>
   Memcheck:Leak
   match-leak-kinds: reachable
   fun:_Znwm
   fun:_ZN9__gnu_cxx13new_allocatorIcE8allocateEmPKv
   fun:_ZNSt16allocator_traitsISaIcEE8allocateERS0_m
   fun:_ZNSt7__cxx1112basic_stringIcSt11char_traitsIcESaIcEE9_M_createERmm
   obj:/usr/lib/x86_64-linux-gnu/libprotobuf.so.17.0.0
   fun:_ZN6google8protobuf18InsertIfNotPresentISt3mapINSt7__cxx1112basic_stringIcSt11char_traitsIcESaIcEEESt4pairIPKviESt4lessIS8_ESaIS9_IKS8_SC_EEEEEbPT_RKNSJ_10value_type10first_typeERKNSL_11second_typeE
   fun:_ZN6google8protobuf24SimpleDescriptorDatabase15DescriptorIndexISt4pairIPKviEE7AddFileERKNS0_19FileDescriptorProtoES6_
   fun:_ZN6google8protobuf25EncodedDescriptorDatabase3AddEPKvi
   fun:_ZN6google8protobuf14DescriptorPool24InternalAddGeneratedFileEPKvi
   fun:_ZN40protobuf_google_2fprotobuf_2fany_2eproto18AddDescriptorsImplEv
   fun:__pthread_once_slow
   obj:/usr/lib/x86_64-linux-gnu/libprotobuf.so.17.0.0
}
{
   <insert_a_suppression_name_here>
   Memcheck:Leak
   match-leak-kinds: reachable
   fun:_Znwm
   fun:_ZN9__gnu_cxx13new_allocatorIcE8allocateEmPKv
   fun:_ZNSt16allocator_traitsISaIcEE8allocateERS0_m
   fun:_ZNSt7__cxx1112basic_stringIcSt11char_traitsIcESaIcEE9_M_createERmm
   obj:/usr/lib/x86_64-linux-gnu/libprotobuf.so.17.0.0
   fun:_ZN6google8protobuf18InsertIfNotPresentISt3mapINSt7__cxx1112basic_stringIcSt11char_traitsIcESaIcEEESt4pairIPKviESt4lessIS8_ESaIS9_IKS8_SC_EEEEEbPT_RKNSJ_10value_type10first_typeERKNSL_11second_typeE
   fun:_ZN6google8protobuf24SimpleDescriptorDatabase15DescriptorIndexISt4pairIPKviEE7AddFileERKNS0_19FileDescriptorProtoES6_
   fun:_ZN6google8protobuf25EncodedDescriptorDatabase3AddEPKvi
   fun:_ZN6google8protobuf14DescriptorPool24InternalAddGeneratedFileEPKvi
   fun:_ZN40protobuf_google_2fprotobuf_2fapi_2eproto18AddDescriptorsImplEv
   fun:__pthread_once_slow
   obj:/usr/lib/x86_64-linux-gnu/libprotobuf.so.17.0.0
}
{
   <insert_a_suppression_name_here>
   Memcheck:Leak
   match-leak-kinds: reachable
   fun:_Znwm
   fun:_ZN9__gnu_cxx13new_allocatorIcE8allocateEmPKv
   fun:_ZNSt16allocator_traitsISaIcEE8allocateERS0_m
   fun:_ZNSt7__cxx1112basic_stringIcSt11char_traitsIcESaIcEE9_M_createERmm
   obj:/usr/lib/x86_64-linux-gnu/libprotobuf.so.17.0.0
   obj:/usr/lib/x86_64-linux-gnu/libprotobuf.so.17.0.0
   fun:_ZN6google8protobuf24SimpleDescriptorDatabase15DescriptorIndexISt4pairIPKviEE9AddSymbolERKNSt7__cxx1112basic_stringIcSt11char_traitsIcESaIcEEES6_
   fun:_ZN6google8protobuf24SimpleDescriptorDatabase15DescriptorIndexISt4pairIPKviEE7AddFileERKNS0_19FileDescriptorProtoES6_
   fun:_ZN6google8protobuf25EncodedDescriptorDatabase3AddEPKvi
   fun:_ZN6google8protobuf14DescriptorPool24InternalAddGeneratedFileEPKvi
   fun:_ZN49protobuf_google_2fprotobuf_2ffield_5fmask_2eproto18AddDescriptorsImplEv
   fun:__pthread_once_slow
}
{
   <insert_a_suppression_name_here>
   Memcheck:Leak
   match-leak-kinds: reachable
   fun:_Znwm
   fun:_ZN9__gnu_cxx13new_allocatorIcE8allocateEmPKv
   fun:_ZNSt16allocator_traitsISaIcEE8allocateERS0_m
   fun:_ZNSt7__cxx1112basic_stringIcSt11char_traitsIcESaIcEE9_M_createERmm
   obj:/usr/lib/x86_64-linux-gnu/libprotobuf.so.17.0.0
   obj:/usr/lib/x86_64-linux-gnu/libprotobuf.so.17.0.0
   fun:_ZN6google8protobuf24SimpleDescriptorDatabase15DescriptorIndexISt4pairIPKviEE9AddSymbolERKNSt7__cxx1112basic_stringIcSt11char_traitsIcESaIcEEES6_
   fun:_ZN6google8protobuf24SimpleDescriptorDatabase15DescriptorIndexISt4pairIPKviEE7AddFileERKNS0_19FileDescriptorProtoES6_
   fun:_ZN6google8protobuf25EncodedDescriptorDatabase3AddEPKvi
   fun:_ZN6google8protobuf14DescriptorPool24InternalAddGeneratedFileEPKvi
   fun:_ZN43protobuf_google_2fprotobuf_2fstruct_2eproto18AddDescriptorsImplEv
   fun:__pthread_once_slow
}
{
   <insert_a_suppression_name_here>
   Memcheck:Leak
   match-leak-kinds: reachable
   fun:_Znwm
   fun:_ZN9__gnu_cxx13new_allocatorIcE8allocateEmPKv
   fun:_ZNSt16allocator_traitsISaIcEE8allocateERS0_m
   fun:_ZNSt7__cxx1112basic_stringIcSt11char_traitsIcESaIcEE9_M_createERmm
   obj:/usr/lib/x86_64-linux-gnu/libprotobuf.so.17.0.0
   obj:/usr/lib/x86_64-linux-gnu/libprotobuf.so.17.0.0
   fun:_ZN6google8protobuf24SimpleDescriptorDatabase15DescriptorIndexISt4pairIPKviEE9AddSymbolERKNSt7__cxx1112basic_stringIcSt11char_traitsIcESaIcEEES6_
   fun:_ZN6google8protobuf24SimpleDescriptorDatabase15DescriptorIndexISt4pairIPKviEE7AddFileERKNS0_19FileDescriptorProtoES6_
   fun:_ZN6google8protobuf25EncodedDescriptorDatabase3AddEPKvi
   fun:_ZN6google8protobuf14DescriptorPool24InternalAddGeneratedFileEPKvi
   fun:_ZN46protobuf_google_2fprotobuf_2ftimestamp_2eproto18AddDescriptorsImplEv
   fun:__pthread_once_slow
}
{
   <insert_a_suppression_name_here>
   Memcheck:Leak
   match-leak-kinds: reachable
   fun:_Znwm
   fun:_ZN9__gnu_cxx13new_allocatorIcE8allocateEmPKv
   fun:_ZNSt16allocator_traitsISaIcEE8allocateERS0_m
   fun:_ZNSt7__cxx1112basic_stringIcSt11char_traitsIcESaIcEE9_M_createERmm
   obj:/usr/lib/x86_64-linux-gnu/libprotobuf.so.17.0.0
   fun:_ZN6google8protobuf18InsertIfNotPresentISt3mapINSt7__cxx1112basic_stringIcSt11char_traitsIcESaIcEEESt4pairIPKviESt4lessIS8_ESaIS9_IKS8_SC_EEEEEbPT_RKNSJ_10value_type10first_typeERKNSL_11second_typeE
   fun:_ZN6google8protobuf24SimpleDescriptorDatabase15DescriptorIndexISt4pairIPKviEE7AddFileERKNS0_19FileDescriptorProtoES6_
   fun:_ZN6google8protobuf25EncodedDescriptorDatabase3AddEPKvi
   fun:_ZN6google8protobuf14DescriptorPool24InternalAddGeneratedFileEPKvi
   fun:_ZN41protobuf_google_2fprotobuf_2ftype_2eproto18AddDescriptorsImplEv
   fun:__pthread_once_slow
   obj:/usr/lib/x86_64-linux-gnu/libprotobuf.so.17.0.0
}
{
   <insert_a_suppression_name_here>
   Memcheck:Leak
   match-leak-kinds: reachable
   fun:_Znwm
   fun:_ZN9__gnu_cxx13new_allocatorIcE8allocateEmPKv
   fun:_ZNSt16allocator_traitsISaIcEE8allocateERS0_m
   fun:_ZNSt7__cxx1112basic_stringIcSt11char_traitsIcESaIcEE9_M_createERmm
   obj:/usr/lib/x86_64-linux-gnu/libprotobuf.so.17.0.0
   fun:_ZN6google8protobuf18InsertIfNotPresentISt3mapINSt7__cxx1112basic_stringIcSt11char_traitsIcESaIcEEESt4pairIPKviESt4lessIS8_ESaIS9_IKS8_SC_EEEEEbPT_RKNSJ_10value_type10first_typeERKNSL_11second_typeE
   fun:_ZN6google8protobuf24SimpleDescriptorDatabase15DescriptorIndexISt4pairIPKviEE7AddFileERKNS0_19FileDescriptorProtoES6_
   fun:_ZN6google8protobuf25EncodedDescriptorDatabase3AddEPKvi
   fun:_ZN6google8protobuf14DescriptorPool24InternalAddGeneratedFileEPKvi
   fun:_ZN42protobuf_google_2fprotobuf_2fempty_2eproto18AddDescriptorsImplEv
   fun:__pthread_once_slow
   obj:/usr/lib/x86_64-linux-gnu/libprotobuf.so.17.0.0
}
{
   <insert_a_suppression_name_here>
   Memcheck:Leak
   match-leak-kinds: reachable
   fun:_Znwm
   fun:_ZN9__gnu_cxx13new_allocatorIcE8allocateEmPKv
   fun:_ZNSt16allocator_traitsISaIcEE8allocateERS0_m
   fun:_ZNSt7__cxx1112basic_stringIcSt11char_traitsIcESaIcEE9_M_createERmm
   obj:/usr/lib/x86_64-linux-gnu/libprotobuf.so.17.0.0
   fun:_ZN6google8protobuf18InsertIfNotPresentISt3mapINSt7__cxx1112basic_stringIcSt11char_traitsIcESaIcEEESt4pairIPKviESt4lessIS8_ESaIS9_IKS8_SC_EEEEEbPT_RKNSJ_10value_type10first_typeERKNSL_11second_typeE
   fun:_ZN6google8protobuf24SimpleDescriptorDatabase15DescriptorIndexISt4pairIPKviEE7AddFileERKNS0_19FileDescriptorProtoES6_
   fun:_ZN6google8protobuf25EncodedDescriptorDatabase3AddEPKvi
   fun:_ZN6google8protobuf14DescriptorPool24InternalAddGeneratedFileEPKvi
   fun:_ZN43protobuf_google_2fprotobuf_2fstruct_2eproto18AddDescriptorsImplEv
   fun:__pthread_once_slow
   obj:/usr/lib/x86_64-linux-gnu/libprotobuf.so.17.0.0
}
{
   <insert_a_suppression_name_here>
   Memcheck:Leak
   match-leak-kinds: reachable
   fun:_Znwm
   fun:_ZN9__gnu_cxx13new_allocatorIcE8allocateEmPKv
   fun:_ZNSt16allocator_traitsISaIcEE8allocateERS0_m
   fun:_ZNSt7__cxx1112basic_stringIcSt11char_traitsIcESaIcEE9_M_createERmm
   obj:/usr/lib/x86_64-linux-gnu/libprotobuf.so.17.0.0
   obj:/usr/lib/x86_64-linux-gnu/libprotobuf.so.17.0.0
   fun:_ZN6google8protobuf24SimpleDescriptorDatabase15DescriptorIndexISt4pairIPKviEE9AddSymbolERKNSt7__cxx1112basic_stringIcSt11char_traitsIcESaIcEEES6_
   fun:_ZN6google8protobuf24SimpleDescriptorDatabase15DescriptorIndexISt4pairIPKviEE7AddFileERKNS0_19FileDescriptorProtoES6_
   fun:_ZN6google8protobuf25EncodedDescriptorDatabase3AddEPKvi
   fun:_ZN6google8protobuf14DescriptorPool24InternalAddGeneratedFileEPKvi
   fun:_ZN53protobuf_google_2fprotobuf_2fsource_5fcontext_2eproto18AddDescriptorsImplEv
   fun:__pthread_once_slow
}
{
   <insert_a_suppression_name_here>
   Memcheck:Leak
   match-leak-kinds: reachable
   fun:_Znwm
   fun:_ZN9__gnu_cxx13new_allocatorIcE8allocateEmPKv
   fun:_ZNSt16allocator_traitsISaIcEE8allocateERS0_m
   fun:_ZNSt7__cxx1112basic_stringIcSt11char_traitsIcESaIcEE9_M_createERmm
   obj:/usr/lib/x86_64-linux-gnu/libprotobuf.so.17.0.0
   fun:_ZN6google8protobuf18InsertIfNotPresentISt3mapINSt7__cxx1112basic_stringIcSt11char_traitsIcESaIcEEESt4pairIPKviESt4lessIS8_ESaIS9_IKS8_SC_EEEEEbPT_RKNSJ_10value_type10first_typeERKNSL_11second_typeE
   fun:_ZN6google8protobuf24SimpleDescriptorDatabase15DescriptorIndexISt4pairIPKviEE7AddFileERKNS0_19FileDescriptorProtoES6_
   fun:_ZN6google8protobuf25EncodedDescriptorDatabase3AddEPKvi
   fun:_ZN6google8protobuf14DescriptorPool24InternalAddGeneratedFileEPKvi
   fun:_ZN45protobuf_google_2fprotobuf_2fduration_2eproto18AddDescriptorsImplEv
   fun:__pthread_once_slow
   obj:/usr/lib/x86_64-linux-gnu/libprotobuf.so.17.0.0
}
{
   <insert_a_suppression_name_here>
   Memcheck:Leak
   match-leak-kinds: reachable
   fun:_Znwm
   fun:_ZN9__gnu_cxx13new_allocatorIcE8allocateEmPKv
   fun:_ZNSt16allocator_traitsISaIcEE8allocateERS0_m
   fun:_ZNSt7__cxx1112basic_stringIcSt11char_traitsIcESaIcEE9_M_createERmm
   obj:/usr/lib/x86_64-linux-gnu/libprotobuf.so.17.0.0
   fun:_ZN6google8protobuf18InsertIfNotPresentISt3mapINSt7__cxx1112basic_stringIcSt11char_traitsIcESaIcEEESt4pairIPKviESt4lessIS8_ESaIS9_IKS8_SC_EEEEEbPT_RKNSJ_10value_type10first_typeERKNSL_11second_typeE
   fun:_ZN6google8protobuf24SimpleDescriptorDatabase15DescriptorIndexISt4pairIPKviEE7AddFileERKNS0_19FileDescriptorProtoES6_
   fun:_ZN6google8protobuf25EncodedDescriptorDatabase3AddEPKvi
   fun:_ZN6google8protobuf14DescriptorPool24InternalAddGeneratedFileEPKvi
   fun:_ZN45protobuf_google_2fprotobuf_2fwrappers_2eproto18AddDescriptorsImplEv
   fun:__pthread_once_slow
   obj:/usr/lib/x86_64-linux-gnu/libprotobuf.so.17.0.0
}
{
   <insert_a_suppression_name_here>
   Memcheck:Leak
   match-leak-kinds: reachable
   fun:_Znwm
   fun:_ZN9__gnu_cxx13new_allocatorIcE8allocateEmPKv
   fun:_ZNSt16allocator_traitsISaIcEE8allocateERS0_m
   fun:_ZNSt7__cxx1112basic_stringIcSt11char_traitsIcESaIcEE9_M_createERmm
   fun:_ZNSt7__cxx1112basic_stringIcSt11char_traitsIcESaIcEE9_M_mutateEmmPKcm
   fun:_ZNSt7__cxx1112basic_stringIcSt11char_traitsIcESaIcEE9_M_appendEPKcm
   fun:_ZN6google8protobuf17DescriptorBuilder10BuildOneofERKNS0_20OneofDescriptorProtoEPNS0_10DescriptorEPNS0_15OneofDescriptorE
   fun:_ZN6google8protobuf17DescriptorBuilder12BuildMessageERKNS0_15DescriptorProtoEPKNS0_10DescriptorEPS5_
   fun:_ZN6google8protobuf17DescriptorBuilder13BuildFileImplERKNS0_19FileDescriptorProtoE
   fun:_ZN6google8protobuf17DescriptorBuilder9BuildFileERKNS0_19FileDescriptorProtoE
   fun:_ZNK6google8protobuf14DescriptorPool21BuildFileFromDatabaseERKNS0_19FileDescriptorProtoE
   fun:_ZNK6google8protobuf14DescriptorPool29TryFindFileInFallbackDatabaseERKNSt7__cxx1112basic_stringIcSt11char_traitsIcESaIcEEE
}
{
   <insert_a_suppression_name_here>
   Memcheck:Leak
   match-leak-kinds: reachable
   fun:_Znwm
   fun:_ZN6google8protobuf14MessageFactory29InternalRegisterGeneratedFileEPKcPFvRKNSt7__cxx1112basic_stringIcSt11char_traitsIcESaIcEEEE
   fun:_ZN40protobuf_google_2fprotobuf_2fapi_2eproto18AddDescriptorsImplEv
   fun:__pthread_once_slow
   obj:/usr/lib/x86_64-linux-gnu/libprotobuf.so.17.0.0
   fun:call_init
   fun:_dl_init
   obj:/lib/x86_64-linux-gnu/ld-2.27.so
}
{
   <insert_a_suppression_name_here>
   Memcheck:Leak
   match-leak-kinds: reachable
   fun:_Znwm
   fun:_ZN6google8protobuf14MessageFactory29InternalRegisterGeneratedFileEPKcPFvRKNSt7__cxx1112basic_stringIcSt11char_traitsIcESaIcEEEE
   fun:__pthread_once_slow
   obj:/usr/lib/x86_64-linux-gnu/libprotobuf.so.17.0.0
   fun:_ZN40protobuf_google_2fprotobuf_2fapi_2eproto18AddDescriptorsImplEv
   fun:__pthread_once_slow
   obj:/usr/lib/x86_64-linux-gnu/libprotobuf.so.17.0.0
   fun:call_init
   fun:_dl_init
   obj:/lib/x86_64-linux-gnu/ld-2.27.so
}
{
   <insert_a_suppression_name_here>
   Memcheck:Leak
   match-leak-kinds: reachable
   fun:_Znwm
   fun:_ZN6google8protobuf14MessageFactory29InternalRegisterGeneratedFileEPKcPFvRKNSt7__cxx1112basic_stringIcSt11char_traitsIcESaIcEEEE
   fun:_ZN41protobuf_google_2fprotobuf_2ftype_2eproto18AddDescriptorsImplEv
   fun:__pthread_once_slow
   obj:/usr/lib/x86_64-linux-gnu/libprotobuf.so.17.0.0
   fun:__pthread_once_slow
   obj:/usr/lib/x86_64-linux-gnu/libprotobuf.so.17.0.0
   fun:call_init
   fun:_dl_init
   obj:/lib/x86_64-linux-gnu/ld-2.27.so
}
{
   <insert_a_suppression_name_here>
   Memcheck:Leak
   match-leak-kinds: reachable
   fun:_Znwm
   fun:_ZN9__gnu_cxx13new_allocatorIcE8allocateEmPKv
   fun:_ZNSt16allocator_traitsISaIcEE8allocateERS0_m
   fun:_ZNSt7__cxx1112basic_stringIcSt11char_traitsIcESaIcEE9_M_createERmm
   obj:/usr/lib/x86_64-linux-gnu/libprotobuf.so.17.0.0
   fun:_ZN6google8protobuf18InsertIfNotPresentISt3mapINSt7__cxx1112basic_stringIcSt11char_traitsIcESaIcEEESt4pairIPKviESt4lessIS8_ESaIS9_IKS8_SC_EEEEEbPT_RKNSJ_10value_type10first_typeERKNSL_11second_typeE
   fun:_ZN6google8protobuf24SimpleDescriptorDatabase15DescriptorIndexISt4pairIPKviEE7AddFileERKNS0_19FileDescriptorProtoES6_
   fun:_ZN6google8protobuf25EncodedDescriptorDatabase3AddEPKvi
   fun:_ZN6google8protobuf14DescriptorPool24InternalAddGeneratedFileEPKvi
   fun:_ZN46protobuf_google_2fprotobuf_2ftimestamp_2eproto18AddDescriptorsImplEv
   fun:__pthread_once_slow
   obj:/usr/lib/x86_64-linux-gnu/libprotobuf.so.17.0.0
}
{
   <insert_a_suppression_name_here>
   Memcheck:Leak
   match-leak-kinds: reachable
   fun:_Znwm
   fun:_ZN6google8protobuf14MessageFactory29InternalRegisterGeneratedFileEPKcPFvRKNSt7__cxx1112basic_stringIcSt11char_traitsIcESaIcEEEE
   fun:_ZN25protobuf_bluzelle_2eproto18AddDescriptorsImplEv
   fun:_ZSt13__invoke_implIvRFvvEJEET_St14__invoke_otherOT0_DpOT1_
   fun:_ZSt8__invokeIRFvvEJEENSt15__invoke_resultIT_JDpT0_EE4typeEOS3_DpOS4_
   fun:_ZZSt9call_onceIRFvvEJEEvRSt9once_flagOT_DpOT0_ENKUlvE_clEv
   fun:_ZZSt9call_onceIRFvvEJEEvRSt9once_flagOT_DpOT0_ENKUlvE0_clEv
   fun:_ZZSt9call_onceIRFvvEJEEvRSt9once_flagOT_DpOT0_ENUlvE0_4_FUNEv
   fun:__pthread_once_slow
   fun:_ZL14__gthread_oncePiPFvvE
   fun:_ZSt9call_onceIRFvvEJEEvRSt9once_flagOT_DpOT0_
   fun:_ZN6google8protobuf8internal9call_onceIJRSt9once_flagRFvvEEEEvDpOT_
}
{
   <insert_a_suppression_name_here>
   Memcheck:Leak
   match-leak-kinds: reachable
   fun:_Znwm
   fun:_ZN6google8protobuf14MessageFactory29InternalRegisterGeneratedFileEPKcPFvRKNSt7__cxx1112basic_stringIcSt11char_traitsIcESaIcEEEE
   fun:_ZN25protobuf_database_2eproto18AddDescriptorsImplEv
   fun:_ZSt13__invoke_implIvRFvvEJEET_St14__invoke_otherOT0_DpOT1_
   fun:_ZSt8__invokeIRFvvEJEENSt15__invoke_resultIT_JDpT0_EE4typeEOS3_DpOS4_
   fun:_ZZSt9call_onceIRFvvEJEEvRSt9once_flagOT_DpOT0_ENKUlvE_clEv
   fun:_ZZSt9call_onceIRFvvEJEEvRSt9once_flagOT_DpOT0_ENKUlvE0_clEv
   fun:_ZZSt9call_onceIRFvvEJEEvRSt9once_flagOT_DpOT0_ENUlvE0_4_FUNEv
   fun:__pthread_once_slow
   fun:_ZL14__gthread_oncePiPFvvE
   fun:_ZSt9call_onceIRFvvEJEEvRSt9once_flagOT_DpOT0_
   fun:_ZN6google8protobuf8internal9call_onceIJRSt9once_flagRFvvEEEEvDpOT_
}
{
   <insert_a_suppression_name_here>
   Memcheck:Leak
   match-leak-kinds: reachable
   fun:_Znwm
   fun:_ZN6google8protobuf14MessageFactory29InternalRegisterGeneratedFileEPKcPFvRKNSt7__cxx1112basic_stringIcSt11char_traitsIcESaIcEEEE
   fun:_ZN21protobuf_pbft_2eproto18AddDescriptorsImplEv
   fun:_ZSt13__invoke_implIvRFvvEJEET_St14__invoke_otherOT0_DpOT1_
   fun:_ZSt8__invokeIRFvvEJEENSt15__invoke_resultIT_JDpT0_EE4typeEOS3_DpOS4_
   fun:_ZZSt9call_onceIRFvvEJEEvRSt9once_flagOT_DpOT0_ENKUlvE_clEv
   fun:_ZZSt9call_onceIRFvvEJEEvRSt9once_flagOT_DpOT0_ENKUlvE0_clEv
   fun:_ZZSt9call_onceIRFvvEJEEvRSt9once_flagOT_DpOT0_ENUlvE0_4_FUNEv
   fun:__pthread_once_slow
   fun:_ZL14__gthread_oncePiPFvvE
   fun:_ZSt9call_onceIRFvvEJEEvRSt9once_flagOT_DpOT0_
   fun:_ZN6google8protobuf8internal9call_onceIJRSt9once_flagRFvvEEEEvDpOT_
}
{
   <insert_a_suppression_name_here>
   Memcheck:Leak
   match-leak-kinds: reachable
   fun:_Znwm
   fun:_ZN6google8protobuf14MessageFactory29InternalRegisterGeneratedFileEPKcPFvRKNSt7__cxx1112basic_stringIcSt11char_traitsIcESaIcEEEE
   fun:_ZN22protobuf_audit_2eproto18AddDescriptorsImplEv
   fun:_ZSt13__invoke_implIvRFvvEJEET_St14__invoke_otherOT0_DpOT1_
   fun:_ZSt8__invokeIRFvvEJEENSt15__invoke_resultIT_JDpT0_EE4typeEOS3_DpOS4_
   fun:_ZZSt9call_onceIRFvvEJEEvRSt9once_flagOT_DpOT0_ENKUlvE_clEv
   fun:_ZZSt9call_onceIRFvvEJEEvRSt9once_flagOT_DpOT0_ENKUlvE0_clEv
   fun:_ZZSt9call_onceIRFvvEJEEvRSt9once_flagOT_DpOT0_ENUlvE0_4_FUNEv
   fun:__pthread_once_slow
   fun:_ZL14__gthread_oncePiPFvvE
   fun:_ZSt9call_onceIRFvvEJEEvRSt9once_flagOT_DpOT0_
   fun:_ZN6google8protobuf8internal9call_onceIJRSt9once_flagRFvvEEEEvDpOT_
}
{
   <insert_a_suppression_name_here>
   Memcheck:Leak
   match-leak-kinds: reachable
   fun:_Znwm
   fun:_ZNSt6vectorIN6google8protobuf14DescriptorPool6Tables10CheckPointESaIS4_EE17_M_realloc_insertIJS4_EEEvN9__gnu_cxx17__normal_iteratorIPS4_S6_EEDpOT_
   fun:_ZN6google8protobuf14DescriptorPool6Tables13AddCheckpointEv
   fun:_ZN6google8protobuf17DescriptorBuilder9BuildFileERKNS0_19FileDescriptorProtoE
   fun:_ZNK6google8protobuf14DescriptorPool21BuildFileFromDatabaseERKNS0_19FileDescriptorProtoE
   fun:_ZNK6google8protobuf14DescriptorPool29TryFindFileInFallbackDatabaseERKNSt7__cxx1112basic_stringIcSt11char_traitsIcESaIcEEE
   fun:_ZNK6google8protobuf14DescriptorPool14FindFileByNameERKNSt7__cxx1112basic_stringIcSt11char_traitsIcESaIcEEE
   fun:_ZN6google8protobuf8internal17AssignDescriptorsERKNSt7__cxx1112basic_stringIcSt11char_traitsIcESaIcEEEPKNS1_15MigrationSchemaEPKPKNS0_7MessageEPKjPNS0_8MetadataEPPKNS0_14EnumDescriptorEPPKNS0_17ServiceDescriptorE
   fun:_ZN25protobuf_bluzelle_2eproto26protobuf_AssignDescriptorsEv
   fun:_ZSt13__invoke_implIvRFvvEJEET_St14__invoke_otherOT0_DpOT1_
   fun:_ZSt8__invokeIRFvvEJEENSt15__invoke_resultIT_JDpT0_EE4typeEOS3_DpOS4_
   fun:_ZZSt9call_onceIRFvvEJEEvRSt9once_flagOT_DpOT0_ENKUlvE_clEv
}
{
   <insert_a_suppression_name_here>
   Memcheck:Leak
   match-leak-kinds: reachable
   fun:_Znwm
   fun:_ZN6google8protobuf14DescriptorPool6Tables14AllocateStringERKNSt7__cxx1112basic_stringIcSt11char_traitsIcESaIcEEE
   fun:_ZN6google8protobuf17DescriptorBuilder13BuildFileImplERKNS0_19FileDescriptorProtoE
   fun:_ZN6google8protobuf17DescriptorBuilder9BuildFileERKNS0_19FileDescriptorProtoE
   fun:_ZNK6google8protobuf14DescriptorPool21BuildFileFromDatabaseERKNS0_19FileDescriptorProtoE
   fun:_ZNK6google8protobuf14DescriptorPool29TryFindFileInFallbackDatabaseERKNSt7__cxx1112basic_stringIcSt11char_traitsIcESaIcEEE
   fun:_ZNK6google8protobuf14DescriptorPool14FindFileByNameERKNSt7__cxx1112basic_stringIcSt11char_traitsIcESaIcEEE
   fun:_ZN6google8protobuf8internal17AssignDescriptorsERKNSt7__cxx1112basic_stringIcSt11char_traitsIcESaIcEEEPKNS1_15MigrationSchemaEPKPKNS0_7MessageEPKjPNS0_8MetadataEPPKNS0_14EnumDescriptorEPPKNS0_17ServiceDescriptorE
   fun:_ZN25protobuf_bluzelle_2eproto26protobuf_AssignDescriptorsEv
   fun:_ZSt13__invoke_implIvRFvvEJEET_St14__invoke_otherOT0_DpOT1_
   fun:_ZSt8__invokeIRFvvEJEENSt15__invoke_resultIT_JDpT0_EE4typeEOS3_DpOS4_
   fun:_ZZSt9call_onceIRFvvEJEEvRSt9once_flagOT_DpOT0_ENKUlvE_clEv
}
{
   <insert_a_suppression_name_here>
   Memcheck:Leak
   match-leak-kinds: reachable
   fun:_Znwm
   fun:_ZN6google8protobuf14DescriptorPool6Tables7AddFileEPKNS0_14FileDescriptorE
   fun:_ZN6google8protobuf17DescriptorBuilder13BuildFileImplERKNS0_19FileDescriptorProtoE
   fun:_ZN6google8protobuf17DescriptorBuilder9BuildFileERKNS0_19FileDescriptorProtoE
   fun:_ZNK6google8protobuf14DescriptorPool21BuildFileFromDatabaseERKNS0_19FileDescriptorProtoE
   fun:_ZNK6google8protobuf14DescriptorPool29TryFindFileInFallbackDatabaseERKNSt7__cxx1112basic_stringIcSt11char_traitsIcESaIcEEE
   fun:_ZNK6google8protobuf14DescriptorPool14FindFileByNameERKNSt7__cxx1112basic_stringIcSt11char_traitsIcESaIcEEE
   fun:_ZN6google8protobuf8internal17AssignDescriptorsERKNSt7__cxx1112basic_stringIcSt11char_traitsIcESaIcEEEPKNS1_15MigrationSchemaEPKPKNS0_7MessageEPKjPNS0_8MetadataEPPKNS0_14EnumDescriptorEPPKNS0_17ServiceDescriptorE
   fun:_ZN25protobuf_bluzelle_2eproto26protobuf_AssignDescriptorsEv
   fun:_ZSt13__invoke_implIvRFvvEJEET_St14__invoke_otherOT0_DpOT1_
   fun:_ZSt8__invokeIRFvvEJEENSt15__invoke_resultIT_JDpT0_EE4typeEOS3_DpOS4_
   fun:_ZZSt9call_onceIRFvvEJEEvRSt9once_flagOT_DpOT0_ENKUlvE_clEv
}
{
   <insert_a_suppression_name_here>
   Memcheck:Leak
   match-leak-kinds: reachable
   fun:_Znwm
   fun:_ZN6google8protobuf14DescriptorPool6Tables14AllocateStringERKNSt7__cxx1112basic_stringIcSt11char_traitsIcESaIcEEE
   fun:_ZN6google8protobuf17DescriptorBuilder12BuildMessageERKNS0_15DescriptorProtoEPKNS0_10DescriptorEPS5_
   fun:_ZN6google8protobuf17DescriptorBuilder13BuildFileImplERKNS0_19FileDescriptorProtoE
   fun:_ZN6google8protobuf17DescriptorBuilder9BuildFileERKNS0_19FileDescriptorProtoE
   fun:_ZNK6google8protobuf14DescriptorPool21BuildFileFromDatabaseERKNS0_19FileDescriptorProtoE
   fun:_ZNK6google8protobuf14DescriptorPool29TryFindFileInFallbackDatabaseERKNSt7__cxx1112basic_stringIcSt11char_traitsIcESaIcEEE
   fun:_ZNK6google8protobuf14DescriptorPool14FindFileByNameERKNSt7__cxx1112basic_stringIcSt11char_traitsIcESaIcEEE
   fun:_ZN6google8protobuf8internal17AssignDescriptorsERKNSt7__cxx1112basic_stringIcSt11char_traitsIcESaIcEEEPKNS1_15MigrationSchemaEPKPKNS0_7MessageEPKjPNS0_8MetadataEPPKNS0_14EnumDescriptorEPPKNS0_17ServiceDescriptorE
   fun:_ZN25protobuf_bluzelle_2eproto26protobuf_AssignDescriptorsEv
   fun:_ZSt13__invoke_implIvRFvvEJEET_St14__invoke_otherOT0_DpOT1_
   fun:_ZSt8__invokeIRFvvEJEENSt15__invoke_resultIT_JDpT0_EE4typeEOS3_DpOS4_
}
{
   <insert_a_suppression_name_here>
   Memcheck:Leak
   match-leak-kinds: reachable
   fun:_Znwm
   fun:_ZN6google8protobuf14DescriptorPool6Tables14AllocateStringERKNSt7__cxx1112basic_stringIcSt11char_traitsIcESaIcEEE
   fun:_ZN6google8protobuf17DescriptorBuilder10BuildOneofERKNS0_20OneofDescriptorProtoEPNS0_10DescriptorEPNS0_15OneofDescriptorE
   fun:_ZN6google8protobuf17DescriptorBuilder12BuildMessageERKNS0_15DescriptorProtoEPKNS0_10DescriptorEPS5_
   fun:_ZN6google8protobuf17DescriptorBuilder13BuildFileImplERKNS0_19FileDescriptorProtoE
   fun:_ZN6google8protobuf17DescriptorBuilder9BuildFileERKNS0_19FileDescriptorProtoE
   fun:_ZNK6google8protobuf14DescriptorPool21BuildFileFromDatabaseERKNS0_19FileDescriptorProtoE
   fun:_ZNK6google8protobuf14DescriptorPool29TryFindFileInFallbackDatabaseERKNSt7__cxx1112basic_stringIcSt11char_traitsIcESaIcEEE
   fun:_ZNK6google8protobuf14DescriptorPool14FindFileByNameERKNSt7__cxx1112basic_stringIcSt11char_traitsIcESaIcEEE
   fun:_ZN6google8protobuf8internal17AssignDescriptorsERKNSt7__cxx1112basic_stringIcSt11char_traitsIcESaIcEEEPKNS1_15MigrationSchemaEPKPKNS0_7MessageEPKjPNS0_8MetadataEPPKNS0_14EnumDescriptorEPPKNS0_17ServiceDescriptorE
   fun:_ZN25protobuf_bluzelle_2eproto26protobuf_AssignDescriptorsEv
   fun:_ZSt13__invoke_implIvRFvvEJEET_St14__invoke_otherOT0_DpOT1_
}
{
   <insert_a_suppression_name_here>
   Memcheck:Leak
   match-leak-kinds: reachable
   fun:_Znwm
   fun:_ZN9__gnu_cxx13new_allocatorIcE8allocateEmPKv
   fun:_ZNSt16allocator_traitsISaIcEE8allocateERS0_m
   fun:_ZNSt7__cxx1112basic_stringIcSt11char_traitsIcESaIcEE9_M_createERmm
   obj:/usr/lib/x86_64-linux-gnu/libprotobuf.so.17.0.0
   fun:_ZN6google8protobuf18InsertIfNotPresentISt3mapINSt7__cxx1112basic_stringIcSt11char_traitsIcESaIcEEESt4pairIPKviESt4lessIS8_ESaIS9_IKS8_SC_EEEEEbPT_RKNSJ_10value_type10first_typeERKNSL_11second_typeE
   fun:_ZN6google8protobuf24SimpleDescriptorDatabase15DescriptorIndexISt4pairIPKviEE7AddFileERKNS0_19FileDescriptorProtoES6_
   fun:_ZN6google8protobuf25EncodedDescriptorDatabase3AddEPKvi
   fun:_ZN6google8protobuf14DescriptorPool24InternalAddGeneratedFileEPKvi
   fun:_ZN47protobuf_google_2fprotobuf_2fdescriptor_2eproto18AddDescriptorsImplEv
   fun:__pthread_once_slow
   obj:/usr/lib/x86_64-linux-gnu/libprotobuf.so.17.0.0
}
{
   <insert_a_suppression_name_here>
   Memcheck:Leak
   match-leak-kinds: reachable
   fun:_Znwm
   fun:_ZN9__gnu_cxx13new_allocatorIcE8allocateEmPKv
   fun:_ZNSt16allocator_traitsISaIcEE8allocateERS0_m
   fun:_ZNSt7__cxx1112basic_stringIcSt11char_traitsIcESaIcEE9_M_createERmm
   obj:/usr/lib/x86_64-linux-gnu/libprotobuf.so.17.0.0
   fun:_ZN6google8protobuf18InsertIfNotPresentISt3mapINSt7__cxx1112basic_stringIcSt11char_traitsIcESaIcEEESt4pairIPKviESt4lessIS8_ESaIS9_IKS8_SC_EEEEEbPT_RKNSJ_10value_type10first_typeERKNSL_11second_typeE
   fun:_ZN6google8protobuf24SimpleDescriptorDatabase15DescriptorIndexISt4pairIPKviEE7AddFileERKNS0_19FileDescriptorProtoES6_
   fun:_ZN6google8protobuf25EncodedDescriptorDatabase3AddEPKvi
   fun:_ZN6google8protobuf14DescriptorPool24InternalAddGeneratedFileEPKvi
   fun:_ZN49protobuf_google_2fprotobuf_2ffield_5fmask_2eproto18AddDescriptorsImplEv
   fun:__pthread_once_slow
   obj:/usr/lib/x86_64-linux-gnu/libprotobuf.so.17.0.0
}
{
   <insert_a_suppression_name_here>
   Memcheck:Leak
   match-leak-kinds: reachable
   fun:_Znwm
   fun:_ZN9__gnu_cxx13new_allocatorIcE8allocateEmPKv
   fun:_ZNSt16allocator_traitsISaIcEE8allocateERS0_m
   fun:_ZNSt7__cxx1112basic_stringIcSt11char_traitsIcESaIcEE9_M_createERmm
   obj:/usr/lib/x86_64-linux-gnu/libprotobuf.so.17.0.0
   fun:_ZN6google8protobuf18InsertIfNotPresentISt3mapINSt7__cxx1112basic_stringIcSt11char_traitsIcESaIcEEESt4pairIPKviESt4lessIS8_ESaIS9_IKS8_SC_EEEEEbPT_RKNSJ_10value_type10first_typeERKNSL_11second_typeE
   fun:_ZN6google8protobuf24SimpleDescriptorDatabase15DescriptorIndexISt4pairIPKviEE7AddFileERKNS0_19FileDescriptorProtoES6_
   fun:_ZN6google8protobuf25EncodedDescriptorDatabase3AddEPKvi
   fun:_ZN6google8protobuf14DescriptorPool24InternalAddGeneratedFileEPKvi
   fun:_ZN53protobuf_google_2fprotobuf_2fsource_5fcontext_2eproto18AddDescriptorsImplEv
   fun:__pthread_once_slow
   obj:/usr/lib/x86_64-linux-gnu/libprotobuf.so.17.0.0
}
{
   <insert_a_suppression_name_here>
   Memcheck:Leak
   match-leak-kinds: reachable
   fun:_Znwm
   fun:_ZN9__gnu_cxx13new_allocatorIcE8allocateEmPKv
   fun:_ZNSt16allocator_traitsISaIcEE8allocateERS0_m
   fun:_ZNSt7__cxx1112basic_stringIcSt11char_traitsIcESaIcEE9_M_createERmm
   obj:/usr/lib/x86_64-linux-gnu/libprotobuf.so.17.0.0
   fun:_ZN6google8protobuf14DescriptorPool6Tables14AllocateStringERKNSt7__cxx1112basic_stringIcSt11char_traitsIcESaIcEEE
   fun:_ZN6google8protobuf17DescriptorBuilder21BuildFieldOrExtensionERKNS0_20FieldDescriptorProtoEPKNS0_10DescriptorEPNS0_15FieldDescriptorEb
   fun:_ZN6google8protobuf17DescriptorBuilder12BuildMessageERKNS0_15DescriptorProtoEPKNS0_10DescriptorEPS5_
   fun:_ZN6google8protobuf17DescriptorBuilder13BuildFileImplERKNS0_19FileDescriptorProtoE
   fun:_ZN6google8protobuf17DescriptorBuilder9BuildFileERKNS0_19FileDescriptorProtoE
   fun:_ZNK6google8protobuf14DescriptorPool21BuildFileFromDatabaseERKNS0_19FileDescriptorProtoE
   fun:_ZNK6google8protobuf14DescriptorPool29TryFindFileInFallbackDatabaseERKNSt7__cxx1112basic_stringIcSt11char_traitsIcESaIcEEE
}
{
   <insert_a_suppression_name_here>
   Memcheck:Leak
   match-leak-kinds: reachable
   fun:_Znwm
   fun:_ZN6google8protobuf14DescriptorPoolC1EPNS0_18DescriptorDatabaseEPNS1_14ErrorCollectorE
   fun:_ZN6google8protobuf14DescriptorPool23internal_generated_poolEv
   fun:_ZN6google8protobuf8internal17AssignDescriptorsERKNSt7__cxx1112basic_stringIcSt11char_traitsIcESaIcEEEPKNS1_15MigrationSchemaEPKPKNS0_7MessageEPKjPNS0_8MetadataEPPKNS0_14EnumDescriptorEPPKNS0_17ServiceDescriptorE
   fun:_ZN25protobuf_bluzelle_2eproto26protobuf_AssignDescriptorsEv
   fun:_ZSt13__invoke_implIvRFvvEJEET_St14__invoke_otherOT0_DpOT1_
   fun:_ZSt8__invokeIRFvvEJEENSt15__invoke_resultIT_JDpT0_EE4typeEOS3_DpOS4_
   fun:_ZZSt9call_onceIRFvvEJEEvRSt9once_flagOT_DpOT0_ENKUlvE_clEv
   fun:_ZZSt9call_onceIRFvvEJEEvRSt9once_flagOT_DpOT0_ENKUlvE0_clEv
   fun:_ZZSt9call_onceIRFvvEJEEvRSt9once_flagOT_DpOT0_ENUlvE0_4_FUNEv
   fun:__pthread_once_slow
   fun:_ZL14__gthread_oncePiPFvvE
}
{
   <insert_a_suppression_name_here>
   Memcheck:Leak
   match-leak-kinds: reachable
   fun:_Znwm
   obj:/usr/lib/x86_64-linux-gnu/libprotobuf.so.17.0.0
   fun:_ZN6google8protobuf14DescriptorPool6TablesC1Ev
   fun:_ZN6google8protobuf14DescriptorPoolC1EPNS0_18DescriptorDatabaseEPNS1_14ErrorCollectorE
   fun:_ZN6google8protobuf14DescriptorPool23internal_generated_poolEv
   fun:_ZN6google8protobuf8internal17AssignDescriptorsERKNSt7__cxx1112basic_stringIcSt11char_traitsIcESaIcEEEPKNS1_15MigrationSchemaEPKPKNS0_7MessageEPKjPNS0_8MetadataEPPKNS0_14EnumDescriptorEPPKNS0_17ServiceDescriptorE
   fun:_ZN25protobuf_bluzelle_2eproto26protobuf_AssignDescriptorsEv
   fun:_ZSt13__invoke_implIvRFvvEJEET_St14__invoke_otherOT0_DpOT1_
   fun:_ZSt8__invokeIRFvvEJEENSt15__invoke_resultIT_JDpT0_EE4typeEOS3_DpOS4_
   fun:_ZZSt9call_onceIRFvvEJEEvRSt9once_flagOT_DpOT0_ENKUlvE_clEv
   fun:_ZZSt9call_onceIRFvvEJEEvRSt9once_flagOT_DpOT0_ENKUlvE0_clEv
   fun:_ZZSt9call_onceIRFvvEJEEvRSt9once_flagOT_DpOT0_ENUlvE0_4_FUNEv
}
{
   <insert_a_suppression_name_here>
   Memcheck:Leak
   match-leak-kinds: reachable
   fun:_Znwm
   obj:/usr/lib/x86_64-linux-gnu/libprotobuf.so.17.0.0
   obj:/usr/lib/x86_64-linux-gnu/libprotobuf.so.17.0.0
   fun:_ZN6google8protobuf20FileDescriptorTablesC1Ev
   fun:_ZN6google8protobuf14DescriptorPool6Tables18AllocateFileTablesEv
   fun:_ZN6google8protobuf17DescriptorBuilder13BuildFileImplERKNS0_19FileDescriptorProtoE
   fun:_ZN6google8protobuf17DescriptorBuilder9BuildFileERKNS0_19FileDescriptorProtoE
   fun:_ZNK6google8protobuf14DescriptorPool21BuildFileFromDatabaseERKNS0_19FileDescriptorProtoE
   fun:_ZNK6google8protobuf14DescriptorPool29TryFindFileInFallbackDatabaseERKNSt7__cxx1112basic_stringIcSt11char_traitsIcESaIcEEE
   fun:_ZNK6google8protobuf14DescriptorPool14FindFileByNameERKNSt7__cxx1112basic_stringIcSt11char_traitsIcESaIcEEE
   fun:_ZN6google8protobuf8internal17AssignDescriptorsERKNSt7__cxx1112basic_stringIcSt11char_traitsIcESaIcEEEPKNS1_15MigrationSchemaEPKPKNS0_7MessageEPKjPNS0_8MetadataEPPKNS0_14EnumDescriptorEPPKNS0_17ServiceDescriptorE
   fun:_ZN25protobuf_bluzelle_2eproto26protobuf_AssignDescriptorsEv
}
{
   <insert_a_suppression_name_here>
   Memcheck:Leak
   match-leak-kinds: reachable
   fun:_Znwm
   obj:/usr/lib/x86_64-linux-gnu/libprotobuf.so.17.0.0
   fun:_ZN6google8protobuf20FileDescriptorTablesC1Ev
   fun:_ZN6google8protobuf14DescriptorPool6Tables18AllocateFileTablesEv
   fun:_ZN6google8protobuf17DescriptorBuilder13BuildFileImplERKNS0_19FileDescriptorProtoE
   fun:_ZN6google8protobuf17DescriptorBuilder9BuildFileERKNS0_19FileDescriptorProtoE
   fun:_ZNK6google8protobuf14DescriptorPool21BuildFileFromDatabaseERKNS0_19FileDescriptorProtoE
   fun:_ZNK6google8protobuf14DescriptorPool29TryFindFileInFallbackDatabaseERKNSt7__cxx1112basic_stringIcSt11char_traitsIcESaIcEEE
   fun:_ZNK6google8protobuf14DescriptorPool14FindFileByNameERKNSt7__cxx1112basic_stringIcSt11char_traitsIcESaIcEEE
   fun:_ZN6google8protobuf8internal17AssignDescriptorsERKNSt7__cxx1112basic_stringIcSt11char_traitsIcESaIcEEEPKNS1_15MigrationSchemaEPKPKNS0_7MessageEPKjPNS0_8MetadataEPPKNS0_14EnumDescriptorEPPKNS0_17ServiceDescriptorE
   fun:_ZN25protobuf_bluzelle_2eproto26protobuf_AssignDescriptorsEv
   fun:_ZSt13__invoke_implIvRFvvEJEET_St14__invoke_otherOT0_DpOT1_
}
{
   <insert_a_suppression_name_here>
   Memcheck:Leak
   match-leak-kinds: reachable
   fun:_Znwm
   fun:_ZN6google8protobuf14DescriptorPool6Tables9AddSymbolERKNSt7__cxx1112basic_stringIcSt11char_traitsIcESaIcEEENS0_6SymbolE
   fun:_ZN6google8protobuf17DescriptorBuilder9AddSymbolERKNSt7__cxx1112basic_stringIcSt11char_traitsIcESaIcEEEPKvS9_RKNS0_7MessageENS0_6SymbolE
   fun:_ZN6google8protobuf17DescriptorBuilder10BuildOneofERKNS0_20OneofDescriptorProtoEPNS0_10DescriptorEPNS0_15OneofDescriptorE
   fun:_ZN6google8protobuf17DescriptorBuilder12BuildMessageERKNS0_15DescriptorProtoEPKNS0_10DescriptorEPS5_
   fun:_ZN6google8protobuf17DescriptorBuilder13BuildFileImplERKNS0_19FileDescriptorProtoE
   fun:_ZN6google8protobuf17DescriptorBuilder9BuildFileERKNS0_19FileDescriptorProtoE
   fun:_ZNK6google8protobuf14DescriptorPool21BuildFileFromDatabaseERKNS0_19FileDescriptorProtoE
   fun:_ZNK6google8protobuf14DescriptorPool29TryFindFileInFallbackDatabaseERKNSt7__cxx1112basic_stringIcSt11char_traitsIcESaIcEEE
   fun:_ZNK6google8protobuf14DescriptorPool14FindFileByNameERKNSt7__cxx1112basic_stringIcSt11char_traitsIcESaIcEEE
   fun:_ZN6google8protobuf8internal17AssignDescriptorsERKNSt7__cxx1112basic_stringIcSt11char_traitsIcESaIcEEEPKNS1_15MigrationSchemaEPKPKNS0_7MessageEPKjPNS0_8MetadataEPPKNS0_14EnumDescriptorEPPKNS0_17ServiceDescriptorE
   fun:_ZN25protobuf_bluzelle_2eproto26protobuf_AssignDescriptorsEv
}
{
   <insert_a_suppression_name_here>
   Memcheck:Leak
   match-leak-kinds: reachable
   fun:_Znwm
   fun:_ZN6google8protobuf14DescriptorPool6Tables9AddSymbolERKNSt7__cxx1112basic_stringIcSt11char_traitsIcESaIcEEENS0_6SymbolE
   fun:_ZN6google8protobuf17DescriptorBuilder9AddSymbolERKNSt7__cxx1112basic_stringIcSt11char_traitsIcESaIcEEEPKvS9_RKNS0_7MessageENS0_6SymbolE
   fun:_ZN6google8protobuf17DescriptorBuilder12BuildMessageERKNS0_15DescriptorProtoEPKNS0_10DescriptorEPS5_
   fun:_ZN6google8protobuf17DescriptorBuilder13BuildFileImplERKNS0_19FileDescriptorProtoE
   fun:_ZN6google8protobuf17DescriptorBuilder9BuildFileERKNS0_19FileDescriptorProtoE
   fun:_ZNK6google8protobuf14DescriptorPool21BuildFileFromDatabaseERKNS0_19FileDescriptorProtoE
   fun:_ZNK6google8protobuf14DescriptorPool29TryFindFileInFallbackDatabaseERKNSt7__cxx1112basic_stringIcSt11char_traitsIcESaIcEEE
   fun:_ZNK6google8protobuf14DescriptorPool14FindFileByNameERKNSt7__cxx1112basic_stringIcSt11char_traitsIcESaIcEEE
   fun:_ZN6google8protobuf8internal17AssignDescriptorsERKNSt7__cxx1112basic_stringIcSt11char_traitsIcESaIcEEEPKNS1_15MigrationSchemaEPKPKNS0_7MessageEPKjPNS0_8MetadataEPPKNS0_14EnumDescriptorEPPKNS0_17ServiceDescriptorE
   fun:_ZN25protobuf_bluzelle_2eproto26protobuf_AssignDescriptorsEv
   fun:_ZSt13__invoke_implIvRFvvEJEET_St14__invoke_otherOT0_DpOT1_
}
{
   <insert_a_suppression_name_here>
   Memcheck:Leak
   match-leak-kinds: reachable
   fun:_Znwm
   fun:_ZN9__gnu_cxx13new_allocatorIcE8allocateEmPKv
   fun:_ZNSt16allocator_traitsISaIcEE8allocateERS0_m
   fun:_ZNSt7__cxx1112basic_stringIcSt11char_traitsIcESaIcEE9_M_createERmm
   obj:/usr/lib/x86_64-linux-gnu/libprotobuf.so.17.0.0
   obj:/usr/lib/x86_64-linux-gnu/libprotobuf.so.17.0.0
   fun:_ZN6google8protobuf24SimpleDescriptorDatabase15DescriptorIndexISt4pairIPKviEE9AddSymbolERKNSt7__cxx1112basic_stringIcSt11char_traitsIcESaIcEEES6_
   fun:_ZN6google8protobuf24SimpleDescriptorDatabase15DescriptorIndexISt4pairIPKviEE7AddFileERKNS0_19FileDescriptorProtoES6_
   fun:_ZN6google8protobuf25EncodedDescriptorDatabase3AddEPKvi
   fun:_ZN6google8protobuf14DescriptorPool24InternalAddGeneratedFileEPKvi
   fun:_ZN22protobuf_audit_2eproto18AddDescriptorsImplEv
   fun:_ZSt13__invoke_implIvRFvvEJEET_St14__invoke_otherOT0_DpOT1_
}
{
   <insert_a_suppression_name_here>
   Memcheck:Leak
   match-leak-kinds: reachable
   fun:_Znwm
   fun:_ZN6google8protobuf6StructC1Ev
   obj:/usr/lib/x86_64-linux-gnu/libprotobuf.so.17.0.0
   obj:/usr/lib/x86_64-linux-gnu/libprotobuf.so.17.0.0
   fun:_ZN6google8protobuf8internal11InitSCCImplEPNS1_11SCCInfoBaseE
   fun:_ZN43protobuf_google_2fprotobuf_2fstruct_2eproto18AddDescriptorsImplEv
   fun:__pthread_once_slow
   obj:/usr/lib/x86_64-linux-gnu/libprotobuf.so.17.0.0
   fun:call_init
   fun:_dl_init
   obj:/lib/x86_64-linux-gnu/ld-2.27.so
}
{
   <insert_a_suppression_name_here>
   Memcheck:Leak
   match-leak-kinds: reachable
   fun:_Znwm
   fun:_ZN6google8protobuf14DescriptorPool6Tables13AllocateBytesEi
   fun:_ZN6google8protobuf17DescriptorBuilder12BuildMessageERKNS0_15DescriptorProtoEPKNS0_10DescriptorEPS5_
   fun:_ZN6google8protobuf17DescriptorBuilder13BuildFileImplERKNS0_19FileDescriptorProtoE
   fun:_ZN6google8protobuf17DescriptorBuilder9BuildFileERKNS0_19FileDescriptorProtoE
   fun:_ZNK6google8protobuf14DescriptorPool21BuildFileFromDatabaseERKNS0_19FileDescriptorProtoE
   fun:_ZNK6google8protobuf14DescriptorPool29TryFindFileInFallbackDatabaseERKNSt7__cxx1112basic_stringIcSt11char_traitsIcESaIcEEE
   fun:_ZNK6google8protobuf14DescriptorPool14FindFileByNameERKNSt7__cxx1112basic_stringIcSt11char_traitsIcESaIcEEE
   fun:_ZN6google8protobuf8internal17AssignDescriptorsERKNSt7__cxx1112basic_stringIcSt11char_traitsIcESaIcEEEPKNS1_15MigrationSchemaEPKPKNS0_7MessageEPKjPNS0_8MetadataEPPKNS0_14EnumDescriptorEPPKNS0_17ServiceDescriptorE
   fun:_ZN25protobuf_bluzelle_2eproto26protobuf_AssignDescriptorsEv
   fun:_ZSt13__invoke_implIvRFvvEJEET_St14__invoke_otherOT0_DpOT1_
   fun:_ZSt8__invokeIRFvvEJEENSt15__invoke_resultIT_JDpT0_EE4typeEOS3_DpOS4_
}
{
   <insert_a_suppression_name_here>
   Memcheck:Leak
   match-leak-kinds: reachable
   fun:_Znwm
   fun:_ZN6google8protobuf20FileDescriptorTables19AddAliasUnderParentEPKvRKNSt7__cxx1112basic_stringIcSt11char_traitsIcESaIcEEENS0_6SymbolE
   fun:_ZN6google8protobuf17DescriptorBuilder9AddSymbolERKNSt7__cxx1112basic_stringIcSt11char_traitsIcESaIcEEEPKvS9_RKNS0_7MessageENS0_6SymbolE
   fun:_ZN6google8protobuf17DescriptorBuilder10BuildOneofERKNS0_20OneofDescriptorProtoEPNS0_10DescriptorEPNS0_15OneofDescriptorE
   fun:_ZN6google8protobuf17DescriptorBuilder12BuildMessageERKNS0_15DescriptorProtoEPKNS0_10DescriptorEPS5_
   fun:_ZN6google8protobuf17DescriptorBuilder13BuildFileImplERKNS0_19FileDescriptorProtoE
   fun:_ZN6google8protobuf17DescriptorBuilder9BuildFileERKNS0_19FileDescriptorProtoE
   fun:_ZNK6google8protobuf14DescriptorPool21BuildFileFromDatabaseERKNS0_19FileDescriptorProtoE
   fun:_ZNK6google8protobuf14DescriptorPool29TryFindFileInFallbackDatabaseERKNSt7__cxx1112basic_stringIcSt11char_traitsIcESaIcEEE
   fun:_ZNK6google8protobuf14DescriptorPool14FindFileByNameERKNSt7__cxx1112basic_stringIcSt11char_traitsIcESaIcEEE
   fun:_ZN6google8protobuf8internal17AssignDescriptorsERKNSt7__cxx1112basic_stringIcSt11char_traitsIcESaIcEEEPKNS1_15MigrationSchemaEPKPKNS0_7MessageEPKjPNS0_8MetadataEPPKNS0_14EnumDescriptorEPPKNS0_17ServiceDescriptorE
   fun:_ZN25protobuf_bluzelle_2eproto26protobuf_AssignDescriptorsEv
}
{
   <insert_a_suppression_name_here>
   Memcheck:Leak
   match-leak-kinds: reachable
   fun:_Znwm
   fun:_ZN6google8protobuf20FileDescriptorTables19AddAliasUnderParentEPKvRKNSt7__cxx1112basic_stringIcSt11char_traitsIcESaIcEEENS0_6SymbolE
   fun:_ZN6google8protobuf17DescriptorBuilder9AddSymbolERKNSt7__cxx1112basic_stringIcSt11char_traitsIcESaIcEEEPKvS9_RKNS0_7MessageENS0_6SymbolE
   fun:_ZN6google8protobuf17DescriptorBuilder12BuildMessageERKNS0_15DescriptorProtoEPKNS0_10DescriptorEPS5_
   fun:_ZN6google8protobuf17DescriptorBuilder13BuildFileImplERKNS0_19FileDescriptorProtoE
   fun:_ZN6google8protobuf17DescriptorBuilder9BuildFileERKNS0_19FileDescriptorProtoE
   fun:_ZNK6google8protobuf14DescriptorPool21BuildFileFromDatabaseERKNS0_19FileDescriptorProtoE
   fun:_ZNK6google8protobuf14DescriptorPool29TryFindFileInFallbackDatabaseERKNSt7__cxx1112basic_stringIcSt11char_traitsIcESaIcEEE
   fun:_ZNK6google8protobuf14DescriptorPool14FindFileByNameERKNSt7__cxx1112basic_stringIcSt11char_traitsIcESaIcEEE
   fun:_ZN6google8protobuf8internal17AssignDescriptorsERKNSt7__cxx1112basic_stringIcSt11char_traitsIcESaIcEEEPKNS1_15MigrationSchemaEPKPKNS0_7MessageEPKjPNS0_8MetadataEPPKNS0_14EnumDescriptorEPPKNS0_17ServiceDescriptorE
   fun:_ZN25protobuf_bluzelle_2eproto26protobuf_AssignDescriptorsEv
   fun:_ZSt13__invoke_implIvRFvvEJEET_St14__invoke_otherOT0_DpOT1_
}
{
   <insert_a_suppression_name_here>
   Memcheck:Leak
   match-leak-kinds: reachable
   fun:_Znwm
   fun:_ZN6google8protobuf8internal13OnShutdownRunEPFvPKvES3_
   fun:_ZN6google8protobuf8internal20InitProtobufDefaultsEv
   fun:_ZN6google8protobuf8internal11InitSCCImplEPNS1_11SCCInfoBaseE
   fun:_ZN40protobuf_google_2fprotobuf_2fany_2eproto18AddDescriptorsImplEv
   fun:__pthread_once_slow
   obj:/usr/lib/x86_64-linux-gnu/libprotobuf.so.17.0.0
   fun:call_init
   fun:_dl_init
   obj:/lib/x86_64-linux-gnu/ld-2.27.so
}
{
   <insert_a_suppression_name_here>
   Memcheck:Leak
   match-leak-kinds: reachable
   fun:_Znwm
   obj:/usr/lib/x86_64-linux-gnu/libprotobuf.so.17.0.0
   fun:_ZN6google8protobuf14DescriptorPool6Tables13AllocateBytesEi
   fun:_ZN6google8protobuf17DescriptorBuilder16CrossLinkMessageEPNS0_10DescriptorERKNS0_15DescriptorProtoE
   fun:_ZN6google8protobuf17DescriptorBuilder13CrossLinkFileEPNS0_14FileDescriptorERKNS0_19FileDescriptorProtoE
   fun:_ZN6google8protobuf17DescriptorBuilder13BuildFileImplERKNS0_19FileDescriptorProtoE
   fun:_ZN6google8protobuf17DescriptorBuilder9BuildFileERKNS0_19FileDescriptorProtoE
   fun:_ZNK6google8protobuf14DescriptorPool21BuildFileFromDatabaseERKNS0_19FileDescriptorProtoE
   fun:_ZNK6google8protobuf14DescriptorPool29TryFindFileInFallbackDatabaseERKNSt7__cxx1112basic_stringIcSt11char_traitsIcESaIcEEE
   fun:_ZNK6google8protobuf14DescriptorPool14FindFileByNameERKNSt7__cxx1112basic_stringIcSt11char_traitsIcESaIcEEE
   fun:_ZN6google8protobuf8internal17AssignDescriptorsERKNSt7__cxx1112basic_stringIcSt11char_traitsIcESaIcEEEPKNS1_15MigrationSchemaEPKPKNS0_7MessageEPKjPNS0_8MetadataEPPKNS0_14EnumDescriptorEPPKNS0_17ServiceDescriptorE
   fun:_ZN25protobuf_bluzelle_2eproto26protobuf_AssignDescriptorsEv
}
{
   <insert_a_suppression_name_here>
   Memcheck:Leak
   match-leak-kinds: reachable
   fun:_Znwm
   fun:_ZN6google8protobuf8internal17AssignDescriptorsERKNSt7__cxx1112basic_stringIcSt11char_traitsIcESaIcEEEPKNS1_15MigrationSchemaEPKPKNS0_7MessageEPKjPNS0_8MetadataEPPKNS0_14EnumDescriptorEPPKNS0_17ServiceDescriptorE
   fun:_ZN25protobuf_bluzelle_2eproto26protobuf_AssignDescriptorsEv
   fun:_ZSt13__invoke_implIvRFvvEJEET_St14__invoke_otherOT0_DpOT1_
   fun:_ZSt8__invokeIRFvvEJEENSt15__invoke_resultIT_JDpT0_EE4typeEOS3_DpOS4_
   fun:_ZZSt9call_onceIRFvvEJEEvRSt9once_flagOT_DpOT0_ENKUlvE_clEv
   fun:_ZZSt9call_onceIRFvvEJEEvRSt9once_flagOT_DpOT0_ENKUlvE0_clEv
   fun:_ZZSt9call_onceIRFvvEJEEvRSt9once_flagOT_DpOT0_ENUlvE0_4_FUNEv
   fun:__pthread_once_slow
   fun:_ZL14__gthread_oncePiPFvvE
   fun:_ZSt9call_onceIRFvvEJEEvRSt9once_flagOT_DpOT0_
   fun:_ZN6google8protobuf8internal9call_onceIJRSt9once_flagRFvvEEEEvDpOT_
}
{
   <insert_a_suppression_name_here>
   Memcheck:Leak
